
Controller_sw.elf:     file format elf32-littlenios2
Controller_sw.elf
architecture: nios2, flags 0x00000112:
EXEC_P, HAS_SYMS, D_PAGED
start address 0x020001b8

Program Header:
    LOAD off    0x00001020 vaddr 0x02000020 paddr 0x02000020 align 2**12
         filesz 0x000193d8 memsz 0x000196dc flags rwx
    LOAD off    0x0001b000 vaddr 0x04001000 paddr 0x04001000 align 2**12
         filesz 0x00000000 memsz 0x00000000 flags r-x

Sections:
Idx Name          Size      VMA       LMA       File off  Algn
  0 .entry        00000000  04001000  04001000  0001b000  2**5
                  CONTENTS, ALLOC, LOAD, READONLY, CODE
  1 .exceptions   00000198  02000020  02000020  00001020  2**2
                  CONTENTS, ALLOC, LOAD, READONLY, CODE
  2 .text         00016364  020001b8  020001b8  000011b8  2**2
                  CONTENTS, ALLOC, LOAD, READONLY, CODE
  3 .rodata       000011fc  0201651c  0201651c  0001751c  2**2
                  CONTENTS, ALLOC, LOAD, READONLY, DATA
  4 .rwdata       00001ce0  02017718  02017718  00018718  2**2
                  CONTENTS, ALLOC, LOAD, DATA, SMALL_DATA
  5 .bss          00000304  020193f8  020193f8  0001a3f8  2**2
                  ALLOC, SMALL_DATA
  6 .comment      00000023  00000000  00000000  0001b000  2**0
                  CONTENTS, READONLY
  7 .debug_aranges 00001178  00000000  00000000  0001b028  2**3
                  CONTENTS, READONLY, DEBUGGING
  8 .debug_info   00027e62  00000000  00000000  0001c1a0  2**0
                  CONTENTS, READONLY, DEBUGGING
  9 .debug_abbrev 0000acbc  00000000  00000000  00044002  2**0
                  CONTENTS, READONLY, DEBUGGING
 10 .debug_line   0000c521  00000000  00000000  0004ecbe  2**0
                  CONTENTS, READONLY, DEBUGGING
 11 .debug_frame  00002c70  00000000  00000000  0005b1e0  2**2
                  CONTENTS, READONLY, DEBUGGING
 12 .debug_str    0000410a  00000000  00000000  0005de50  2**0
                  CONTENTS, READONLY, DEBUGGING
 13 .debug_loc    00012a27  00000000  00000000  00061f5a  2**0
                  CONTENTS, READONLY, DEBUGGING
 14 .debug_alt_sim_info 00000010  00000000  00000000  00074984  2**2
                  CONTENTS, READONLY, DEBUGGING
 15 .debug_ranges 00000ac0  00000000  00000000  00074998  2**3
                  CONTENTS, READONLY, DEBUGGING
 16 .thread_model 00000003  00000000  00000000  00079bb9  2**0
                  CONTENTS, READONLY
 17 .cpu          00000003  00000000  00000000  00079bbc  2**0
                  CONTENTS, READONLY
 18 .qsys         00000001  00000000  00000000  00079bbf  2**0
                  CONTENTS, READONLY
 19 .simulation_enabled 00000001  00000000  00000000  00079bc0  2**0
                  CONTENTS, READONLY
 20 .sysid_hash   00000004  00000000  00000000  00079bc1  2**0
                  CONTENTS, READONLY
 21 .sysid_base   00000004  00000000  00000000  00079bc5  2**0
                  CONTENTS, READONLY
 22 .sysid_time   00000004  00000000  00000000  00079bc9  2**0
                  CONTENTS, READONLY
 23 .stderr_dev   00000009  00000000  00000000  00079bcd  2**0
                  CONTENTS, READONLY
 24 .stdin_dev    00000009  00000000  00000000  00079bd6  2**0
                  CONTENTS, READONLY
 25 .stdout_dev   00000009  00000000  00000000  00079bdf  2**0
                  CONTENTS, READONLY
 26 .sopc_system_name 00000009  00000000  00000000  00079be8  2**0
                  CONTENTS, READONLY
 27 .quartus_project_dir 00000031  00000000  00000000  00079bf1  2**0
                  CONTENTS, READONLY
 28 .sopcinfo     001297ad  00000000  00000000  00079c22  2**0
                  CONTENTS, READONLY
SYMBOL TABLE:
04001000 l    d  .entry	00000000 .entry
02000020 l    d  .exceptions	00000000 .exceptions
020001b8 l    d  .text	00000000 .text
0201651c l    d  .rodata	00000000 .rodata
02017718 l    d  .rwdata	00000000 .rwdata
020193f8 l    d  .bss	00000000 .bss
00000000 l    d  .comment	00000000 .comment
00000000 l    d  .debug_aranges	00000000 .debug_aranges
00000000 l    d  .debug_info	00000000 .debug_info
00000000 l    d  .debug_abbrev	00000000 .debug_abbrev
00000000 l    d  .debug_line	00000000 .debug_line
00000000 l    d  .debug_frame	00000000 .debug_frame
00000000 l    d  .debug_str	00000000 .debug_str
00000000 l    d  .debug_loc	00000000 .debug_loc
00000000 l    d  .debug_alt_sim_info	00000000 .debug_alt_sim_info
00000000 l    d  .debug_ranges	00000000 .debug_ranges
00000000 l    df *ABS*	00000000 ../Controller_sw_bsp//obj/HAL/src/crt0.o
020001ec l       .text	00000000 alt_after_alt_main
00000000 l    df *ABS*	00000000 alt_exception_entry.o
02000094 l       .exceptions	00000000 alt_exception_unknown
00000000 l    df *ABS*	00000000 alt_irq_handler.c
00000000 l    df *ABS*	00000000 Counter.c
00000000 l    df *ABS*	00000000 DisDriver.c
00000000 l    df *ABS*	00000000 FRAM.c
00000000 l    df *ABS*	00000000 KPLED.c
020193f8 l     O .bss	00000002 KPLED_Status_Buff
00000000 l    df *ABS*	00000000 comInterface.c
00000000 l    df *ABS*	00000000 coverPage.c
00000000 l    df *ABS*	00000000 delay.c
00000000 l    df *ABS*	00000000 loadWriteData.c
00000000 l    df *ABS*	00000000 powerFailure.c
02001d3c l     F .text	00000140 PowerFailure_ISR
00000000 l    df *ABS*	00000000 uart.c
02001edc l     F .text	00000050 uart_send_byte
02001f2c l     F .text	0000006c uart_send_string
02001f98 l     F .text	0000006c uart_init
020020a8 l     F .text	00000090 set_baudrate
02002004 l     F .text	000000a4 uart_ISR
00000000 l    df *ABS*	00000000 TopMenu.c
00000000 l    df *ABS*	00000000 main.c
00000000 l    df *ABS*	00000000 FireMenu.c
00000000 l    df *ABS*	00000000 HeaterWarmingUp.c
00000000 l    df *ABS*	00000000 ParameterMenu.c
00000000 l    df *ABS*	00000000 RemoteMenu.c
00000000 l    df *ABS*	00000000 SaveLoadMenu.c
00000000 l    df *ABS*	00000000 ShotCountersMenu.c
00000000 l    df *ABS*	00000000 ShutdownMenu.c
00000000 l    df *ABS*	00000000 StartupMenu.c
00000000 l    df *ABS*	00000000 editNum10.c
00000000 l    df *ABS*	00000000 editNum2.c
00000000 l    df *ABS*	00000000 editNum5.c
00000000 l    df *ABS*	00000000 enterPWD.c
00000000 l    df *ABS*	00000000 errorCheck.c
02019430 l     O .bss	00000012 err_flag
00000000 l    df *ABS*	00000000 pwdPage.c
00000000 l    df *ABS*	00000000 repPage.c
00000000 l    df *ABS*	00000000 shotPage.c
00000000 l    df *ABS*	00000000 timingPage.c
00000000 l    df *ABS*	00000000 libgcc2.c
00000000 l    df *ABS*	00000000 fp-bit.c
02008c2c l     F .text	00000354 _fpadd_parts
00000000 l    df *ABS*	00000000 fp-bit.c
00000000 l    df *ABS*	00000000 fp-bit.c
00000000 l    df *ABS*	00000000 fp-bit.c
00000000 l    df *ABS*	00000000 fp-bit.c
00000000 l    df *ABS*	00000000 lib2-divmod.c
02009288 l     F .text	00000074 udivmodsi4
00000000 l    df *ABS*	00000000 lib2-mul.c
00000000 l    df *ABS*	00000000 libgcc2.c
00000000 l    df *ABS*	00000000 fp-bit.c
00000000 l    df *ABS*	00000000 fp-bit.c
00000000 l    df *ABS*	00000000 fp-bit.c
00000000 l    df *ABS*	00000000 libgcc2.c
00000000 l    df *ABS*	00000000 libgcc2.c
00000000 l    df *ABS*	00000000 libgcc2.c
00000000 l    df *ABS*	00000000 printf.c
00000000 l    df *ABS*	00000000 puts.c
00000000 l    df *ABS*	00000000 sprintf.c
00000000 l    df *ABS*	00000000 strlen.c
00000000 l    df *ABS*	00000000 vfprintf.c
02009b5c l     F .text	00000034 __sprint_r
0201753a l     O .rodata	00000010 blanks.3515
0201754a l     O .rodata	00000010 zeroes.3516
00000000 l    df *ABS*	00000000 wsetup.c
00000000 l    df *ABS*	00000000 dtoa.c
0200bba4 l     F .text	0000023c quorem
00000000 l    df *ABS*	00000000 fflush.c
00000000 l    df *ABS*	00000000 findfp.c
0200d614 l     F .text	00000008 __fp_lock
0200d61c l     F .text	00000008 __fp_unlock
00000000 l    df *ABS*	00000000 mallocr.c
00000000 l    df *ABS*	00000000 fvwrite.c
00000000 l    df *ABS*	00000000 fwalk.c
00000000 l    df *ABS*	00000000 impure.c
0201780c l     O .rwdata	00000400 impure_data
00000000 l    df *ABS*	00000000 locale.c
02017580 l     O .rodata	00000030 lconv
00000000 l    df *ABS*	00000000 makebuf.c
00000000 l    df *ABS*	00000000 mallocr.c
00000000 l    df *ABS*	00000000 memchr.c
00000000 l    df *ABS*	00000000 memcpy.c
00000000 l    df *ABS*	00000000 memmove.c
00000000 l    df *ABS*	00000000 memset.c
00000000 l    df *ABS*	00000000 mprec.c
020176c8 l     O .rodata	0000000c p05.2435
00000000 l    df *ABS*	00000000 mallocr.c
00000000 l    df *ABS*	00000000 s_isinfd.c
00000000 l    df *ABS*	00000000 s_isnand.c
00000000 l    df *ABS*	00000000 sbrkr.c
00000000 l    df *ABS*	00000000 stdio.c
00000000 l    df *ABS*	00000000 strcmp.c
00000000 l    df *ABS*	00000000 writer.c
00000000 l    df *ABS*	00000000 mallocr.c
00000000 l    df *ABS*	00000000 closer.c
00000000 l    df *ABS*	00000000 fclose.c
00000000 l    df *ABS*	00000000 fstatr.c
00000000 l    df *ABS*	00000000 int_errno.c
00000000 l    df *ABS*	00000000 isattyr.c
00000000 l    df *ABS*	00000000 lseekr.c
00000000 l    df *ABS*	00000000 readr.c
00000000 l    df *ABS*	00000000 libgcc2.c
00000000 l    df *ABS*	00000000 libgcc2.c
00000000 l    df *ABS*	00000000 fp-bit.c
00000000 l    df *ABS*	00000000 fp-bit.c
00000000 l    df *ABS*	00000000 fp-bit.c
00000000 l    df *ABS*	00000000 fp-bit.c
00000000 l    df *ABS*	00000000 fp-bit.c
00000000 l    df *ABS*	00000000 fp-bit.c
00000000 l    df *ABS*	00000000 fp-bit.c
00000000 l    df *ABS*	00000000 libgcc2.c
00000000 l    df *ABS*	00000000 alt_close.c
020123ec l     F .text	00000050 alt_get_errno
00000000 l    df *ABS*	00000000 alt_dev.c
02012508 l     F .text	0000002c alt_dev_null_write
00000000 l    df *ABS*	00000000 alt_errno.c
00000000 l    df *ABS*	00000000 alt_fstat.c
02012534 l     F .text	00000050 alt_get_errno
00000000 l    df *ABS*	00000000 alt_iic.c
00000000 l    df *ABS*	00000000 alt_iic_isr_register.c
00000000 l    df *ABS*	00000000 alt_irq_vars.c
00000000 l    df *ABS*	00000000 alt_isatty.c
020128fc l     F .text	00000050 alt_get_errno
00000000 l    df *ABS*	00000000 alt_lseek.c
020129f0 l     F .text	00000050 alt_get_errno
00000000 l    df *ABS*	00000000 alt_main.c
00000000 l    df *ABS*	00000000 alt_malloc_lock.c
00000000 l    df *ABS*	00000000 alt_read.c
02012bcc l     F .text	00000050 alt_get_errno
00000000 l    df *ABS*	00000000 alt_release_fd.c
00000000 l    df *ABS*	00000000 alt_sbrk.c
020193e4 l     O .rwdata	00000004 heap_end
00000000 l    df *ABS*	00000000 alt_write.c
02012e40 l     F .text	00000050 alt_get_errno
00000000 l    df *ABS*	00000000 alt_sys_init.c
02012f80 l     F .text	00000038 alt_dev_reg
020181c8 l     O .rwdata	000000c8 epcs
02018290 l     O .rwdata	00001060 jtag_uart
020192f0 l     O .rwdata	000000c4 uart
00000000 l    df *ABS*	00000000 altera_avalon_epcs_flash_controller.c
02013060 l     F .text	00000038 alt_flash_device_register
020130ec l     F .text	0000028c alt_epcs_flash_query
02013378 l     F .text	000000e8 alt_epcs_flash_memcmp
0201374c l     F .text	00000094 alt_epcs_test_address
00000000 l    df *ABS*	00000000 altera_avalon_jtag_uart_fd.c
00000000 l    df *ABS*	00000000 altera_avalon_jtag_uart_init.c
02013c14 l     F .text	00000204 altera_avalon_jtag_uart_irq
02013e18 l     F .text	000000a4 altera_avalon_jtag_uart_timeout
00000000 l    df *ABS*	00000000 altera_avalon_jtag_uart_ioctl.c
00000000 l    df *ABS*	00000000 altera_avalon_jtag_uart_read.c
00000000 l    df *ABS*	00000000 altera_avalon_jtag_uart_write.c
00000000 l    df *ABS*	00000000 altera_avalon_uart_fd.c
00000000 l    df *ABS*	00000000 altera_avalon_uart_init.c
0201460c l     F .text	00000098 altera_avalon_uart_irq
020146a4 l     F .text	000000d8 altera_avalon_uart_rxirq
0201477c l     F .text	0000013c altera_avalon_uart_txirq
00000000 l    df *ABS*	00000000 altera_avalon_uart_read.c
0201490c l     F .text	00000050 alt_get_errno
00000000 l    df *ABS*	00000000 altera_avalon_uart_write.c
02014b60 l     F .text	00000050 alt_get_errno
00000000 l    df *ABS*	00000000 epcs_commands.c
02014db4 l     F .text	00000038 epcs_test_wip
02014dec l     F .text	00000038 epcs_await_wip_released
00000000 l    df *ABS*	00000000 alt_alarm_start.c
00000000 l    df *ABS*	00000000 alt_dev_llist_insert.c
020154bc l     F .text	00000050 alt_get_errno
00000000 l    df *ABS*	00000000 alt_do_ctors.c
00000000 l    df *ABS*	00000000 alt_do_dtors.c
00000000 l    df *ABS*	00000000 alt_flash_dev.c
00000000 l    df *ABS*	00000000 alt_io_redirect.c
0201571c l     F .text	000000e0 alt_open_fd
00000000 l    df *ABS*	00000000 alt_open.c
02015874 l     F .text	00000050 alt_get_errno
020158c4 l     F .text	000000f0 alt_file_locked
00000000 l    df *ABS*	00000000 alt_tick.c
00000000 l    df *ABS*	00000000 altera_nios2_qsys_irq.c
00000000 l    df *ABS*	00000000 altera_avalon_spi.c
00000000 l    df *ABS*	00000000 alt_find_dev.c
00000000 l    df *ABS*	00000000 alt_find_file.c
00000000 l    df *ABS*	00000000 alt_get_fd.c
00000000 l    df *ABS*	00000000 atexit.c
00000000 l    df *ABS*	00000000 exit.c
00000000 l    df *ABS*	00000000 memcmp.c
00000000 l    df *ABS*	00000000 __atexit.c
00000000 l    df *ABS*	00000000 __call_atexit.c
00000000 l    df *ABS*	00000000 alt_exit.c
00000000 l    df *ABS*	00000000 
020100d4 g     F .text	00000074 _mprec_log10
020136c0 g     F .text	0000008c alt_epcs_flash_get_info
020101c4 g     F .text	00000084 __any_on
02010e44 g     F .text	00000064 _isatty_r
020175b0 g     O .rodata	00000028 __mprec_tinytens
02012b14 g     F .text	00000078 alt_main
020098c8 g     F .text	00000044 __ashldi3
02009974 g     F .text	00000084 _puts_r
0201946c g     O .bss	00000100 alt_irq
02010ea8 g     F .text	0000006c _lseek_r
0200048c g     F .text	00000070 DisInit
02012090 g     F .text	0000005c __eqdf2
020196fc g       *ABS*	00000000 __alt_heap_start
02009938 g     F .text	0000003c printf
020109e8 g     F .text	0000005c __sseek
0200d6b8 g     F .text	0000010c __sinit
02000e04 g     F .text	00000020 KPLED_getStatus
0200e350 g     F .text	0000009c _setlocale_r
0200d630 g     F .text	00000078 __sfmoreglue
02012bac g     F .text	00000020 __malloc_unlock
02005450 g     F .text	00000250 Num10toStr10
02000678 g     F .text	00000034 DisClear
0200ef90 g     F .text	0000018c memmove
02001bcc g     F .text	00000034 WriteRAMShots
02000b5c g     F .text	0000012c FRAM_Write32Bits
0200d6a8 g     F .text	00000010 _cleanup
02006ae4 g     F .text	00000348 editNum5
0200f1f8 g     F .text	000000a8 _Balloc
02000ee4 g     F .text	0000005c KPLED_All_Dim
02012148 g     F .text	00000064 __gtdf2
00000000  w      *UND*	00000000 __errno
02014e24 g     F .text	000000f8 epcs_sector_erase
04001000 g     F .entry	00000000 __reset
02000e88 g     F .text	0000005c KPLED_All_Bright
020023e0 g     F .text	00000190 TopMenu
02010ddc g     F .text	00000068 _fstat_r
02019414 g     O .bss	00000004 errno
02019420 g     O .bss	00000004 alt_argv
020213b4 g       *ABS*	00000000 _gp
02001e7c g     F .text	00000060 PowerFailure_Init
02005e00 g     F .text	00000464 editNum10
02008604 g     F .text	000005a4 editParamterTiming
02018048 g     O .rwdata	00000180 alt_fd_list
02015060 g     F .text	00000068 epcs_write_status_register
02005d34 g     F .text	000000cc refreshButtonBarNum10
02015ed0 g     F .text	00000090 alt_find_dev
0200ee50 g     F .text	00000140 memcpy
02000418 g     F .text	00000074 DisWrInst
020006f4 g     F .text	0000002c DisOff
0200d624 g     F .text	0000000c _cleanup_r
02006a18 g     F .text	000000cc refreshButtonBarNum5
02012208 g     F .text	000000d4 __floatsidf
020157fc g     F .text	00000078 alt_io_redirect
020121ac g     F .text	0000005c __ltdf2
02001244 g     F .text	00000088 KPLED_Enter
0201651c g       *ABS*	00000000 __DTOR_END__
02001b40 g     F .text	0000002c LoadCounter0Init
020099f8 g     F .text	00000014 puts
02001a68 g     F .text	0000002c LoadRAMRepRate
02013854 g     F .text	00000104 alt_epcs_flash_write_block
02010030 g     F .text	000000a4 __ratio
02014018 g     F .text	00000218 altera_avalon_jtag_uart_read
00000000  w      *UND*	00000000 malloc
0200990c g     F .text	0000002c _printf_r
020093a8 g     F .text	00000008 __udivsi3
0201294c g     F .text	000000a4 isatty
02017600 g     O .rodata	000000c8 __mprec_tens
020051e4 g     F .text	0000011c refreshStartupMenuPage
0200e3ec g     F .text	0000000c __locale_charset
02008238 g     F .text	000000ac editParameterNumOfShot
02008ba8 g     F .text	00000084 __fixunsdfsi
02019410 g     O .bss	00000004 __malloc_top_pad
020193bc g     O .rwdata	00000004 __mb_cur_max
02002d64 g     F .text	000000cc StopFiring
0200e3f8 g     F .text	0000000c _localeconv_r
0200f628 g     F .text	0000003c __i2b
0200dd0c g     F .text	000004e4 __sfvwrite_r
02001b98 g     F .text	00000034 WriteRAMRepRate
02000c88 g     F .text	00000108 FRAM_Read32Bits
02001ac0 g     F .text	00000040 LoadRAMStartTime
02004e98 g     F .text	000001f0 getStartupInst
020108a8 g     F .text	00000064 _sbrk_r
02003370 g     F .text	000000b4 ShowInterlockMessage
02002e30 g     F .text	00000390 StartFiring
02010f14 g     F .text	0000006c _read_r
02017c0c g     O .rwdata	0000000c __lc_ctype
02007d7c g     F .text	000000ac chkLeftTiming
020193d8 g     O .rwdata	00000004 alt_max_fd
020096b0 g     F .text	00000104 __unpack_d
02010c8c g     F .text	0000013c _fclose_r
0200d5e4 g     F .text	00000030 fflush
0201940c g     O .bss	00000004 __malloc_max_sbrked_mem
020040b4 g     F .text	00000188 enterSaveLoadMenu
02008f80 g     F .text	00000054 __adddf3
020137e0 g     F .text	00000074 alt_epcs_flash_erase_block
0200fda4 g     F .text	00000148 __b2d
020177f8 g     O .rwdata	00000014 interlockNames
020115d0 g     F .text	00000628 __umoddi3
02012a40 g     F .text	000000d4 lseek
020193b4 g     O .rwdata	00000004 _global_impure_ptr
02015324 g     F .text	00000058 epcs_exit_4_bytes_mode
02010248 g     F .text	000005fc _realloc_r
02001020 g     F .text	0000008c KPLED_RightArrow
020196fc g       *ABS*	00000000 __bss_end
0201280c g     F .text	000000f0 alt_iic_isr_register
02005088 g     F .text	000000a4 startupAction
02015ba4 g     F .text	00000104 alt_tick
02010f80 g     F .text	00000650 __udivdi3
020175d8 g     O .rodata	00000028 __mprec_bigtens
0200f40c g     F .text	00000104 __s2b
0200916c g     F .text	0000011c __floatunsidf
0200fb44 g     F .text	00000058 __mcmp
02002974 g     F .text	0000008c PreionFaultHandler
02014564 g     F .text	000000a8 altera_avalon_uart_init
02000720 g     F .text	00000218 FRAM_SendByte
020006ac g     F .text	00000048 DisClearRow
0200d8d0 g     F .text	00000018 __fp_lock_all
020127c0 g     F .text	0000004c alt_ic_irq_enabled
02015b0c g     F .text	00000098 alt_alarm_stop
02019418 g     O .bss	00000004 alt_irq_active
020000ec g     F .exceptions	000000cc alt_irq_handler
02018020 g     O .rwdata	00000028 alt_dev_null
02003bcc g     F .text	0000010c SaveToEEPROM
0200223c g     F .text	000000ec refreshTopMenuEntry
02001a94 g     F .text	0000002c LoadRAMShots
020035a0 g     F .text	00000068 refreshParameterMenuEntry
0200f510 g     F .text	00000068 __hi0bits
02004624 g     F .text	00000188 enterShotCountersMenu
02009098 g     F .text	000000d4 __fixdfsi
02000328 g     F .text	00000078 resetCounter1
020042ec g     F .text	00000190 refreshShotCountersMenuPage
020193d0 g     O .rwdata	00000008 alt_dev_list
020001f0 g     F .text	0000007c CounterInit
02012e90 g     F .text	000000f0 write
020011bc g     F .text	00000088 KPLED_Edit
02012584 g     F .text	000000b0 fstat
02009884 g     F .text	00000044 __lshrdi3
02007500 g     F .text	00000074 chkEditedParameter
02002138 g     F .text	00000104 initController
020034ac g     F .text	00000020 checkHeater
0200f8bc g     F .text	0000012c __pow5mult
02019404 g     O .bss	00000004 __nlocale_changed
020093b0 g     F .text	00000008 __umodsi3
02005300 g     F .text	00000150 enterStartupMenu
020151e4 g     F .text	00000068 epcs_read_electronic_signature
020196fc g       *ABS*	00000000 end
020004fc g     F .text	00000044 DisShowCur
020013d4 g     F .text	00000034 UartInit
02014bb0 g     F .text	000001a8 altera_avalon_uart_write
02013b54 g     F .text	000000c0 altera_avalon_jtag_uart_init
0201651c g       *ABS*	00000000 __CTOR_LIST__
04000000 g       *ABS*	00000000 __alt_stack_pointer
02001b6c g     F .text	0000002c LoadCounter1Init
020144b4 g     F .text	00000060 altera_avalon_uart_write_fd
020093e0 g     F .text	000000ac __clzsi2
02014514 g     F .text	00000050 altera_avalon_uart_close_fd
02014230 g     F .text	00000224 altera_avalon_jtag_uart_write
0200d8c0 g     F .text	00000004 __sfp_lock_acquire
0200ed58 g     F .text	000000f8 memchr
02009b90 g     F .text	00001e7c ___vfprintf_internal_r
02009a0c g     F .text	00000058 _sprintf_r
0200da3c g     F .text	000002d0 _free_r
020031c0 g     F .text	000001b0 enterFireMenu
02008088 g     F .text	000000d0 editParameterRepRate
02016340 g     F .text	000001a0 __call_exitprocs
02019400 g     O .bss	00000004 __mlocale_changed
020193c0 g     O .rwdata	00000004 __malloc_sbrk_base
020001b8 g     F .text	00000038 _start
02019428 g     O .bss	00000004 _alt_tick_rate
02007460 g     F .text	000000a0 getErrFlag
0200f9e8 g     F .text	0000015c __lshift
02015cc8 g     F .text	00000208 alt_avalon_spi_command
0201942c g     O .bss	00000004 _alt_nticks
02012c1c g     F .text	000000f4 read
02012fec g     F .text	00000074 alt_sys_init
020014e0 g     F .text	000001cc ReadRAM32Bits
02016210 g     F .text	00000130 __register_exitproc
020018d8 g     F .text	00000104 showCoverPage
02000540 g     F .text	000000c0 DisCurPos
0200f664 g     F .text	00000258 __multiply
02013ebc g     F .text	00000068 altera_avalon_jtag_uart_close
02003608 g     F .text	00000068 editParameter
020093b8 g     F .text	00000028 __mulsi3
02019444 g     O .bss	00000028 __malloc_current_mallinfo
0200feec g     F .text	00000144 __d2b
02014d58 g     F .text	0000005c epcs_read_status_register
020047ac g     F .text	00000178 getShutdownInst
02008158 g     F .text	000000e0 entryParameterNumOfShots
02001408 g     F .text	000000d8 WriteRAM32Bits
02000f9c g     F .text	00000084 KPLED_Numbers
020139f0 g     F .text	00000060 altera_avalon_jtag_uart_read_fd
02016074 g     F .text	000000d4 alt_get_fd
020097b4 g     F .text	000000d0 __fpcmp_parts_d
02001c00 g     F .text	0000004c WriteRAMStartTime
02003e10 g     F .text	000002a4 enterSaveLoadMenuPage
02010c28 g     F .text	00000064 _close_r
020002cc g     F .text	0000005c SaveCounterToFRAM
0201524c g     F .text	00000080 epcs_read_device_id
02016194 g     F .text	0000007c memcmp
02013ab0 g     F .text	00000050 altera_avalon_jtag_uart_close_fd
020016ac g     F .text	00000078 WriteEEPROM8Bits
020196fc g       *ABS*	00000000 __alt_stack_base
02013b00 g     F .text	00000054 altera_avalon_jtag_uart_ioctl_fd
0200ba30 g     F .text	00000174 __swsetup_r
02011edc g     F .text	000001b4 __divdf3
02002328 g     F .text	000000b8 enterTopMenuPage
0200d7c4 g     F .text	000000fc __sfp
02010148 g     F .text	0000007c __copybits
02017c18 g     O .rwdata	00000408 __malloc_av_
0200d8cc g     F .text	00000004 __sinit_lock_release
020083cc g     F .text	00000238 entryParameterTiming
02011bf8 g     F .text	000002e4 __muldf3
0201090c g     F .text	00000054 __sread
020028bc g     F .text	000000b8 showFiringInformation
02015f60 g     F .text	00000114 alt_find_file
0201550c g     F .text	000000a0 alt_dev_llist_insert
02012b8c g     F .text	00000020 __malloc_lock
02012d90 g     F .text	000000b0 sbrk
0200d3fc g     F .text	000001e8 _fflush_r
02003cd8 g     F .text	00000138 refreshSaveLoadMenuPage
02001c4c g     F .text	0000004c WriteRAMEndTime
02010b5c g     F .text	000000cc _calloc_r
0200423c g     F .text	000000b0 entryShotCountersMenu
020193e8 g     O .rwdata	00000008 alt_flash_dev_list
020193f8 g       *ABS*	00000000 __bss_start
020082e4 g     F .text	000000e8 convertChnlTitle
0200f11c g     F .text	000000dc memset
02003b14 g     F .text	000000b8 entrySaveLoadMenu
02002570 g     F .text	0000002c main
02019424 g     O .bss	00000004 alt_envp
02001888 g     F .text	00000050 ResetRAMFromEEPROM
02019408 g     O .bss	00000004 __malloc_max_total_mem
02013a50 g     F .text	00000060 altera_avalon_jtag_uart_write_fd
0200447c g     F .text	000001a8 editShotCountersMenuPage
02001134 g     F .text	00000088 KPLED_Menu
02010a44 g     F .text	00000008 __sclose
04000000 g       *ABS*	00000000 __alt_heap_limit
02010dc8 g     F .text	00000014 fclose
02003804 g     F .text	00000128 StartRemoteCtrl
0201956c g     O .bss	00000190 _atexit0
0200bde0 g     F .text	0000161c _dtoa_r
02003424 g     F .text	00000088 printTime
0200e5d4 g     F .text	00000784 _malloc_r
020193dc g     O .rwdata	00000004 alt_errno
0200e1f0 g     F .text	000000a8 _fwalk
020092fc g     F .text	00000050 __divsi3
020173e0 g     O .rodata	00000014 __thenan_df
0200d900 g     F .text	0000013c _malloc_trim_r
0200029c g     F .text	00000030 getCounter1Val
0201651c g       *ABS*	00000000 __CTOR_END__
02001724 g     F .text	000000d4 WriteEEPROM32Bits
02013460 g     F .text	00000260 alt_epcs_flash_write
02010a4c g     F .text	000000a4 strcmp
02004c4c g     F .text	0000024c enterShutdownMenu
0200512c g     F .text	000000b8 entryStartupMenu
0201651c g       *ABS*	00000000 __DTOR_LIST__
020019dc g     F .text	00000060 delay
020120ec g     F .text	0000005c __nedf2
02012fb8 g     F .text	00000034 alt_irq_init
02006ff8 g     F .text	00000468 enterPWD
02012d10 g     F .text	00000080 alt_release_fd
02002654 g     F .text	00000268 PreFiringErrChk
02009a64 g     F .text	0000006c sprintf
020173f4 g     O .rodata	00000100 __clz_tab
0200259c g     F .text	000000b8 entryFireMenu
020193fc g     O .bss	00000004 _PathLocale
02004b30 g     F .text	0000011c refreshShutdownMenuPage
02016148 g     F .text	00000014 atexit
02010af0 g     F .text	0000006c _write_r
020056a0 g     F .text	00000104 Str10toDis10
0200e404 g     F .text	0000001c setlocale
020057a4 g     F .text	00000310 Num10Check
020049dc g     F .text	00000154 confirmShutdown
020034cc g     F .text	000000d4 entryParameterMenu
020193b8 g     O .rwdata	00000004 _impure_ptr
0201941c g     O .bss	00000004 alt_argc
020068d4 g     F .text	00000144 Str5toNum5
02015608 g     F .text	0000005c _do_dtors
02001b00 g     F .text	00000040 LoadRAMEndTime
02007fac g     F .text	000000dc entryParameterRepRate
02000020 g       .exceptions	00000000 alt_irq_entry
02000e24 g     F .text	00000064 KPLED_setStatus
02006f2c g     F .text	000000cc refreshButtonBarPWD
0200fd44 g     F .text	00000060 __ulp
02010844 g     F .text	00000038 __isinfd
0200392c g     F .text	000000b8 entryRemoteMenu
0200d8e8 g     F .text	00000018 __fp_unlock_all
02006798 g     F .text	0000013c Num5toStr5
020003a0 g     F .text	00000078 DisWrData
020193c8 g     O .rwdata	00000008 alt_fs_list
020062f8 g     F .text	0000008c Str2toNum2
0200e420 g     F .text	0000000c localeconv
02014f1c g     F .text	000000f4 epcs_read_buffer
02004924 g     F .text	000000b8 entryShutdownMenu
020012cc g     F .text	00000088 KPLED_Enable
02013098 g     F .text	00000054 alt_epcs_flash_init
02012634 g     F .text	00000050 alt_ic_isr_register
020193f8 g       *ABS*	00000000 _edata
02014454 g     F .text	00000060 altera_avalon_uart_read_fd
02001840 g     F .text	00000048 Stop
02001c98 g     F .text	000000a4 reloadRegisters
020196fc g       *ABS*	00000000 _end
02000600 g     F .text	00000078 DisWrStr
02015664 g     F .text	00000068 alt_flash_open_dev
02000f40 g     F .text	0000005c KPLED_All_Off
02013f24 g     F .text	000000f4 altera_avalon_jtag_uart_ioctl
02002a00 g     F .text	00000364 PauseSequence
02007574 g     F .text	00000684 chkSingleTiming
02012720 g     F .text	000000a0 alt_ic_irq_disable
02007ee0 g     F .text	000000cc enterPWDPage
020152cc g     F .text	00000058 epcs_enter_4_bytes_mode
02010960 g     F .text	00000088 __swrite
020193c4 g     O .rwdata	00000004 __malloc_trim_threshold
02015ca8 g     F .text	00000020 altera_nios2_qsys_irq_init
0201615c g     F .text	00000038 exit
0200e298 g     F .text	000000b8 _fwalk_reent
0200fb9c g     F .text	000001a8 __mdiff
02006384 g     F .text	000000cc refreshButtonBarNum2
020156cc g     F .text	00000050 alt_flash_close_dev
0200934c g     F .text	0000005c __modsi3
02007cdc g     F .text	000000a0 chkAllTiming
02005ab4 g     F .text	00000280 Dis10toNum10
04000000 g       *ABS*	00000000 __alt_data_end
02000020 g     F .exceptions	00000000 alt_exception
02017718 g     O .rwdata	000000e0 uart
0200d8c4 g     F .text	00000004 __sfp_lock_release
02000000 g       *ABS*	00000000 __alt_mem_sdram
02001354 g     F .text	00000080 KPLED_Fire
020148b8 g     F .text	00000054 altera_avalon_uart_close
020039e4 g     F .text	00000130 enterRemoteMenu
020164e0 g     F .text	0000003c _exit
0201087c g     F .text	0000002c __isnand
02000938 g     F .text	00000224 FRAM_ReadByte
0201537c g     F .text	00000140 alt_alarm_start
020122dc g     F .text	00000110 __muldi3
020010ac g     F .text	00000088 KPLED_LeftArrow
0200e42c g     F .text	000001a8 __smakebuf_r
02009ad0 g     F .text	0000008c strlen
02015010 g     F .text	00000050 epcs_write_enable
020159b4 g     F .text	00000158 open
02009034 g     F .text	00000064 __gedf2
0200026c g     F .text	00000030 getCounter0Val
02007bf8 g     F .text	000000e4 refreshErrFlags
02000d90 g     F .text	00000074 FRAM_test
020193e0 g     O .rwdata	00000004 alt_priority_mask
02006e2c g     F .text	00000100 checkPWD
020017f8 g     F .text	00000048 Fire
02012684 g     F .text	0000009c alt_ic_irq_enable
0200ba0c g     F .text	00000024 __vfprintf_internal
04001000 g       *ABS*	00000000 __alt_mem_epcs
02006264 g     F .text	00000094 Num2toStr2
0201495c g     F .text	00000204 altera_avalon_uart_read
02008fd4 g     F .text	00000060 __subdf3
02013958 g     F .text	00000098 alt_epcs_flash_read
02003670 g     F .text	00000194 enterParameterMenu
0200f578 g     F .text	000000b0 __lo0bits
020193f0 g     O .rwdata	00000008 alt_alarm_list
020155ac g     F .text	0000005c _do_ctors
02006450 g     F .text	00000348 editNum2
0201243c g     F .text	000000cc close
02001a3c g     F .text	0000002c loadData
0200948c g     F .text	00000224 __pack_d
02007e28 g     F .text	000000b8 chkRightTiming
00000000  w      *UND*	00000000 free
0200d8c8 g     F .text	00000004 __sinit_lock_acquire
020150c8 g     F .text	0000011c epcs_write_buffer
0200f2c8 g     F .text	00000144 __multadd
0200f2a0 g     F .text	00000028 _Bfree



Disassembly of section .exceptions:

02000020 <alt_exception>:

#else /* ALT_EXCEPTION_STACK disabled */
        /* 
         * Reserve space on normal stack for registers about to be pushed.
         */
        addi  sp, sp, -76
 2000020:	deffed04 	addi	sp,sp,-76
         * documentation for details).
         *
         * Leave a gap in the stack frame at 4(sp) for the muldiv handler to
         * store zero into.
         */
        stw   ra,  0(sp)
 2000024:	dfc00015 	stw	ra,0(sp)
        stw   r1,   8(sp)
 2000028:	d8400215 	stw	at,8(sp)
        stw   r2,  12(sp)
 200002c:	d8800315 	stw	r2,12(sp)
        stw   r3,  16(sp)
 2000030:	d8c00415 	stw	r3,16(sp)
        stw   r4,  20(sp)
 2000034:	d9000515 	stw	r4,20(sp)
        stw   r5,  24(sp)
 2000038:	d9400615 	stw	r5,24(sp)
        stw   r6,  28(sp)
 200003c:	d9800715 	stw	r6,28(sp)
        stw   r7,  32(sp)
 2000040:	d9c00815 	stw	r7,32(sp)
        rdctl r5, estatus   /* Read early to avoid usage stall */
 2000044:	000b307a 	rdctl	r5,estatus
        stw   r8,  36(sp)
 2000048:	da000915 	stw	r8,36(sp)
        stw   r9,  40(sp)
 200004c:	da400a15 	stw	r9,40(sp)
        stw   r10, 44(sp)
 2000050:	da800b15 	stw	r10,44(sp)
        stw   r11, 48(sp)
 2000054:	dac00c15 	stw	r11,48(sp)
        stw   r12, 52(sp)
 2000058:	db000d15 	stw	r12,52(sp)
        stw   r13, 56(sp)
 200005c:	db400e15 	stw	r13,56(sp)
        stw   r14, 60(sp)
 2000060:	db800f15 	stw	r14,60(sp)
        stw   r15, 64(sp)
 2000064:	dbc01015 	stw	r15,64(sp)
        /*
         * ea-4 contains the address of the instruction being executed
         * when the exception occured. For interrupt exceptions, we will
         * will be re-issue the isntruction. Store it in 72(sp)
         */
        stw   r5,  68(sp)  /* estatus */
 2000068:	d9401115 	stw	r5,68(sp)
        addi  r15, ea, -4  /* instruction that caused exception */
 200006c:	ebffff04 	addi	r15,ea,-4
        stw   r15,  72(sp)
 2000070:	dbc01215 	stw	r15,72(sp)
#else
        /*
         * Test to see if the exception was a software exception or caused 
         * by an external interrupt, and vector accordingly.
         */
        rdctl r4, ipending
 2000074:	0009313a 	rdctl	r4,ipending
        andi  r2, r5, 1
 2000078:	2880004c 	andi	r2,r5,1
        beq   r2, zero, .Lnot_irq
 200007c:	10000326 	beq	r2,zero,200008c <alt_exception+0x6c>
        beq   r4, zero, .Lnot_irq
 2000080:	20000226 	beq	r4,zero,200008c <alt_exception+0x6c>
        /*
         * Now that all necessary registers have been preserved, call 
         * alt_irq_handler() to process the interrupts.
         */

        call alt_irq_handler
 2000084:	20000ec0 	call	20000ec <alt_irq_handler>

        .section .exceptions.irqreturn, "xa"

        br    .Lexception_exit
 2000088:	00000306 	br	2000098 <alt_exception_unknown+0x4>
         * upon completion, so we write ea (address of instruction *after*
         * the one where the exception occured) into 72(sp). The actual
         * instruction that caused the exception is written in r2, which these
         * handlers will utilize.
         */
        stw   ea,  72(sp)  /* Don't re-issue */
 200008c:	df401215 	stw	ea,72(sp)
        ldw   r2, -4(ea)   /* Instruction that caused exception */
 2000090:	e8bfff17 	ldw	r2,-4(ea)

02000094 <alt_exception_unknown>:
#ifdef NIOS2_HAS_DEBUG_STUB
       /*
        *  Either tell the user now (if there is a debugger attached) or go into
        *  the debug monitor which will loop until a debugger is attached.
        */
        break
 2000094:	003da03a 	break	0
        /* 
         * Restore the saved registers, so that all general purpose registers 
         * have been restored to their state at the time the interrupt occured.
         */

        ldw   r5,  68(sp)
 2000098:	d9401117 	ldw	r5,68(sp)
        ldw   ea,  72(sp)  /* This becomes the PC once eret is executed */
 200009c:	df401217 	ldw	ea,72(sp)
        ldw   ra,   0(sp)
 20000a0:	dfc00017 	ldw	ra,0(sp)

        wrctl estatus, r5
 20000a4:	2801707a 	wrctl	estatus,r5

        ldw   r1,   8(sp)
 20000a8:	d8400217 	ldw	at,8(sp)
        ldw   r2,  12(sp)
 20000ac:	d8800317 	ldw	r2,12(sp)
        ldw   r3,  16(sp)
 20000b0:	d8c00417 	ldw	r3,16(sp)
        ldw   r4,  20(sp)
 20000b4:	d9000517 	ldw	r4,20(sp)
        ldw   r5,  24(sp)
 20000b8:	d9400617 	ldw	r5,24(sp)
        ldw   r6,  28(sp)
 20000bc:	d9800717 	ldw	r6,28(sp)
        ldw   r7,  32(sp)
 20000c0:	d9c00817 	ldw	r7,32(sp)

#if defined(ALT_EXCEPTION_STACK) && defined(ALT_STACK_CHECK)
        ldw   et, %gprel(alt_exception_old_stack_limit)(gp)
#endif

        ldw   r8,  36(sp)
 20000c4:	da000917 	ldw	r8,36(sp)
        ldw   r9,  40(sp)
 20000c8:	da400a17 	ldw	r9,40(sp)
        ldw   r10, 44(sp)
 20000cc:	da800b17 	ldw	r10,44(sp)
        ldw   r11, 48(sp)
 20000d0:	dac00c17 	ldw	r11,48(sp)
        ldw   r12, 52(sp)
 20000d4:	db000d17 	ldw	r12,52(sp)
        ldw   r13, 56(sp)
 20000d8:	db400e17 	ldw	r13,56(sp)
        ldw   r14, 60(sp)
 20000dc:	db800f17 	ldw	r14,60(sp)
        ldw   r15, 64(sp)
 20000e0:	dbc01017 	ldw	r15,64(sp)
        stw   et, %gprel(alt_stack_limit_value)(gp)
        stw   zero, %gprel(alt_exception_old_stack_limit)(gp)
#endif /* ALT_STACK_CHECK */
        ldw   sp,  76(sp)
#else /* ALT_EXCEPTION_STACK disabled */
        addi  sp, sp, 76
 20000e4:	dec01304 	addi	sp,sp,76

        /*
         * Return to the interrupted instruction.
         */

        eret
 20000e8:	ef80083a 	eret

020000ec <alt_irq_handler>:
 * instruction is present if the macro ALT_CI_INTERRUPT_VECTOR defined.
 */

void alt_irq_handler (void) __attribute__ ((section (".exceptions")));
void alt_irq_handler (void)
{
 20000ec:	defff904 	addi	sp,sp,-28
 20000f0:	dfc00615 	stw	ra,24(sp)
 20000f4:	df000515 	stw	fp,20(sp)
 20000f8:	df000504 	addi	fp,sp,20
  
  /*
   * Notify the operating system that we are at interrupt level.
   */ 
  
  ALT_OS_INT_ENTER();
 20000fc:	0001883a 	nop
#ifndef NIOS2_EIC_PRESENT
static ALT_INLINE alt_u32 ALT_ALWAYS_INLINE alt_irq_pending (void)
{
  alt_u32 active;

  NIOS2_READ_IPENDING (active);
 2000100:	0005313a 	rdctl	r2,ipending
 2000104:	e0bffe15 	stw	r2,-8(fp)

  return active;
 2000108:	e0bffe17 	ldw	r2,-8(fp)
   * Consider the case where the high priority interupt is asserted during
   * the interrupt entry sequence for a lower priority interrupt to see why
   * this is the case.
   */

  active = alt_irq_pending ();
 200010c:	e0bffb15 	stw	r2,-20(fp)

  do
  {
    i = 0;
 2000110:	e03ffd15 	stw	zero,-12(fp)
    mask = 1;
 2000114:	00800044 	movi	r2,1
 2000118:	e0bffc15 	stw	r2,-16(fp)
     * called to clear the interrupt condition.
     */

    do
    {
      if (active & mask)
 200011c:	e0fffb17 	ldw	r3,-20(fp)
 2000120:	e0bffc17 	ldw	r2,-16(fp)
 2000124:	1884703a 	and	r2,r3,r2
 2000128:	10001726 	beq	r2,zero,2000188 <alt_irq_handler+0x9c>
      { 
#ifdef ALT_ENHANCED_INTERRUPT_API_PRESENT
        alt_irq[i].handler(alt_irq[i].context); 
 200012c:	00c080b4 	movhi	r3,514
 2000130:	18e51b04 	addi	r3,r3,-27540
 2000134:	e0bffd17 	ldw	r2,-12(fp)
 2000138:	100490fa 	slli	r2,r2,3
 200013c:	1885883a 	add	r2,r3,r2
 2000140:	10c00017 	ldw	r3,0(r2)
 2000144:	010080b4 	movhi	r4,514
 2000148:	21251b04 	addi	r4,r4,-27540
 200014c:	e0bffd17 	ldw	r2,-12(fp)
 2000150:	100490fa 	slli	r2,r2,3
 2000154:	2085883a 	add	r2,r4,r2
 2000158:	10800104 	addi	r2,r2,4
 200015c:	10800017 	ldw	r2,0(r2)
 2000160:	1009883a 	mov	r4,r2
 2000164:	183ee83a 	callr	r3
#else
        alt_irq[i].handler(alt_irq[i].context, i); 
#endif
        break;
 2000168:	0001883a 	nop
#ifndef NIOS2_EIC_PRESENT
static ALT_INLINE alt_u32 ALT_ALWAYS_INLINE alt_irq_pending (void)
{
  alt_u32 active;

  NIOS2_READ_IPENDING (active);
 200016c:	0005313a 	rdctl	r2,ipending
 2000170:	e0bfff15 	stw	r2,-4(fp)

  return active;
 2000174:	e0bfff17 	ldw	r2,-4(fp)
      mask <<= 1;
      i++;

    } while (1);

    active = alt_irq_pending ();
 2000178:	e0bffb15 	stw	r2,-20(fp)
    
  } while (active);
 200017c:	e0bffb17 	ldw	r2,-20(fp)
 2000180:	103fe31e 	bne	r2,zero,2000110 <alt_irq_handler+0x24>

  /*
   * Notify the operating system that interrupt processing is complete.
   */ 

  ALT_OS_INT_EXIT();
 2000184:	00000706 	br	20001a4 <alt_irq_handler+0xb8>
#else
        alt_irq[i].handler(alt_irq[i].context, i); 
#endif
        break;
      }
      mask <<= 1;
 2000188:	e0bffc17 	ldw	r2,-16(fp)
 200018c:	1085883a 	add	r2,r2,r2
 2000190:	e0bffc15 	stw	r2,-16(fp)
      i++;
 2000194:	e0bffd17 	ldw	r2,-12(fp)
 2000198:	10800044 	addi	r2,r2,1
 200019c:	e0bffd15 	stw	r2,-12(fp)

    } while (1);
 20001a0:	003fde06 	br	200011c <alt_irq_handler+0x30>
  /*
   * Notify the operating system that interrupt processing is complete.
   */ 

  ALT_OS_INT_EXIT();
}
 20001a4:	e037883a 	mov	sp,fp
 20001a8:	dfc00117 	ldw	ra,4(sp)
 20001ac:	df000017 	ldw	fp,0(sp)
 20001b0:	dec00204 	addi	sp,sp,8
 20001b4:	f800283a 	ret

Disassembly of section .text:

020001b8 <_start>:

    /*
     * Now that the caches are initialized, set up the stack pointer and global pointer.
     * The values provided by the linker are assumed to be correctly aligned.
     */
    movhi sp, %hi(__alt_stack_pointer)
 20001b8:	06c10034 	movhi	sp,1024
    ori sp, sp, %lo(__alt_stack_pointer)
 20001bc:	dec00014 	ori	sp,sp,0
    movhi gp, %hi(_gp)
 20001c0:	068080b4 	movhi	gp,514
    ori gp, gp, %lo(_gp)
 20001c4:	d684ed14 	ori	gp,gp,5044
 */
#ifndef ALT_SIM_OPTIMIZE
    /* Log that the BSS is about to be cleared. */
    ALT_LOG_PUTS(alt_log_msg_bss)

    movhi r2, %hi(__bss_start)
 20001c8:	00808074 	movhi	r2,513
    ori r2, r2, %lo(__bss_start)
 20001cc:	10a4fe14 	ori	r2,r2,37880

    movhi r3, %hi(__bss_end)
 20001d0:	00c08074 	movhi	r3,513
    ori r3, r3, %lo(__bss_end)
 20001d4:	18e5bf14 	ori	r3,r3,38652

    beq r2, r3, 1f
 20001d8:	10c00326 	beq	r2,r3,20001e8 <_start+0x30>

0:
    stw zero, (r2)
 20001dc:	10000015 	stw	zero,0(r2)
    addi r2, r2, 4
 20001e0:	10800104 	addi	r2,r2,4
    bltu r2, r3, 0b
 20001e4:	10fffd36 	bltu	r2,r3,20001dc <_start+0x24>

    /* Log that alt_main is about to be called. */
    ALT_LOG_PUTS(alt_log_msg_alt_main)

    /* Call the C entry point. It should never return. */
    call alt_main
 20001e8:	2012b140 	call	2012b14 <alt_main>

020001ec <alt_after_alt_main>:

    /* Wait in infinite loop in case alt_main does return. */
alt_after_alt_main:
    br alt_after_alt_main
 20001ec:	003fff06 	br	20001ec <alt_after_alt_main>

020001f0 <CounterInit>:
 * 		4. Set Counter_load to 1.
 * 		5. Set Counter_load to 0.
 */

void CounterInit()
{
 20001f0:	defffc04 	addi	sp,sp,-16
 20001f4:	dfc00315 	stw	ra,12(sp)
 20001f8:	df000215 	stw	fp,8(sp)
 20001fc:	df000204 	addi	fp,sp,8
	Counter_load = 0;
 2000200:	00810034 	movhi	r2,1024
 2000204:	10883c04 	addi	r2,r2,8432
 2000208:	10000005 	stb	zero,0(r2)
	unsigned int init0 = LoadCounter0Init();
 200020c:	2001b400 	call	2001b40 <LoadCounter0Init>
 2000210:	e0bffe15 	stw	r2,-8(fp)
	unsigned int init1 = LoadCounter1Init();
 2000214:	2001b6c0 	call	2001b6c <LoadCounter1Init>
 2000218:	e0bfff15 	stw	r2,-4(fp)
	Counter0_init = init0;
 200021c:	00810034 	movhi	r2,1024
 2000220:	10884c04 	addi	r2,r2,8496
 2000224:	e0fffe17 	ldw	r3,-8(fp)
 2000228:	10c00015 	stw	r3,0(r2)
	Counter1_init = init1;
 200022c:	00810034 	movhi	r2,1024
 2000230:	10884804 	addi	r2,r2,8480
 2000234:	e0ffff17 	ldw	r3,-4(fp)
 2000238:	10c00015 	stw	r3,0(r2)
	Counter_load = 1;
 200023c:	00810034 	movhi	r2,1024
 2000240:	10883c04 	addi	r2,r2,8432
 2000244:	00c00044 	movi	r3,1
 2000248:	10c00005 	stb	r3,0(r2)
	Counter_load = 0;
 200024c:	00810034 	movhi	r2,1024
 2000250:	10883c04 	addi	r2,r2,8432
 2000254:	10000005 	stb	zero,0(r2)
}
 2000258:	e037883a 	mov	sp,fp
 200025c:	dfc00117 	ldw	ra,4(sp)
 2000260:	df000017 	ldw	fp,0(sp)
 2000264:	dec00204 	addi	sp,sp,8
 2000268:	f800283a 	ret

0200026c <getCounter0Val>:
 * At all time, the two outputs of the counter module hold the current value of the two counters.
 * 		Counter0_val (COUNTER0_IN_BASE): System counter
 * 		Counter1_val (COUNTER1_IN_BASE): Capillary counter
 */
unsigned int getCounter0Val()
{
 200026c:	defffe04 	addi	sp,sp,-8
 2000270:	df000115 	stw	fp,4(sp)
 2000274:	df000104 	addi	fp,sp,4
	unsigned int val = Counter0_val;
 2000278:	00810034 	movhi	r2,1024
 200027c:	10884404 	addi	r2,r2,8464
 2000280:	10800017 	ldw	r2,0(r2)
 2000284:	e0bfff15 	stw	r2,-4(fp)
	return val;
 2000288:	e0bfff17 	ldw	r2,-4(fp)
}
 200028c:	e037883a 	mov	sp,fp
 2000290:	df000017 	ldw	fp,0(sp)
 2000294:	dec00104 	addi	sp,sp,4
 2000298:	f800283a 	ret

0200029c <getCounter1Val>:
unsigned int getCounter1Val()
{
 200029c:	defffe04 	addi	sp,sp,-8
 20002a0:	df000115 	stw	fp,4(sp)
 20002a4:	df000104 	addi	fp,sp,4
	unsigned int val = Counter1_val;
 20002a8:	00810034 	movhi	r2,1024
 20002ac:	10884004 	addi	r2,r2,8448
 20002b0:	10800017 	ldw	r2,0(r2)
 20002b4:	e0bfff15 	stw	r2,-4(fp)
	return val;
 20002b8:	e0bfff17 	ldw	r2,-4(fp)
}
 20002bc:	e037883a 	mov	sp,fp
 20002c0:	df000017 	ldw	fp,0(sp)
 20002c4:	dec00104 	addi	sp,sp,4
 20002c8:	f800283a 	ret

020002cc <SaveCounterToFRAM>:

void SaveCounterToFRAM()
{
 20002cc:	defffc04 	addi	sp,sp,-16
 20002d0:	dfc00315 	stw	ra,12(sp)
 20002d4:	df000215 	stw	fp,8(sp)
 20002d8:	df000204 	addi	fp,sp,8
	unsigned int Counter0_val_latch = Counter0_val;
 20002dc:	00810034 	movhi	r2,1024
 20002e0:	10884404 	addi	r2,r2,8464
 20002e4:	10800017 	ldw	r2,0(r2)
 20002e8:	e0bffe15 	stw	r2,-8(fp)
	unsigned int Counter1_val_latch = Counter1_val;
 20002ec:	00810034 	movhi	r2,1024
 20002f0:	10884004 	addi	r2,r2,8448
 20002f4:	10800017 	ldw	r2,0(r2)
 20002f8:	e0bfff15 	stw	r2,-4(fp)
	FRAM_Write32Bits(COUNTER_0_ADDR,Counter0_val_latch);
 20002fc:	01000544 	movi	r4,21
 2000300:	e17ffe17 	ldw	r5,-8(fp)
 2000304:	2000b5c0 	call	2000b5c <FRAM_Write32Bits>
	FRAM_Write32Bits(COUNTER_1_ADDR,Counter1_val_latch);
 2000308:	01000584 	movi	r4,22
 200030c:	e17fff17 	ldw	r5,-4(fp)
 2000310:	2000b5c0 	call	2000b5c <FRAM_Write32Bits>
}
 2000314:	e037883a 	mov	sp,fp
 2000318:	dfc00117 	ldw	ra,4(sp)
 200031c:	df000017 	ldw	fp,0(sp)
 2000320:	dec00204 	addi	sp,sp,8
 2000324:	f800283a 	ret

02000328 <resetCounter1>:
/*
 * The capillary counter can be reset by user.
 * When reset, simply load 0 to Counter1 and the old Counter0 value to Coutner0.
 */
void resetCounter1()
{
 2000328:	defffe04 	addi	sp,sp,-8
 200032c:	dfc00115 	stw	ra,4(sp)
 2000330:	df000015 	stw	fp,0(sp)
 2000334:	d839883a 	mov	fp,sp

	delay(10000);
 2000338:	0109c404 	movi	r4,10000
 200033c:	20019dc0 	call	20019dc <delay>
	Counter_load = 0;
 2000340:	00810034 	movhi	r2,1024
 2000344:	10883c04 	addi	r2,r2,8432
 2000348:	10000005 	stb	zero,0(r2)
	Counter0_init = Counter0_val;
 200034c:	00810034 	movhi	r2,1024
 2000350:	10884c04 	addi	r2,r2,8496
 2000354:	00c10034 	movhi	r3,1024
 2000358:	18c84404 	addi	r3,r3,8464
 200035c:	18c00017 	ldw	r3,0(r3)
 2000360:	10c00015 	stw	r3,0(r2)
	Counter1_init = 0;
 2000364:	00810034 	movhi	r2,1024
 2000368:	10884804 	addi	r2,r2,8480
 200036c:	10000015 	stw	zero,0(r2)
	Counter_load = 1;
 2000370:	00810034 	movhi	r2,1024
 2000374:	10883c04 	addi	r2,r2,8432
 2000378:	00c00044 	movi	r3,1
 200037c:	10c00005 	stb	r3,0(r2)
	Counter_load = 0;
 2000380:	00810034 	movhi	r2,1024
 2000384:	10883c04 	addi	r2,r2,8432
 2000388:	10000005 	stb	zero,0(r2)
}
 200038c:	e037883a 	mov	sp,fp
 2000390:	dfc00117 	ldw	ra,4(sp)
 2000394:	df000017 	ldw	fp,0(sp)
 2000398:	dec00204 	addi	sp,sp,8
 200039c:	f800283a 	ret

020003a0 <DisWrData>:
 * For the data writing, instruction writing, and initialization procedures,
 * please refer to the data sheet of the VFD (CU20049-UW2J)
 */

void DisWrData(unsigned char data)
{
 20003a0:	defffe04 	addi	sp,sp,-8
 20003a4:	df000115 	stw	fp,4(sp)
 20003a8:	df000104 	addi	fp,sp,4
 20003ac:	2005883a 	mov	r2,r4
 20003b0:	e0bfff05 	stb	r2,-4(fp)
	DIS_EN = 0;
 20003b4:	00810034 	movhi	r2,1024
 20003b8:	10889c04 	addi	r2,r2,8816
 20003bc:	10000005 	stb	zero,0(r2)
	DIS_RS = 1;
 20003c0:	00810034 	movhi	r2,1024
 20003c4:	1088a404 	addi	r2,r2,8848
 20003c8:	00c00044 	movi	r3,1
 20003cc:	10c00005 	stb	r3,0(r2)
	DIS_RW = 0;
 20003d0:	00810034 	movhi	r2,1024
 20003d4:	1088a004 	addi	r2,r2,8832
 20003d8:	10000005 	stb	zero,0(r2)
	DIS_DATA = data;
 20003dc:	00810034 	movhi	r2,1024
 20003e0:	1088a804 	addi	r2,r2,8864
 20003e4:	e0ffff03 	ldbu	r3,-4(fp)
 20003e8:	10c00005 	stb	r3,0(r2)
	DIS_EN = 1;
 20003ec:	00810034 	movhi	r2,1024
 20003f0:	10889c04 	addi	r2,r2,8816
 20003f4:	00c00044 	movi	r3,1
 20003f8:	10c00005 	stb	r3,0(r2)
	DIS_EN = 0;
 20003fc:	00810034 	movhi	r2,1024
 2000400:	10889c04 	addi	r2,r2,8816
 2000404:	10000005 	stb	zero,0(r2)
}
 2000408:	e037883a 	mov	sp,fp
 200040c:	df000017 	ldw	fp,0(sp)
 2000410:	dec00104 	addi	sp,sp,4
 2000414:	f800283a 	ret

02000418 <DisWrInst>:

void DisWrInst(unsigned char inst)
{
 2000418:	defffe04 	addi	sp,sp,-8
 200041c:	df000115 	stw	fp,4(sp)
 2000420:	df000104 	addi	fp,sp,4
 2000424:	2005883a 	mov	r2,r4
 2000428:	e0bfff05 	stb	r2,-4(fp)
	DIS_EN = 0x00;
 200042c:	00810034 	movhi	r2,1024
 2000430:	10889c04 	addi	r2,r2,8816
 2000434:	10000005 	stb	zero,0(r2)
	DIS_RS = 0x00;
 2000438:	00810034 	movhi	r2,1024
 200043c:	1088a404 	addi	r2,r2,8848
 2000440:	10000005 	stb	zero,0(r2)
	DIS_RW = 0x00;
 2000444:	00810034 	movhi	r2,1024
 2000448:	1088a004 	addi	r2,r2,8832
 200044c:	10000005 	stb	zero,0(r2)
	DIS_DATA = inst;
 2000450:	00810034 	movhi	r2,1024
 2000454:	1088a804 	addi	r2,r2,8864
 2000458:	e0ffff03 	ldbu	r3,-4(fp)
 200045c:	10c00005 	stb	r3,0(r2)
	DIS_EN = 0x11;
 2000460:	00810034 	movhi	r2,1024
 2000464:	10889c04 	addi	r2,r2,8816
 2000468:	00c00444 	movi	r3,17
 200046c:	10c00005 	stb	r3,0(r2)
	DIS_EN = 0;
 2000470:	00810034 	movhi	r2,1024
 2000474:	10889c04 	addi	r2,r2,8816
 2000478:	10000005 	stb	zero,0(r2)
}
 200047c:	e037883a 	mov	sp,fp
 2000480:	df000017 	ldw	fp,0(sp)
 2000484:	dec00104 	addi	sp,sp,4
 2000488:	f800283a 	ret

0200048c <DisInit>:
void DisInit()
{
 200048c:	defffe04 	addi	sp,sp,-8
 2000490:	dfc00115 	stw	ra,4(sp)
 2000494:	df000015 	stw	fp,0(sp)
 2000498:	d839883a 	mov	fp,sp
	DIS_BUFF_EN_n = 0;		//Set the translating transceiver (U42 74LVX4245) to output mode
 200049c:	00810034 	movhi	r2,1024
 20004a0:	10887404 	addi	r2,r2,8656
 20004a4:	10000005 	stb	zero,0(r2)

	delay(1000);
 20004a8:	0100fa04 	movi	r4,1000
 20004ac:	20019dc0 	call	20019dc <delay>
	DisWrInst(0x38);
 20004b0:	01000e04 	movi	r4,56
 20004b4:	20004180 	call	2000418 <DisWrInst>
	DisWrData(VFD_BRT);		//Set Brightness
 20004b8:	010000c4 	movi	r4,3
 20004bc:	20003a00 	call	20003a0 <DisWrData>
	DisWrInst(0x08);
 20004c0:	01000204 	movi	r4,8
 20004c4:	20004180 	call	2000418 <DisWrInst>

	DisWrInst(0x01);
 20004c8:	01000044 	movi	r4,1
 20004cc:	20004180 	call	2000418 <DisWrInst>
	DisWrInst(0x06);
 20004d0:	01000184 	movi	r4,6
 20004d4:	20004180 	call	2000418 <DisWrInst>
	DisWrInst(0x02);
 20004d8:	01000084 	movi	r4,2
 20004dc:	20004180 	call	2000418 <DisWrInst>
	DisWrInst(0x0c);
 20004e0:	01000304 	movi	r4,12
 20004e4:	20004180 	call	2000418 <DisWrInst>
}
 20004e8:	e037883a 	mov	sp,fp
 20004ec:	dfc00117 	ldw	ra,4(sp)
 20004f0:	df000017 	ldw	fp,0(sp)
 20004f4:	dec00204 	addi	sp,sp,8
 20004f8:	f800283a 	ret

020004fc <DisShowCur>:
 * Turn on or off cursor
 * 		0: On
 * 		1: Off
 */
void DisShowCur(int b)
{
 20004fc:	defffd04 	addi	sp,sp,-12
 2000500:	dfc00215 	stw	ra,8(sp)
 2000504:	df000115 	stw	fp,4(sp)
 2000508:	df000104 	addi	fp,sp,4
 200050c:	e13fff15 	stw	r4,-4(fp)
	if(b)
 2000510:	e0bfff17 	ldw	r2,-4(fp)
 2000514:	10000326 	beq	r2,zero,2000524 <DisShowCur+0x28>
		DisWrInst(0x0f);	//Show a blinking cursor
 2000518:	010003c4 	movi	r4,15
 200051c:	20004180 	call	2000418 <DisWrInst>
 2000520:	00000206 	br	200052c <DisShowCur+0x30>
	else
		DisWrInst(0x0c);	//Turn off cursor
 2000524:	01000304 	movi	r4,12
 2000528:	20004180 	call	2000418 <DisWrInst>
}
 200052c:	e037883a 	mov	sp,fp
 2000530:	dfc00117 	ldw	ra,4(sp)
 2000534:	df000017 	ldw	fp,0(sp)
 2000538:	dec00204 	addi	sp,sp,8
 200053c:	f800283a 	ret

02000540 <DisCurPos>:

/*
 * Locate the cursor to position (row, col)
 */
void DisCurPos(unsigned char row,unsigned char col)
{
 2000540:	defffb04 	addi	sp,sp,-20
 2000544:	dfc00415 	stw	ra,16(sp)
 2000548:	df000315 	stw	fp,12(sp)
 200054c:	df000304 	addi	fp,sp,12
 2000550:	2007883a 	mov	r3,r4
 2000554:	2805883a 	mov	r2,r5
 2000558:	e0fffe05 	stb	r3,-8(fp)
 200055c:	e0bfff05 	stb	r2,-4(fp)
	unsigned char addr = 0;
 2000560:	e03ffd05 	stb	zero,-12(fp)
	switch(row)
 2000564:	e0bffe03 	ldbu	r2,-8(fp)
 2000568:	10c000a0 	cmpeqi	r3,r2,2
 200056c:	18000c1e 	bne	r3,zero,20005a0 <DisCurPos+0x60>
 2000570:	10c000c8 	cmpgei	r3,r2,3
 2000574:	1800031e 	bne	r3,zero,2000584 <DisCurPos+0x44>
 2000578:	10800060 	cmpeqi	r2,r2,1
 200057c:	1000061e 	bne	r2,zero,2000598 <DisCurPos+0x58>
 2000580:	00001006 	br	20005c4 <DisCurPos+0x84>
 2000584:	10c000e0 	cmpeqi	r3,r2,3
 2000588:	1800081e 	bne	r3,zero,20005ac <DisCurPos+0x6c>
 200058c:	10800120 	cmpeqi	r2,r2,4
 2000590:	1000091e 	bne	r2,zero,20005b8 <DisCurPos+0x78>
 2000594:	00000b06 	br	20005c4 <DisCurPos+0x84>
	{
		case 1: addr = 0x00; break;
 2000598:	e03ffd05 	stb	zero,-12(fp)
 200059c:	00000906 	br	20005c4 <DisCurPos+0x84>
		case 2: addr = 0x40; break;
 20005a0:	00801004 	movi	r2,64
 20005a4:	e0bffd05 	stb	r2,-12(fp)
 20005a8:	00000606 	br	20005c4 <DisCurPos+0x84>
		case 3: addr = 0x14; break;
 20005ac:	00800504 	movi	r2,20
 20005b0:	e0bffd05 	stb	r2,-12(fp)
 20005b4:	00000306 	br	20005c4 <DisCurPos+0x84>
		case 4: addr = 0x54; break;
 20005b8:	00801504 	movi	r2,84
 20005bc:	e0bffd05 	stb	r2,-12(fp)
 20005c0:	0001883a 	nop
	}

	addr += col-1;
 20005c4:	e0ffff03 	ldbu	r3,-4(fp)
 20005c8:	e0bffd03 	ldbu	r2,-12(fp)
 20005cc:	1885883a 	add	r2,r3,r2
 20005d0:	10bfffc4 	addi	r2,r2,-1
 20005d4:	e0bffd05 	stb	r2,-12(fp)
	DisWrInst(0x80+addr);
 20005d8:	e0bffd03 	ldbu	r2,-12(fp)
 20005dc:	10bfe004 	addi	r2,r2,-128
 20005e0:	10803fcc 	andi	r2,r2,255
 20005e4:	1009883a 	mov	r4,r2
 20005e8:	20004180 	call	2000418 <DisWrInst>
}
 20005ec:	e037883a 	mov	sp,fp
 20005f0:	dfc00117 	ldw	ra,4(sp)
 20005f4:	df000017 	ldw	fp,0(sp)
 20005f8:	dec00204 	addi	sp,sp,8
 20005fc:	f800283a 	ret

02000600 <DisWrStr>:

/*
 * Display a string at current position.
 */
void DisWrStr(char* s)
{
 2000600:	defffc04 	addi	sp,sp,-16
 2000604:	dfc00315 	stw	ra,12(sp)
 2000608:	df000215 	stw	fp,8(sp)
 200060c:	df000204 	addi	fp,sp,8
 2000610:	e13fff15 	stw	r4,-4(fp)
	unsigned short i = 0;
 2000614:	e03ffe0d 	sth	zero,-8(fp)
	while(s[i]!=0x00)
 2000618:	00000a06 	br	2000644 <DisWrStr+0x44>
	{
		DisWrData(s[i]);
 200061c:	e0bffe0b 	ldhu	r2,-8(fp)
 2000620:	e0ffff17 	ldw	r3,-4(fp)
 2000624:	1885883a 	add	r2,r3,r2
 2000628:	10800003 	ldbu	r2,0(r2)
 200062c:	10803fcc 	andi	r2,r2,255
 2000630:	1009883a 	mov	r4,r2
 2000634:	20003a00 	call	20003a0 <DisWrData>
		i++;
 2000638:	e0bffe0b 	ldhu	r2,-8(fp)
 200063c:	10800044 	addi	r2,r2,1
 2000640:	e0bffe0d 	sth	r2,-8(fp)
 * Display a string at current position.
 */
void DisWrStr(char* s)
{
	unsigned short i = 0;
	while(s[i]!=0x00)
 2000644:	e0bffe0b 	ldhu	r2,-8(fp)
 2000648:	e0ffff17 	ldw	r3,-4(fp)
 200064c:	1885883a 	add	r2,r3,r2
 2000650:	10800003 	ldbu	r2,0(r2)
 2000654:	10803fcc 	andi	r2,r2,255
 2000658:	1080201c 	xori	r2,r2,128
 200065c:	10bfe004 	addi	r2,r2,-128
 2000660:	103fee1e 	bne	r2,zero,200061c <DisWrStr+0x1c>
	{
		DisWrData(s[i]);
		i++;
	}
}
 2000664:	e037883a 	mov	sp,fp
 2000668:	dfc00117 	ldw	ra,4(sp)
 200066c:	df000017 	ldw	fp,0(sp)
 2000670:	dec00204 	addi	sp,sp,8
 2000674:	f800283a 	ret

02000678 <DisClear>:

/*
 * Clear the entire display.
 */
void DisClear()
{
 2000678:	defffe04 	addi	sp,sp,-8
 200067c:	dfc00115 	stw	ra,4(sp)
 2000680:	df000015 	stw	fp,0(sp)
 2000684:	d839883a 	mov	fp,sp
	DisWrInst(0x01);
 2000688:	01000044 	movi	r4,1
 200068c:	20004180 	call	2000418 <DisWrInst>
	delay(0);
 2000690:	0009883a 	mov	r4,zero
 2000694:	20019dc0 	call	20019dc <delay>
}
 2000698:	e037883a 	mov	sp,fp
 200069c:	dfc00117 	ldw	ra,4(sp)
 20006a0:	df000017 	ldw	fp,0(sp)
 20006a4:	dec00204 	addi	sp,sp,8
 20006a8:	f800283a 	ret

020006ac <DisClearRow>:

/*
 * Clear a certain row.
 */
void DisClearRow(unsigned char row)
{
 20006ac:	defffd04 	addi	sp,sp,-12
 20006b0:	dfc00215 	stw	ra,8(sp)
 20006b4:	df000115 	stw	fp,4(sp)
 20006b8:	df000104 	addi	fp,sp,4
 20006bc:	2005883a 	mov	r2,r4
 20006c0:	e0bfff05 	stb	r2,-4(fp)
	DisCurPos(row,1);
 20006c4:	e0bfff03 	ldbu	r2,-4(fp)
 20006c8:	1009883a 	mov	r4,r2
 20006cc:	01400044 	movi	r5,1
 20006d0:	20005400 	call	2000540 <DisCurPos>
	DisWrStr("                    ");
 20006d4:	01008074 	movhi	r4,513
 20006d8:	21194704 	addi	r4,r4,25884
 20006dc:	20006000 	call	2000600 <DisWrStr>
}
 20006e0:	e037883a 	mov	sp,fp
 20006e4:	dfc00117 	ldw	ra,4(sp)
 20006e8:	df000017 	ldw	fp,0(sp)
 20006ec:	dec00204 	addi	sp,sp,8
 20006f0:	f800283a 	ret

020006f4 <DisOff>:

/*
 * Turn off the display.
 */
void DisOff()
{
 20006f4:	defffe04 	addi	sp,sp,-8
 20006f8:	dfc00115 	stw	ra,4(sp)
 20006fc:	df000015 	stw	fp,0(sp)
 2000700:	d839883a 	mov	fp,sp
	DisWrInst(0x08);
 2000704:	01000204 	movi	r4,8
 2000708:	20004180 	call	2000418 <DisWrInst>
}
 200070c:	e037883a 	mov	sp,fp
 2000710:	dfc00117 	ldw	ra,4(sp)
 2000714:	df000017 	ldw	fp,0(sp)
 2000718:	dec00204 	addi	sp,sp,8
 200071c:	f800283a 	ret

02000720 <FRAM_SendByte>:
#include "..\inc\Counter.h"
#include <stdio.h>


void FRAM_SendByte(unsigned char data)
{
 2000720:	defffe04 	addi	sp,sp,-8
 2000724:	df000115 	stw	fp,4(sp)
 2000728:	df000104 	addi	fp,sp,4
 200072c:	2005883a 	mov	r2,r4
 2000730:	e0bfff05 	stb	r2,-4(fp)
	//Bit 7
	FRAM_MOSI = (data & 0x80)?1:0;
 2000734:	00810034 	movhi	r2,1024
 2000738:	10882c04 	addi	r2,r2,8368
 200073c:	e0ffff03 	ldbu	r3,-4(fp)
 2000740:	18c03fcc 	andi	r3,r3,255
 2000744:	1806d1fa 	srli	r3,r3,7
 2000748:	10c00005 	stb	r3,0(r2)
	FRAM_SCLK = 1;
 200074c:	00810034 	movhi	r2,1024
 2000750:	10883404 	addi	r2,r2,8400
 2000754:	00c00044 	movi	r3,1
 2000758:	10c00005 	stb	r3,0(r2)
	data = (data<<1);
 200075c:	e0bfff03 	ldbu	r2,-4(fp)
 2000760:	1085883a 	add	r2,r2,r2
 2000764:	e0bfff05 	stb	r2,-4(fp)
	FRAM_SCLK = 0;
 2000768:	00810034 	movhi	r2,1024
 200076c:	10883404 	addi	r2,r2,8400
 2000770:	10000005 	stb	zero,0(r2)

	//Bit 6
	FRAM_MOSI = (data & 0x80)?1:0;
 2000774:	00810034 	movhi	r2,1024
 2000778:	10882c04 	addi	r2,r2,8368
 200077c:	e0ffff03 	ldbu	r3,-4(fp)
 2000780:	18c03fcc 	andi	r3,r3,255
 2000784:	1806d1fa 	srli	r3,r3,7
 2000788:	10c00005 	stb	r3,0(r2)
	FRAM_SCLK = 1;
 200078c:	00810034 	movhi	r2,1024
 2000790:	10883404 	addi	r2,r2,8400
 2000794:	00c00044 	movi	r3,1
 2000798:	10c00005 	stb	r3,0(r2)
	data = (data<<1);
 200079c:	e0bfff03 	ldbu	r2,-4(fp)
 20007a0:	1085883a 	add	r2,r2,r2
 20007a4:	e0bfff05 	stb	r2,-4(fp)
	FRAM_SCLK = 0;
 20007a8:	00810034 	movhi	r2,1024
 20007ac:	10883404 	addi	r2,r2,8400
 20007b0:	10000005 	stb	zero,0(r2)

	//Bit 5
	FRAM_MOSI = (data & 0x80)?1:0;
 20007b4:	00810034 	movhi	r2,1024
 20007b8:	10882c04 	addi	r2,r2,8368
 20007bc:	e0ffff03 	ldbu	r3,-4(fp)
 20007c0:	18c03fcc 	andi	r3,r3,255
 20007c4:	1806d1fa 	srli	r3,r3,7
 20007c8:	10c00005 	stb	r3,0(r2)
	FRAM_SCLK = 1;
 20007cc:	00810034 	movhi	r2,1024
 20007d0:	10883404 	addi	r2,r2,8400
 20007d4:	00c00044 	movi	r3,1
 20007d8:	10c00005 	stb	r3,0(r2)
	data = (data<<1);
 20007dc:	e0bfff03 	ldbu	r2,-4(fp)
 20007e0:	1085883a 	add	r2,r2,r2
 20007e4:	e0bfff05 	stb	r2,-4(fp)
	FRAM_SCLK = 0;
 20007e8:	00810034 	movhi	r2,1024
 20007ec:	10883404 	addi	r2,r2,8400
 20007f0:	10000005 	stb	zero,0(r2)

	//Bit 4
	FRAM_MOSI = (data & 0x80)?1:0;
 20007f4:	00810034 	movhi	r2,1024
 20007f8:	10882c04 	addi	r2,r2,8368
 20007fc:	e0ffff03 	ldbu	r3,-4(fp)
 2000800:	18c03fcc 	andi	r3,r3,255
 2000804:	1806d1fa 	srli	r3,r3,7
 2000808:	10c00005 	stb	r3,0(r2)
	FRAM_SCLK = 1;
 200080c:	00810034 	movhi	r2,1024
 2000810:	10883404 	addi	r2,r2,8400
 2000814:	00c00044 	movi	r3,1
 2000818:	10c00005 	stb	r3,0(r2)
	data = (data<<1);
 200081c:	e0bfff03 	ldbu	r2,-4(fp)
 2000820:	1085883a 	add	r2,r2,r2
 2000824:	e0bfff05 	stb	r2,-4(fp)
	FRAM_SCLK = 0;
 2000828:	00810034 	movhi	r2,1024
 200082c:	10883404 	addi	r2,r2,8400
 2000830:	10000005 	stb	zero,0(r2)

	//Bit 3
	FRAM_MOSI = (data & 0x80)?1:0;
 2000834:	00810034 	movhi	r2,1024
 2000838:	10882c04 	addi	r2,r2,8368
 200083c:	e0ffff03 	ldbu	r3,-4(fp)
 2000840:	18c03fcc 	andi	r3,r3,255
 2000844:	1806d1fa 	srli	r3,r3,7
 2000848:	10c00005 	stb	r3,0(r2)
	FRAM_SCLK = 1;
 200084c:	00810034 	movhi	r2,1024
 2000850:	10883404 	addi	r2,r2,8400
 2000854:	00c00044 	movi	r3,1
 2000858:	10c00005 	stb	r3,0(r2)
	data = (data<<1);
 200085c:	e0bfff03 	ldbu	r2,-4(fp)
 2000860:	1085883a 	add	r2,r2,r2
 2000864:	e0bfff05 	stb	r2,-4(fp)
	FRAM_SCLK = 0;
 2000868:	00810034 	movhi	r2,1024
 200086c:	10883404 	addi	r2,r2,8400
 2000870:	10000005 	stb	zero,0(r2)

	//Bit 2
	FRAM_MOSI = (data & 0x80)?1:0;
 2000874:	00810034 	movhi	r2,1024
 2000878:	10882c04 	addi	r2,r2,8368
 200087c:	e0ffff03 	ldbu	r3,-4(fp)
 2000880:	18c03fcc 	andi	r3,r3,255
 2000884:	1806d1fa 	srli	r3,r3,7
 2000888:	10c00005 	stb	r3,0(r2)
	FRAM_SCLK = 1;
 200088c:	00810034 	movhi	r2,1024
 2000890:	10883404 	addi	r2,r2,8400
 2000894:	00c00044 	movi	r3,1
 2000898:	10c00005 	stb	r3,0(r2)
	data = (data<<1);
 200089c:	e0bfff03 	ldbu	r2,-4(fp)
 20008a0:	1085883a 	add	r2,r2,r2
 20008a4:	e0bfff05 	stb	r2,-4(fp)
	FRAM_SCLK = 0;
 20008a8:	00810034 	movhi	r2,1024
 20008ac:	10883404 	addi	r2,r2,8400
 20008b0:	10000005 	stb	zero,0(r2)

	//Bit 1
	FRAM_MOSI = (data & 0x80)?1:0;
 20008b4:	00810034 	movhi	r2,1024
 20008b8:	10882c04 	addi	r2,r2,8368
 20008bc:	e0ffff03 	ldbu	r3,-4(fp)
 20008c0:	18c03fcc 	andi	r3,r3,255
 20008c4:	1806d1fa 	srli	r3,r3,7
 20008c8:	10c00005 	stb	r3,0(r2)
	FRAM_SCLK = 1;
 20008cc:	00810034 	movhi	r2,1024
 20008d0:	10883404 	addi	r2,r2,8400
 20008d4:	00c00044 	movi	r3,1
 20008d8:	10c00005 	stb	r3,0(r2)
	data = (data<<1);
 20008dc:	e0bfff03 	ldbu	r2,-4(fp)
 20008e0:	1085883a 	add	r2,r2,r2
 20008e4:	e0bfff05 	stb	r2,-4(fp)
	FRAM_SCLK = 0;
 20008e8:	00810034 	movhi	r2,1024
 20008ec:	10883404 	addi	r2,r2,8400
 20008f0:	10000005 	stb	zero,0(r2)

	//Bit 0
	FRAM_MOSI = (data & 0x80)?1:0;
 20008f4:	00810034 	movhi	r2,1024
 20008f8:	10882c04 	addi	r2,r2,8368
 20008fc:	e0ffff03 	ldbu	r3,-4(fp)
 2000900:	18c03fcc 	andi	r3,r3,255
 2000904:	1806d1fa 	srli	r3,r3,7
 2000908:	10c00005 	stb	r3,0(r2)
	FRAM_SCLK = 1;
 200090c:	00810034 	movhi	r2,1024
 2000910:	10883404 	addi	r2,r2,8400
 2000914:	00c00044 	movi	r3,1
 2000918:	10c00005 	stb	r3,0(r2)
	FRAM_SCLK = 0;
 200091c:	00810034 	movhi	r2,1024
 2000920:	10883404 	addi	r2,r2,8400
 2000924:	10000005 	stb	zero,0(r2)
}
 2000928:	e037883a 	mov	sp,fp
 200092c:	df000017 	ldw	fp,0(sp)
 2000930:	dec00104 	addi	sp,sp,4
 2000934:	f800283a 	ret

02000938 <FRAM_ReadByte>:

unsigned char FRAM_ReadByte()
{
 2000938:	defffe04 	addi	sp,sp,-8
 200093c:	df000115 	stw	fp,4(sp)
 2000940:	df000104 	addi	fp,sp,4
	char data = 0x00;
 2000944:	e03fff05 	stb	zero,-4(fp)
	FRAM_SCLK = 0;
 2000948:	00810034 	movhi	r2,1024
 200094c:	10883404 	addi	r2,r2,8400
 2000950:	10000005 	stb	zero,0(r2)

	//Bit 7
	data = data | FRAM_MISO;
 2000954:	00810034 	movhi	r2,1024
 2000958:	10882804 	addi	r2,r2,8352
 200095c:	10c00003 	ldbu	r3,0(r2)
 2000960:	e0bfff03 	ldbu	r2,-4(fp)
 2000964:	1884b03a 	or	r2,r3,r2
 2000968:	e0bfff05 	stb	r2,-4(fp)
	FRAM_SCLK = 1;
 200096c:	00810034 	movhi	r2,1024
 2000970:	10883404 	addi	r2,r2,8400
 2000974:	00c00044 	movi	r3,1
 2000978:	10c00005 	stb	r3,0(r2)
	data = (data<<1);
 200097c:	e0bfff07 	ldb	r2,-4(fp)
 2000980:	1085883a 	add	r2,r2,r2
 2000984:	e0bfff05 	stb	r2,-4(fp)
	FRAM_SCLK = 0;
 2000988:	00810034 	movhi	r2,1024
 200098c:	10883404 	addi	r2,r2,8400
 2000990:	10000005 	stb	zero,0(r2)

	//Bit 6
	data = data | FRAM_MISO;
 2000994:	00810034 	movhi	r2,1024
 2000998:	10882804 	addi	r2,r2,8352
 200099c:	10c00003 	ldbu	r3,0(r2)
 20009a0:	e0bfff03 	ldbu	r2,-4(fp)
 20009a4:	1884b03a 	or	r2,r3,r2
 20009a8:	e0bfff05 	stb	r2,-4(fp)
	FRAM_SCLK = 1;
 20009ac:	00810034 	movhi	r2,1024
 20009b0:	10883404 	addi	r2,r2,8400
 20009b4:	00c00044 	movi	r3,1
 20009b8:	10c00005 	stb	r3,0(r2)
	data = (data<<1);
 20009bc:	e0bfff07 	ldb	r2,-4(fp)
 20009c0:	1085883a 	add	r2,r2,r2
 20009c4:	e0bfff05 	stb	r2,-4(fp)
	FRAM_SCLK = 0;
 20009c8:	00810034 	movhi	r2,1024
 20009cc:	10883404 	addi	r2,r2,8400
 20009d0:	10000005 	stb	zero,0(r2)

	//Bit 5
	data = data | FRAM_MISO;
 20009d4:	00810034 	movhi	r2,1024
 20009d8:	10882804 	addi	r2,r2,8352
 20009dc:	10c00003 	ldbu	r3,0(r2)
 20009e0:	e0bfff03 	ldbu	r2,-4(fp)
 20009e4:	1884b03a 	or	r2,r3,r2
 20009e8:	e0bfff05 	stb	r2,-4(fp)
	FRAM_SCLK = 1;
 20009ec:	00810034 	movhi	r2,1024
 20009f0:	10883404 	addi	r2,r2,8400
 20009f4:	00c00044 	movi	r3,1
 20009f8:	10c00005 	stb	r3,0(r2)
	data = (data<<1);
 20009fc:	e0bfff07 	ldb	r2,-4(fp)
 2000a00:	1085883a 	add	r2,r2,r2
 2000a04:	e0bfff05 	stb	r2,-4(fp)
	FRAM_SCLK = 0;
 2000a08:	00810034 	movhi	r2,1024
 2000a0c:	10883404 	addi	r2,r2,8400
 2000a10:	10000005 	stb	zero,0(r2)

	//Bit 4
	data = data | FRAM_MISO;
 2000a14:	00810034 	movhi	r2,1024
 2000a18:	10882804 	addi	r2,r2,8352
 2000a1c:	10c00003 	ldbu	r3,0(r2)
 2000a20:	e0bfff03 	ldbu	r2,-4(fp)
 2000a24:	1884b03a 	or	r2,r3,r2
 2000a28:	e0bfff05 	stb	r2,-4(fp)
	FRAM_SCLK = 1;
 2000a2c:	00810034 	movhi	r2,1024
 2000a30:	10883404 	addi	r2,r2,8400
 2000a34:	00c00044 	movi	r3,1
 2000a38:	10c00005 	stb	r3,0(r2)
	data = (data<<1);
 2000a3c:	e0bfff07 	ldb	r2,-4(fp)
 2000a40:	1085883a 	add	r2,r2,r2
 2000a44:	e0bfff05 	stb	r2,-4(fp)
	FRAM_SCLK = 0;
 2000a48:	00810034 	movhi	r2,1024
 2000a4c:	10883404 	addi	r2,r2,8400
 2000a50:	10000005 	stb	zero,0(r2)

	//Bit 3
	data = data | FRAM_MISO;
 2000a54:	00810034 	movhi	r2,1024
 2000a58:	10882804 	addi	r2,r2,8352
 2000a5c:	10c00003 	ldbu	r3,0(r2)
 2000a60:	e0bfff03 	ldbu	r2,-4(fp)
 2000a64:	1884b03a 	or	r2,r3,r2
 2000a68:	e0bfff05 	stb	r2,-4(fp)
	FRAM_SCLK = 1;
 2000a6c:	00810034 	movhi	r2,1024
 2000a70:	10883404 	addi	r2,r2,8400
 2000a74:	00c00044 	movi	r3,1
 2000a78:	10c00005 	stb	r3,0(r2)
	data = (data<<1);
 2000a7c:	e0bfff07 	ldb	r2,-4(fp)
 2000a80:	1085883a 	add	r2,r2,r2
 2000a84:	e0bfff05 	stb	r2,-4(fp)
	FRAM_SCLK = 0;
 2000a88:	00810034 	movhi	r2,1024
 2000a8c:	10883404 	addi	r2,r2,8400
 2000a90:	10000005 	stb	zero,0(r2)

	//Bit 2
	data = data | FRAM_MISO;
 2000a94:	00810034 	movhi	r2,1024
 2000a98:	10882804 	addi	r2,r2,8352
 2000a9c:	10c00003 	ldbu	r3,0(r2)
 2000aa0:	e0bfff03 	ldbu	r2,-4(fp)
 2000aa4:	1884b03a 	or	r2,r3,r2
 2000aa8:	e0bfff05 	stb	r2,-4(fp)
	FRAM_SCLK = 1;
 2000aac:	00810034 	movhi	r2,1024
 2000ab0:	10883404 	addi	r2,r2,8400
 2000ab4:	00c00044 	movi	r3,1
 2000ab8:	10c00005 	stb	r3,0(r2)
	data = (data<<1);
 2000abc:	e0bfff07 	ldb	r2,-4(fp)
 2000ac0:	1085883a 	add	r2,r2,r2
 2000ac4:	e0bfff05 	stb	r2,-4(fp)
	FRAM_SCLK = 0;
 2000ac8:	00810034 	movhi	r2,1024
 2000acc:	10883404 	addi	r2,r2,8400
 2000ad0:	10000005 	stb	zero,0(r2)

	//Bit 1
	data = data | FRAM_MISO;
 2000ad4:	00810034 	movhi	r2,1024
 2000ad8:	10882804 	addi	r2,r2,8352
 2000adc:	10c00003 	ldbu	r3,0(r2)
 2000ae0:	e0bfff03 	ldbu	r2,-4(fp)
 2000ae4:	1884b03a 	or	r2,r3,r2
 2000ae8:	e0bfff05 	stb	r2,-4(fp)
	FRAM_SCLK = 1;
 2000aec:	00810034 	movhi	r2,1024
 2000af0:	10883404 	addi	r2,r2,8400
 2000af4:	00c00044 	movi	r3,1
 2000af8:	10c00005 	stb	r3,0(r2)
	data = (data<<1);
 2000afc:	e0bfff07 	ldb	r2,-4(fp)
 2000b00:	1085883a 	add	r2,r2,r2
 2000b04:	e0bfff05 	stb	r2,-4(fp)
	FRAM_SCLK = 0;
 2000b08:	00810034 	movhi	r2,1024
 2000b0c:	10883404 	addi	r2,r2,8400
 2000b10:	10000005 	stb	zero,0(r2)

	//Bit 0
	data = data | FRAM_MISO;
 2000b14:	00810034 	movhi	r2,1024
 2000b18:	10882804 	addi	r2,r2,8352
 2000b1c:	10c00003 	ldbu	r3,0(r2)
 2000b20:	e0bfff03 	ldbu	r2,-4(fp)
 2000b24:	1884b03a 	or	r2,r3,r2
 2000b28:	e0bfff05 	stb	r2,-4(fp)
	FRAM_SCLK = 1;
 2000b2c:	00810034 	movhi	r2,1024
 2000b30:	10883404 	addi	r2,r2,8400
 2000b34:	00c00044 	movi	r3,1
 2000b38:	10c00005 	stb	r3,0(r2)
	FRAM_SCLK = 0;
 2000b3c:	00810034 	movhi	r2,1024
 2000b40:	10883404 	addi	r2,r2,8400
 2000b44:	10000005 	stb	zero,0(r2)
	return data;
 2000b48:	e0bfff03 	ldbu	r2,-4(fp)
}
 2000b4c:	e037883a 	mov	sp,fp
 2000b50:	df000017 	ldw	fp,0(sp)
 2000b54:	dec00104 	addi	sp,sp,4
 2000b58:	f800283a 	ret

02000b5c <FRAM_Write32Bits>:


void FRAM_Write32Bits(unsigned short addr, unsigned int data)
{
 2000b5c:	defffa04 	addi	sp,sp,-24
 2000b60:	dfc00515 	stw	ra,20(sp)
 2000b64:	df000415 	stw	fp,16(sp)
 2000b68:	df000404 	addi	fp,sp,16
 2000b6c:	2005883a 	mov	r2,r4
 2000b70:	e17fff15 	stw	r5,-4(fp)
 2000b74:	e0bffe0d 	sth	r2,-8(fp)
	unsigned short addr_new = addr * 4;
 2000b78:	e0bffe0b 	ldhu	r2,-8(fp)
 2000b7c:	1085883a 	add	r2,r2,r2
 2000b80:	1085883a 	add	r2,r2,r2
 2000b84:	e0bffc0d 	sth	r2,-16(fp)

	unsigned char addr0 = addr_new & 0xFF;
 2000b88:	e0bffc0b 	ldhu	r2,-16(fp)
 2000b8c:	e0bffc85 	stb	r2,-14(fp)
	unsigned char addr1 = addr_new>>8 & 0xFF;
 2000b90:	e0bffc0b 	ldhu	r2,-16(fp)
 2000b94:	1004d23a 	srli	r2,r2,8
 2000b98:	e0bffcc5 	stb	r2,-13(fp)

	unsigned char byte0 = data & 0xFF;
 2000b9c:	e0bfff17 	ldw	r2,-4(fp)
 2000ba0:	e0bffd05 	stb	r2,-12(fp)
	unsigned char byte1 = data>>8 & 0xFF;
 2000ba4:	e0bfff17 	ldw	r2,-4(fp)
 2000ba8:	1004d23a 	srli	r2,r2,8
 2000bac:	e0bffd45 	stb	r2,-11(fp)
	unsigned char byte2 = data>>16 & 0xFF;
 2000bb0:	e0bfff17 	ldw	r2,-4(fp)
 2000bb4:	1004d43a 	srli	r2,r2,16
 2000bb8:	e0bffd85 	stb	r2,-10(fp)
	unsigned char byte3 = data>>24 & 0xFF;
 2000bbc:	e0bfff17 	ldw	r2,-4(fp)
 2000bc0:	1004d63a 	srli	r2,r2,24
 2000bc4:	e0bffdc5 	stb	r2,-9(fp)

	FRAM_CS_n = 1;
 2000bc8:	00810034 	movhi	r2,1024
 2000bcc:	10883004 	addi	r2,r2,8384
 2000bd0:	00c00044 	movi	r3,1
 2000bd4:	10c00005 	stb	r3,0(r2)
	FRAM_SCLK = 0;
 2000bd8:	00810034 	movhi	r2,1024
 2000bdc:	10883404 	addi	r2,r2,8400
 2000be0:	10000005 	stb	zero,0(r2)
	FRAM_CS_n = 0;
 2000be4:	00810034 	movhi	r2,1024
 2000be8:	10883004 	addi	r2,r2,8384
 2000bec:	10000005 	stb	zero,0(r2)
	FRAM_SendByte(FRAM_OP_WREN);
 2000bf0:	01000184 	movi	r4,6
 2000bf4:	20007200 	call	2000720 <FRAM_SendByte>
	FRAM_CS_n = 1;
 2000bf8:	00810034 	movhi	r2,1024
 2000bfc:	10883004 	addi	r2,r2,8384
 2000c00:	00c00044 	movi	r3,1
 2000c04:	10c00005 	stb	r3,0(r2)

	FRAM_CS_n = 0;
 2000c08:	00810034 	movhi	r2,1024
 2000c0c:	10883004 	addi	r2,r2,8384
 2000c10:	10000005 	stb	zero,0(r2)
	FRAM_SendByte(FRAM_OP_WRITE);
 2000c14:	01000084 	movi	r4,2
 2000c18:	20007200 	call	2000720 <FRAM_SendByte>
	FRAM_SendByte(addr1);
 2000c1c:	e0bffcc3 	ldbu	r2,-13(fp)
 2000c20:	1009883a 	mov	r4,r2
 2000c24:	20007200 	call	2000720 <FRAM_SendByte>
	FRAM_SendByte(addr0);
 2000c28:	e0bffc83 	ldbu	r2,-14(fp)
 2000c2c:	1009883a 	mov	r4,r2
 2000c30:	20007200 	call	2000720 <FRAM_SendByte>
	FRAM_SendByte(byte3);
 2000c34:	e0bffdc3 	ldbu	r2,-9(fp)
 2000c38:	1009883a 	mov	r4,r2
 2000c3c:	20007200 	call	2000720 <FRAM_SendByte>
	FRAM_SendByte(byte2);
 2000c40:	e0bffd83 	ldbu	r2,-10(fp)
 2000c44:	1009883a 	mov	r4,r2
 2000c48:	20007200 	call	2000720 <FRAM_SendByte>
	FRAM_SendByte(byte1);
 2000c4c:	e0bffd43 	ldbu	r2,-11(fp)
 2000c50:	1009883a 	mov	r4,r2
 2000c54:	20007200 	call	2000720 <FRAM_SendByte>
	FRAM_SendByte(byte0);
 2000c58:	e0bffd03 	ldbu	r2,-12(fp)
 2000c5c:	1009883a 	mov	r4,r2
 2000c60:	20007200 	call	2000720 <FRAM_SendByte>
	FRAM_CS_n = 1;
 2000c64:	00810034 	movhi	r2,1024
 2000c68:	10883004 	addi	r2,r2,8384
 2000c6c:	00c00044 	movi	r3,1
 2000c70:	10c00005 	stb	r3,0(r2)
}
 2000c74:	e037883a 	mov	sp,fp
 2000c78:	dfc00117 	ldw	ra,4(sp)
 2000c7c:	df000017 	ldw	fp,0(sp)
 2000c80:	dec00204 	addi	sp,sp,8
 2000c84:	f800283a 	ret

02000c88 <FRAM_Read32Bits>:

unsigned int FRAM_Read32Bits(unsigned short addr)
{
 2000c88:	defff604 	addi	sp,sp,-40
 2000c8c:	dfc00915 	stw	ra,36(sp)
 2000c90:	df000815 	stw	fp,32(sp)
 2000c94:	df000804 	addi	fp,sp,32
 2000c98:	2005883a 	mov	r2,r4
 2000c9c:	e0bfff0d 	sth	r2,-4(fp)
	unsigned short addr_new = addr * 4;
 2000ca0:	e0bfff0b 	ldhu	r2,-4(fp)
 2000ca4:	1085883a 	add	r2,r2,r2
 2000ca8:	1085883a 	add	r2,r2,r2
 2000cac:	e0bff80d 	sth	r2,-32(fp)

	unsigned char addr0 = addr_new & 0xFF;
 2000cb0:	e0bff80b 	ldhu	r2,-32(fp)
 2000cb4:	e0bff885 	stb	r2,-30(fp)
	unsigned char addr1 = addr_new>>8 & 0xFF;
 2000cb8:	e0bff80b 	ldhu	r2,-32(fp)
 2000cbc:	1004d23a 	srli	r2,r2,8
 2000cc0:	e0bff8c5 	stb	r2,-29(fp)

	FRAM_CS_n = 1;
 2000cc4:	00810034 	movhi	r2,1024
 2000cc8:	10883004 	addi	r2,r2,8384
 2000ccc:	00c00044 	movi	r3,1
 2000cd0:	10c00005 	stb	r3,0(r2)
	FRAM_SCLK = 0;
 2000cd4:	00810034 	movhi	r2,1024
 2000cd8:	10883404 	addi	r2,r2,8400
 2000cdc:	10000005 	stb	zero,0(r2)
	FRAM_CS_n = 0;
 2000ce0:	00810034 	movhi	r2,1024
 2000ce4:	10883004 	addi	r2,r2,8384
 2000ce8:	10000005 	stb	zero,0(r2)
	FRAM_SendByte(FRAM_OP_READ);
 2000cec:	010000c4 	movi	r4,3
 2000cf0:	20007200 	call	2000720 <FRAM_SendByte>
	FRAM_SendByte(addr1);
 2000cf4:	e0bff8c3 	ldbu	r2,-29(fp)
 2000cf8:	1009883a 	mov	r4,r2
 2000cfc:	20007200 	call	2000720 <FRAM_SendByte>
	FRAM_SendByte(addr0);
 2000d00:	e0bff883 	ldbu	r2,-30(fp)
 2000d04:	1009883a 	mov	r4,r2
 2000d08:	20007200 	call	2000720 <FRAM_SendByte>

	unsigned char input3 = FRAM_ReadByte();
 2000d0c:	20009380 	call	2000938 <FRAM_ReadByte>
 2000d10:	e0bff905 	stb	r2,-28(fp)
	unsigned char input2 = FRAM_ReadByte();
 2000d14:	20009380 	call	2000938 <FRAM_ReadByte>
 2000d18:	e0bff945 	stb	r2,-27(fp)
	unsigned char input1 = FRAM_ReadByte();
 2000d1c:	20009380 	call	2000938 <FRAM_ReadByte>
 2000d20:	e0bff985 	stb	r2,-26(fp)
	unsigned char input0 = FRAM_ReadByte();
 2000d24:	20009380 	call	2000938 <FRAM_ReadByte>
 2000d28:	e0bff9c5 	stb	r2,-25(fp)


	unsigned int byte0 = input0;
 2000d2c:	e0bff9c3 	ldbu	r2,-25(fp)
 2000d30:	e0bffa15 	stw	r2,-24(fp)
	unsigned int byte1 = input1 << 8;
 2000d34:	e0bff983 	ldbu	r2,-26(fp)
 2000d38:	1004923a 	slli	r2,r2,8
 2000d3c:	e0bffb15 	stw	r2,-20(fp)
	unsigned int byte2 = input2 << 16;
 2000d40:	e0bff943 	ldbu	r2,-27(fp)
 2000d44:	1004943a 	slli	r2,r2,16
 2000d48:	e0bffc15 	stw	r2,-16(fp)
	unsigned int byte3 = input3 << 24;
 2000d4c:	e0bff903 	ldbu	r2,-28(fp)
 2000d50:	1004963a 	slli	r2,r2,24
 2000d54:	e0bffd15 	stw	r2,-12(fp)

	unsigned int data = byte0 + byte1 + byte2 + byte3;
 2000d58:	e0fffa17 	ldw	r3,-24(fp)
 2000d5c:	e0bffb17 	ldw	r2,-20(fp)
 2000d60:	1887883a 	add	r3,r3,r2
 2000d64:	e0bffc17 	ldw	r2,-16(fp)
 2000d68:	1887883a 	add	r3,r3,r2
 2000d6c:	e0bffd17 	ldw	r2,-12(fp)
 2000d70:	1885883a 	add	r2,r3,r2
 2000d74:	e0bffe15 	stw	r2,-8(fp)
	return data;
 2000d78:	e0bffe17 	ldw	r2,-8(fp)
}
 2000d7c:	e037883a 	mov	sp,fp
 2000d80:	dfc00117 	ldw	ra,4(sp)
 2000d84:	df000017 	ldw	fp,0(sp)
 2000d88:	dec00204 	addi	sp,sp,8
 2000d8c:	f800283a 	ret

02000d90 <FRAM_test>:



void FRAM_test()
{
 2000d90:	defffe04 	addi	sp,sp,-8
 2000d94:	dfc00115 	stw	ra,4(sp)
 2000d98:	df000015 	stw	fp,0(sp)
 2000d9c:	d839883a 	mov	fp,sp
	FRAM_Write32Bits(COUNTER_1_ADDR,218999);
 2000da0:	01000584 	movi	r4,22
 2000da4:	014000f4 	movhi	r5,3
 2000da8:	2955ddc4 	addi	r5,r5,22391
 2000dac:	2000b5c0 	call	2000b5c <FRAM_Write32Bits>
	printf("%d\n",FRAM_Read32Bits(COUNTER_1_ADDR));
 2000db0:	01000584 	movi	r4,22
 2000db4:	2000c880 	call	2000c88 <FRAM_Read32Bits>
 2000db8:	01008074 	movhi	r4,513
 2000dbc:	21194d04 	addi	r4,r4,25908
 2000dc0:	100b883a 	mov	r5,r2
 2000dc4:	20099380 	call	2009938 <printf>
	FRAM_Write32Bits(COUNTER_0_ADDR,218999);
 2000dc8:	01000544 	movi	r4,21
 2000dcc:	014000f4 	movhi	r5,3
 2000dd0:	2955ddc4 	addi	r5,r5,22391
 2000dd4:	2000b5c0 	call	2000b5c <FRAM_Write32Bits>
	printf("%d\n",FRAM_Read32Bits(COUNTER_0_ADDR));
 2000dd8:	01000544 	movi	r4,21
 2000ddc:	2000c880 	call	2000c88 <FRAM_Read32Bits>
 2000de0:	01008074 	movhi	r4,513
 2000de4:	21194d04 	addi	r4,r4,25908
 2000de8:	100b883a 	mov	r5,r2
 2000dec:	20099380 	call	2009938 <printf>

}
 2000df0:	e037883a 	mov	sp,fp
 2000df4:	dfc00117 	ldw	ra,4(sp)
 2000df8:	df000017 	ldw	fp,0(sp)
 2000dfc:	dec00204 	addi	sp,sp,8
 2000e00:	f800283a 	ret

02000e04 <KPLED_getStatus>:
static unsigned short KPLED_Status_Buff;		//Stores current status.



unsigned short KPLED_getStatus()
{
 2000e04:	deffff04 	addi	sp,sp,-4
 2000e08:	df000015 	stw	fp,0(sp)
 2000e0c:	d839883a 	mov	fp,sp
	return KPLED_Status_Buff;
 2000e10:	d0a0110b 	ldhu	r2,-32700(gp)
}
 2000e14:	e037883a 	mov	sp,fp
 2000e18:	df000017 	ldw	fp,0(sp)
 2000e1c:	dec00104 	addi	sp,sp,4
 2000e20:	f800283a 	ret

02000e24 <KPLED_setStatus>:

void KPLED_setStatus(unsigned short status)
{
 2000e24:	defffe04 	addi	sp,sp,-8
 2000e28:	df000115 	stw	fp,4(sp)
 2000e2c:	df000104 	addi	fp,sp,4
 2000e30:	2005883a 	mov	r2,r4
 2000e34:	e0bfff0d 	sth	r2,-4(fp)
	KPLED_Status_Buff = status;
 2000e38:	e0bfff0b 	ldhu	r2,-4(fp)
 2000e3c:	d0a0110d 	sth	r2,-32700(gp)
	KPLED_Status = KPLED_Status_Buff;
 2000e40:	00810034 	movhi	r2,1024
 2000e44:	10880004 	addi	r2,r2,8192
 2000e48:	d0e0110b 	ldhu	r3,-32700(gp)
 2000e4c:	10c0000d 	sth	r3,0(r2)
	KPLED_Load = 0;
 2000e50:	00810034 	movhi	r2,1024
 2000e54:	10887004 	addi	r2,r2,8640
 2000e58:	10000005 	stb	zero,0(r2)
	KPLED_Load = 1;
 2000e5c:	00810034 	movhi	r2,1024
 2000e60:	10887004 	addi	r2,r2,8640
 2000e64:	00c00044 	movi	r3,1
 2000e68:	10c00005 	stb	r3,0(r2)
	KPLED_Load = 0;
 2000e6c:	00810034 	movhi	r2,1024
 2000e70:	10887004 	addi	r2,r2,8640
 2000e74:	10000005 	stb	zero,0(r2)
}
 2000e78:	e037883a 	mov	sp,fp
 2000e7c:	df000017 	ldw	fp,0(sp)
 2000e80:	dec00104 	addi	sp,sp,4
 2000e84:	f800283a 	ret

02000e88 <KPLED_All_Bright>:

void KPLED_All_Bright()
{
 2000e88:	deffff04 	addi	sp,sp,-4
 2000e8c:	df000015 	stw	fp,0(sp)
 2000e90:	d839883a 	mov	fp,sp
	KPLED_Status_Buff = 0x7fff;
 2000e94:	009fffc4 	movi	r2,32767
 2000e98:	d0a0110d 	sth	r2,-32700(gp)
	KPLED_Status = 0x7fff;
 2000e9c:	00810034 	movhi	r2,1024
 2000ea0:	10880004 	addi	r2,r2,8192
 2000ea4:	00dfffc4 	movi	r3,32767
 2000ea8:	10c0000d 	sth	r3,0(r2)
	KPLED_Load = 0;
 2000eac:	00810034 	movhi	r2,1024
 2000eb0:	10887004 	addi	r2,r2,8640
 2000eb4:	10000005 	stb	zero,0(r2)
	KPLED_Load = 1;
 2000eb8:	00810034 	movhi	r2,1024
 2000ebc:	10887004 	addi	r2,r2,8640
 2000ec0:	00c00044 	movi	r3,1
 2000ec4:	10c00005 	stb	r3,0(r2)
	KPLED_Load = 0;
 2000ec8:	00810034 	movhi	r2,1024
 2000ecc:	10887004 	addi	r2,r2,8640
 2000ed0:	10000005 	stb	zero,0(r2)
}
 2000ed4:	e037883a 	mov	sp,fp
 2000ed8:	df000017 	ldw	fp,0(sp)
 2000edc:	dec00104 	addi	sp,sp,4
 2000ee0:	f800283a 	ret

02000ee4 <KPLED_All_Dim>:
void KPLED_All_Dim()
{
 2000ee4:	deffff04 	addi	sp,sp,-4
 2000ee8:	df000015 	stw	fp,0(sp)
 2000eec:	d839883a 	mov	fp,sp
	KPLED_Status_Buff = 0x9555;
 2000ef0:	00a55544 	movi	r2,-27307
 2000ef4:	d0a0110d 	sth	r2,-32700(gp)
	KPLED_Status = 0x9555;
 2000ef8:	00810034 	movhi	r2,1024
 2000efc:	10880004 	addi	r2,r2,8192
 2000f00:	00e55544 	movi	r3,-27307
 2000f04:	10c0000d 	sth	r3,0(r2)
	KPLED_Load = 0;
 2000f08:	00810034 	movhi	r2,1024
 2000f0c:	10887004 	addi	r2,r2,8640
 2000f10:	10000005 	stb	zero,0(r2)
	KPLED_Load = 1;
 2000f14:	00810034 	movhi	r2,1024
 2000f18:	10887004 	addi	r2,r2,8640
 2000f1c:	00c00044 	movi	r3,1
 2000f20:	10c00005 	stb	r3,0(r2)
	KPLED_Load = 0;
 2000f24:	00810034 	movhi	r2,1024
 2000f28:	10887004 	addi	r2,r2,8640
 2000f2c:	10000005 	stb	zero,0(r2)
}
 2000f30:	e037883a 	mov	sp,fp
 2000f34:	df000017 	ldw	fp,0(sp)
 2000f38:	dec00104 	addi	sp,sp,4
 2000f3c:	f800283a 	ret

02000f40 <KPLED_All_Off>:
void KPLED_All_Off()
{
 2000f40:	deffff04 	addi	sp,sp,-4
 2000f44:	df000015 	stw	fp,0(sp)
 2000f48:	d839883a 	mov	fp,sp
	KPLED_Status_Buff = 0xc000;
 2000f4c:	00b00004 	movi	r2,-16384
 2000f50:	d0a0110d 	sth	r2,-32700(gp)
	KPLED_Status = 0xc000;
 2000f54:	00810034 	movhi	r2,1024
 2000f58:	10880004 	addi	r2,r2,8192
 2000f5c:	00f00004 	movi	r3,-16384
 2000f60:	10c0000d 	sth	r3,0(r2)
	KPLED_Load = 0;
 2000f64:	00810034 	movhi	r2,1024
 2000f68:	10887004 	addi	r2,r2,8640
 2000f6c:	10000005 	stb	zero,0(r2)
	KPLED_Load = 1;
 2000f70:	00810034 	movhi	r2,1024
 2000f74:	10887004 	addi	r2,r2,8640
 2000f78:	00c00044 	movi	r3,1
 2000f7c:	10c00005 	stb	r3,0(r2)
	KPLED_Load = 0;
 2000f80:	00810034 	movhi	r2,1024
 2000f84:	10887004 	addi	r2,r2,8640
 2000f88:	10000005 	stb	zero,0(r2)
}
 2000f8c:	e037883a 	mov	sp,fp
 2000f90:	df000017 	ldw	fp,0(sp)
 2000f94:	dec00104 	addi	sp,sp,4
 2000f98:	f800283a 	ret

02000f9c <KPLED_Numbers>:

void KPLED_Numbers(unsigned short b)
{
 2000f9c:	defffe04 	addi	sp,sp,-8
 2000fa0:	df000115 	stw	fp,4(sp)
 2000fa4:	df000104 	addi	fp,sp,4
 2000fa8:	2005883a 	mov	r2,r4
 2000fac:	e0bfff0d 	sth	r2,-4(fp)
	KPLED_Status_Buff = KPLED_Status_Buff & 0xfffc;
 2000fb0:	d0e0110b 	ldhu	r3,-32700(gp)
 2000fb4:	00bfff04 	movi	r2,-4
 2000fb8:	1884703a 	and	r2,r3,r2
 2000fbc:	d0a0110d 	sth	r2,-32700(gp)
	KPLED_Status_Buff = KPLED_Status_Buff | (b & 0x0003);
 2000fc0:	e0bfff0b 	ldhu	r2,-4(fp)
 2000fc4:	108000cc 	andi	r2,r2,3
 2000fc8:	1007883a 	mov	r3,r2
 2000fcc:	d0a0110b 	ldhu	r2,-32700(gp)
 2000fd0:	1884b03a 	or	r2,r3,r2
 2000fd4:	d0a0110d 	sth	r2,-32700(gp)
	KPLED_Status = KPLED_Status_Buff;
 2000fd8:	00810034 	movhi	r2,1024
 2000fdc:	10880004 	addi	r2,r2,8192
 2000fe0:	d0e0110b 	ldhu	r3,-32700(gp)
 2000fe4:	10c0000d 	sth	r3,0(r2)
	KPLED_Load = 0;
 2000fe8:	00810034 	movhi	r2,1024
 2000fec:	10887004 	addi	r2,r2,8640
 2000ff0:	10000005 	stb	zero,0(r2)
	KPLED_Load = 1;
 2000ff4:	00810034 	movhi	r2,1024
 2000ff8:	10887004 	addi	r2,r2,8640
 2000ffc:	00c00044 	movi	r3,1
 2001000:	10c00005 	stb	r3,0(r2)
	KPLED_Load = 0;
 2001004:	00810034 	movhi	r2,1024
 2001008:	10887004 	addi	r2,r2,8640
 200100c:	10000005 	stb	zero,0(r2)
}
 2001010:	e037883a 	mov	sp,fp
 2001014:	df000017 	ldw	fp,0(sp)
 2001018:	dec00104 	addi	sp,sp,4
 200101c:	f800283a 	ret

02001020 <KPLED_RightArrow>:

void KPLED_RightArrow(unsigned short b)
{
 2001020:	defffe04 	addi	sp,sp,-8
 2001024:	df000115 	stw	fp,4(sp)
 2001028:	df000104 	addi	fp,sp,4
 200102c:	2005883a 	mov	r2,r4
 2001030:	e0bfff0d 	sth	r2,-4(fp)
	KPLED_Status_Buff = KPLED_Status_Buff & 0xfff3;
 2001034:	d0e0110b 	ldhu	r3,-32700(gp)
 2001038:	00bffcc4 	movi	r2,-13
 200103c:	1884703a 	and	r2,r3,r2
 2001040:	d0a0110d 	sth	r2,-32700(gp)
	KPLED_Status_Buff = KPLED_Status_Buff | ((b & 0x0003)<<2);
 2001044:	e0bfff0b 	ldhu	r2,-4(fp)
 2001048:	108000cc 	andi	r2,r2,3
 200104c:	1085883a 	add	r2,r2,r2
 2001050:	1085883a 	add	r2,r2,r2
 2001054:	1007883a 	mov	r3,r2
 2001058:	d0a0110b 	ldhu	r2,-32700(gp)
 200105c:	1884b03a 	or	r2,r3,r2
 2001060:	d0a0110d 	sth	r2,-32700(gp)
	KPLED_Status = KPLED_Status_Buff;
 2001064:	00810034 	movhi	r2,1024
 2001068:	10880004 	addi	r2,r2,8192
 200106c:	d0e0110b 	ldhu	r3,-32700(gp)
 2001070:	10c0000d 	sth	r3,0(r2)
	KPLED_Load = 0;
 2001074:	00810034 	movhi	r2,1024
 2001078:	10887004 	addi	r2,r2,8640
 200107c:	10000005 	stb	zero,0(r2)
	KPLED_Load = 1;
 2001080:	00810034 	movhi	r2,1024
 2001084:	10887004 	addi	r2,r2,8640
 2001088:	00c00044 	movi	r3,1
 200108c:	10c00005 	stb	r3,0(r2)
	KPLED_Load = 0;
 2001090:	00810034 	movhi	r2,1024
 2001094:	10887004 	addi	r2,r2,8640
 2001098:	10000005 	stb	zero,0(r2)
}
 200109c:	e037883a 	mov	sp,fp
 20010a0:	df000017 	ldw	fp,0(sp)
 20010a4:	dec00104 	addi	sp,sp,4
 20010a8:	f800283a 	ret

020010ac <KPLED_LeftArrow>:

void KPLED_LeftArrow(unsigned short b)
{
 20010ac:	defffe04 	addi	sp,sp,-8
 20010b0:	df000115 	stw	fp,4(sp)
 20010b4:	df000104 	addi	fp,sp,4
 20010b8:	2005883a 	mov	r2,r4
 20010bc:	e0bfff0d 	sth	r2,-4(fp)
	KPLED_Status_Buff = KPLED_Status_Buff & 0xffcf;
 20010c0:	d0e0110b 	ldhu	r3,-32700(gp)
 20010c4:	00bff3c4 	movi	r2,-49
 20010c8:	1884703a 	and	r2,r3,r2
 20010cc:	d0a0110d 	sth	r2,-32700(gp)
	KPLED_Status_Buff = KPLED_Status_Buff | ((b & 0x0003)<<4);
 20010d0:	e0bfff0b 	ldhu	r2,-4(fp)
 20010d4:	108000cc 	andi	r2,r2,3
 20010d8:	1004913a 	slli	r2,r2,4
 20010dc:	1007883a 	mov	r3,r2
 20010e0:	d0a0110b 	ldhu	r2,-32700(gp)
 20010e4:	1884b03a 	or	r2,r3,r2
 20010e8:	d0a0110d 	sth	r2,-32700(gp)
	KPLED_Status = KPLED_Status_Buff;
 20010ec:	00810034 	movhi	r2,1024
 20010f0:	10880004 	addi	r2,r2,8192
 20010f4:	d0e0110b 	ldhu	r3,-32700(gp)
 20010f8:	10c0000d 	sth	r3,0(r2)
	KPLED_Load = 0;
 20010fc:	00810034 	movhi	r2,1024
 2001100:	10887004 	addi	r2,r2,8640
 2001104:	10000005 	stb	zero,0(r2)
	KPLED_Load = 1;
 2001108:	00810034 	movhi	r2,1024
 200110c:	10887004 	addi	r2,r2,8640
 2001110:	00c00044 	movi	r3,1
 2001114:	10c00005 	stb	r3,0(r2)
	KPLED_Load = 0;
 2001118:	00810034 	movhi	r2,1024
 200111c:	10887004 	addi	r2,r2,8640
 2001120:	10000005 	stb	zero,0(r2)
}
 2001124:	e037883a 	mov	sp,fp
 2001128:	df000017 	ldw	fp,0(sp)
 200112c:	dec00104 	addi	sp,sp,4
 2001130:	f800283a 	ret

02001134 <KPLED_Menu>:

void KPLED_Menu(unsigned short b)
{
 2001134:	defffe04 	addi	sp,sp,-8
 2001138:	df000115 	stw	fp,4(sp)
 200113c:	df000104 	addi	fp,sp,4
 2001140:	2005883a 	mov	r2,r4
 2001144:	e0bfff0d 	sth	r2,-4(fp)
	KPLED_Status_Buff = KPLED_Status_Buff & 0xff3f;
 2001148:	d0e0110b 	ldhu	r3,-32700(gp)
 200114c:	00bfcfc4 	movi	r2,-193
 2001150:	1884703a 	and	r2,r3,r2
 2001154:	d0a0110d 	sth	r2,-32700(gp)
	KPLED_Status_Buff = KPLED_Status_Buff | ((b & 0x0003)<<6);
 2001158:	e0bfff0b 	ldhu	r2,-4(fp)
 200115c:	100491ba 	slli	r2,r2,6
 2001160:	10803fcc 	andi	r2,r2,255
 2001164:	1007883a 	mov	r3,r2
 2001168:	d0a0110b 	ldhu	r2,-32700(gp)
 200116c:	1884b03a 	or	r2,r3,r2
 2001170:	d0a0110d 	sth	r2,-32700(gp)
	KPLED_Status = KPLED_Status_Buff;
 2001174:	00810034 	movhi	r2,1024
 2001178:	10880004 	addi	r2,r2,8192
 200117c:	d0e0110b 	ldhu	r3,-32700(gp)
 2001180:	10c0000d 	sth	r3,0(r2)
	KPLED_Load = 0;
 2001184:	00810034 	movhi	r2,1024
 2001188:	10887004 	addi	r2,r2,8640
 200118c:	10000005 	stb	zero,0(r2)
	KPLED_Load = 1;
 2001190:	00810034 	movhi	r2,1024
 2001194:	10887004 	addi	r2,r2,8640
 2001198:	00c00044 	movi	r3,1
 200119c:	10c00005 	stb	r3,0(r2)
	KPLED_Load = 0;
 20011a0:	00810034 	movhi	r2,1024
 20011a4:	10887004 	addi	r2,r2,8640
 20011a8:	10000005 	stb	zero,0(r2)
}
 20011ac:	e037883a 	mov	sp,fp
 20011b0:	df000017 	ldw	fp,0(sp)
 20011b4:	dec00104 	addi	sp,sp,4
 20011b8:	f800283a 	ret

020011bc <KPLED_Edit>:

void KPLED_Edit(unsigned short b)
{
 20011bc:	defffe04 	addi	sp,sp,-8
 20011c0:	df000115 	stw	fp,4(sp)
 20011c4:	df000104 	addi	fp,sp,4
 20011c8:	2005883a 	mov	r2,r4
 20011cc:	e0bfff0d 	sth	r2,-4(fp)
	KPLED_Status_Buff = KPLED_Status_Buff & 0xfcff;
 20011d0:	d0e0110b 	ldhu	r3,-32700(gp)
 20011d4:	00bf3fc4 	movi	r2,-769
 20011d8:	1884703a 	and	r2,r3,r2
 20011dc:	d0a0110d 	sth	r2,-32700(gp)
	KPLED_Status_Buff = KPLED_Status_Buff | ((b & 0x0003)<<8);
 20011e0:	e0bfff0b 	ldhu	r2,-4(fp)
 20011e4:	108000cc 	andi	r2,r2,3
 20011e8:	1004923a 	slli	r2,r2,8
 20011ec:	1007883a 	mov	r3,r2
 20011f0:	d0a0110b 	ldhu	r2,-32700(gp)
 20011f4:	1884b03a 	or	r2,r3,r2
 20011f8:	d0a0110d 	sth	r2,-32700(gp)
	KPLED_Status = KPLED_Status_Buff;
 20011fc:	00810034 	movhi	r2,1024
 2001200:	10880004 	addi	r2,r2,8192
 2001204:	d0e0110b 	ldhu	r3,-32700(gp)
 2001208:	10c0000d 	sth	r3,0(r2)
	KPLED_Load = 0;
 200120c:	00810034 	movhi	r2,1024
 2001210:	10887004 	addi	r2,r2,8640
 2001214:	10000005 	stb	zero,0(r2)
	KPLED_Load = 1;
 2001218:	00810034 	movhi	r2,1024
 200121c:	10887004 	addi	r2,r2,8640
 2001220:	00c00044 	movi	r3,1
 2001224:	10c00005 	stb	r3,0(r2)
	KPLED_Load = 0;
 2001228:	00810034 	movhi	r2,1024
 200122c:	10887004 	addi	r2,r2,8640
 2001230:	10000005 	stb	zero,0(r2)
}
 2001234:	e037883a 	mov	sp,fp
 2001238:	df000017 	ldw	fp,0(sp)
 200123c:	dec00104 	addi	sp,sp,4
 2001240:	f800283a 	ret

02001244 <KPLED_Enter>:

void KPLED_Enter(unsigned short b)
{
 2001244:	defffe04 	addi	sp,sp,-8
 2001248:	df000115 	stw	fp,4(sp)
 200124c:	df000104 	addi	fp,sp,4
 2001250:	2005883a 	mov	r2,r4
 2001254:	e0bfff0d 	sth	r2,-4(fp)
	KPLED_Status_Buff = KPLED_Status_Buff & 0xf3ff;
 2001258:	d0e0110b 	ldhu	r3,-32700(gp)
 200125c:	00bcffc4 	movi	r2,-3073
 2001260:	1884703a 	and	r2,r3,r2
 2001264:	d0a0110d 	sth	r2,-32700(gp)
	KPLED_Status_Buff = KPLED_Status_Buff | ((b & 0x0003)<<10);
 2001268:	e0bfff0b 	ldhu	r2,-4(fp)
 200126c:	108000cc 	andi	r2,r2,3
 2001270:	100492ba 	slli	r2,r2,10
 2001274:	1007883a 	mov	r3,r2
 2001278:	d0a0110b 	ldhu	r2,-32700(gp)
 200127c:	1884b03a 	or	r2,r3,r2
 2001280:	d0a0110d 	sth	r2,-32700(gp)
	KPLED_Status = KPLED_Status_Buff;
 2001284:	00810034 	movhi	r2,1024
 2001288:	10880004 	addi	r2,r2,8192
 200128c:	d0e0110b 	ldhu	r3,-32700(gp)
 2001290:	10c0000d 	sth	r3,0(r2)
	KPLED_Load = 0;
 2001294:	00810034 	movhi	r2,1024
 2001298:	10887004 	addi	r2,r2,8640
 200129c:	10000005 	stb	zero,0(r2)
	KPLED_Load = 1;
 20012a0:	00810034 	movhi	r2,1024
 20012a4:	10887004 	addi	r2,r2,8640
 20012a8:	00c00044 	movi	r3,1
 20012ac:	10c00005 	stb	r3,0(r2)
	KPLED_Load = 0;
 20012b0:	00810034 	movhi	r2,1024
 20012b4:	10887004 	addi	r2,r2,8640
 20012b8:	10000005 	stb	zero,0(r2)
}
 20012bc:	e037883a 	mov	sp,fp
 20012c0:	df000017 	ldw	fp,0(sp)
 20012c4:	dec00104 	addi	sp,sp,4
 20012c8:	f800283a 	ret

020012cc <KPLED_Enable>:

void KPLED_Enable(unsigned short b)
{
 20012cc:	defffe04 	addi	sp,sp,-8
 20012d0:	df000115 	stw	fp,4(sp)
 20012d4:	df000104 	addi	fp,sp,4
 20012d8:	2005883a 	mov	r2,r4
 20012dc:	e0bfff0d 	sth	r2,-4(fp)
	KPLED_Status_Buff = KPLED_Status_Buff & 0xcfff;
 20012e0:	d0e0110b 	ldhu	r3,-32700(gp)
 20012e4:	00b3ffc4 	movi	r2,-12289
 20012e8:	1884703a 	and	r2,r3,r2
 20012ec:	d0a0110d 	sth	r2,-32700(gp)
	KPLED_Status_Buff = KPLED_Status_Buff | ((b & 0x0003)<<12);
 20012f0:	e0bfff0b 	ldhu	r2,-4(fp)
 20012f4:	108000cc 	andi	r2,r2,3
 20012f8:	1004933a 	slli	r2,r2,12
 20012fc:	1007883a 	mov	r3,r2
 2001300:	d0a0110b 	ldhu	r2,-32700(gp)
 2001304:	1884b03a 	or	r2,r3,r2
 2001308:	d0a0110d 	sth	r2,-32700(gp)
	KPLED_Status = KPLED_Status_Buff;
 200130c:	00810034 	movhi	r2,1024
 2001310:	10880004 	addi	r2,r2,8192
 2001314:	d0e0110b 	ldhu	r3,-32700(gp)
 2001318:	10c0000d 	sth	r3,0(r2)
	KPLED_Load = 0;
 200131c:	00810034 	movhi	r2,1024
 2001320:	10887004 	addi	r2,r2,8640
 2001324:	10000005 	stb	zero,0(r2)
	KPLED_Load = 1;
 2001328:	00810034 	movhi	r2,1024
 200132c:	10887004 	addi	r2,r2,8640
 2001330:	00c00044 	movi	r3,1
 2001334:	10c00005 	stb	r3,0(r2)
	KPLED_Load = 0;
 2001338:	00810034 	movhi	r2,1024
 200133c:	10887004 	addi	r2,r2,8640
 2001340:	10000005 	stb	zero,0(r2)
}
 2001344:	e037883a 	mov	sp,fp
 2001348:	df000017 	ldw	fp,0(sp)
 200134c:	dec00104 	addi	sp,sp,4
 2001350:	f800283a 	ret

02001354 <KPLED_Fire>:

void KPLED_Fire(unsigned short b)
{
 2001354:	defffe04 	addi	sp,sp,-8
 2001358:	df000115 	stw	fp,4(sp)
 200135c:	df000104 	addi	fp,sp,4
 2001360:	2005883a 	mov	r2,r4
 2001364:	e0bfff0d 	sth	r2,-4(fp)
	KPLED_Status_Buff = KPLED_Status_Buff & 0x3fff;
 2001368:	d0a0110b 	ldhu	r2,-32700(gp)
 200136c:	108fffcc 	andi	r2,r2,16383
 2001370:	d0a0110d 	sth	r2,-32700(gp)
	KPLED_Status_Buff = KPLED_Status_Buff | ((b & 0x0003)<<14);
 2001374:	e0bfff0b 	ldhu	r2,-4(fp)
 2001378:	100493ba 	slli	r2,r2,14
 200137c:	1007883a 	mov	r3,r2
 2001380:	d0a0110b 	ldhu	r2,-32700(gp)
 2001384:	1884b03a 	or	r2,r3,r2
 2001388:	d0a0110d 	sth	r2,-32700(gp)
	KPLED_Status = KPLED_Status_Buff;
 200138c:	00810034 	movhi	r2,1024
 2001390:	10880004 	addi	r2,r2,8192
 2001394:	d0e0110b 	ldhu	r3,-32700(gp)
 2001398:	10c0000d 	sth	r3,0(r2)
	KPLED_Load = 0;
 200139c:	00810034 	movhi	r2,1024
 20013a0:	10887004 	addi	r2,r2,8640
 20013a4:	10000005 	stb	zero,0(r2)
	KPLED_Load = 1;
 20013a8:	00810034 	movhi	r2,1024
 20013ac:	10887004 	addi	r2,r2,8640
 20013b0:	00c00044 	movi	r3,1
 20013b4:	10c00005 	stb	r3,0(r2)
	KPLED_Load = 0;
 20013b8:	00810034 	movhi	r2,1024
 20013bc:	10887004 	addi	r2,r2,8640
 20013c0:	10000005 	stb	zero,0(r2)
}
 20013c4:	e037883a 	mov	sp,fp
 20013c8:	df000017 	ldw	fp,0(sp)
 20013cc:	dec00104 	addi	sp,sp,4
 20013d0:	f800283a 	ret

020013d4 <UartInit>:
#include "..\inc\sopc.h"
#include "..\inc\uart.h"
#include "..\inc\delay.h"

void UartInit()
{
 20013d4:	defffe04 	addi	sp,sp,-8
 20013d8:	dfc00115 	stw	ra,4(sp)
 20013dc:	df000015 	stw	fp,0(sp)
 20013e0:	d839883a 	mov	fp,sp
	uart.init();
 20013e4:	00808074 	movhi	r2,513
 20013e8:	109dc604 	addi	r2,r2,30488
 20013ec:	10803617 	ldw	r2,216(r2)
 20013f0:	103ee83a 	callr	r2
}
 20013f4:	e037883a 	mov	sp,fp
 20013f8:	dfc00117 	ldw	ra,4(sp)
 20013fc:	df000017 	ldw	fp,0(sp)
 2001400:	dec00204 	addi	sp,sp,8
 2001404:	f800283a 	ret

02001408 <WriteRAM32Bits>:

void WriteRAM32Bits(unsigned char address, unsigned int data)
{
 2001408:	defffa04 	addi	sp,sp,-24
 200140c:	dfc00515 	stw	ra,20(sp)
 2001410:	df000415 	stw	fp,16(sp)
 2001414:	df000404 	addi	fp,sp,16
 2001418:	2005883a 	mov	r2,r4
 200141c:	e17fff15 	stw	r5,-4(fp)
 2001420:	e0bffe05 	stb	r2,-8(fp)

	unsigned char byte0 = data & 0xFF;
 2001424:	e0bfff17 	ldw	r2,-4(fp)
 2001428:	e0bffc05 	stb	r2,-16(fp)
	unsigned char byte1 = data>>8 & 0xFF;
 200142c:	e0bfff17 	ldw	r2,-4(fp)
 2001430:	1004d23a 	srli	r2,r2,8
 2001434:	e0bffc45 	stb	r2,-15(fp)
	unsigned char byte2 = data>>16 & 0xFF;
 2001438:	e0bfff17 	ldw	r2,-4(fp)
 200143c:	1004d43a 	srli	r2,r2,16
 2001440:	e0bffc85 	stb	r2,-14(fp)
	unsigned char byte3 = data>>24 & 0xFF;
 2001444:	e0bfff17 	ldw	r2,-4(fp)
 2001448:	1004d63a 	srli	r2,r2,24
 200144c:	e0bffcc5 	stb	r2,-13(fp)
	[8] x				//Unused
	[9] 0x04			//End of transmission
	[10] 0x04
	*/

	unsigned char* message = (unsigned char*)"\x02Waxddddx\x04\x04";
 2001450:	00808074 	movhi	r2,513
 2001454:	10994e04 	addi	r2,r2,25912
 2001458:	e0bffd15 	stw	r2,-12(fp)

	message[2] = address*4;
 200145c:	e0bffd17 	ldw	r2,-12(fp)
 2001460:	10c00084 	addi	r3,r2,2
 2001464:	e0bffe03 	ldbu	r2,-8(fp)
 2001468:	1085883a 	add	r2,r2,r2
 200146c:	1085883a 	add	r2,r2,r2
 2001470:	18800005 	stb	r2,0(r3)
	message[4] = byte3;
 2001474:	e0bffd17 	ldw	r2,-12(fp)
 2001478:	10800104 	addi	r2,r2,4
 200147c:	e0fffcc3 	ldbu	r3,-13(fp)
 2001480:	10c00005 	stb	r3,0(r2)
	message[5] = byte2;
 2001484:	e0bffd17 	ldw	r2,-12(fp)
 2001488:	10800144 	addi	r2,r2,5
 200148c:	e0fffc83 	ldbu	r3,-14(fp)
 2001490:	10c00005 	stb	r3,0(r2)
	message[6] = byte1;
 2001494:	e0bffd17 	ldw	r2,-12(fp)
 2001498:	10800184 	addi	r2,r2,6
 200149c:	e0fffc43 	ldbu	r3,-15(fp)
 20014a0:	10c00005 	stb	r3,0(r2)
	message[7] = byte0;
 20014a4:	e0bffd17 	ldw	r2,-12(fp)
 20014a8:	108001c4 	addi	r2,r2,7
 20014ac:	e0fffc03 	ldbu	r3,-16(fp)
 20014b0:	10c00005 	stb	r3,0(r2)

	uart.send_string(11,message);
 20014b4:	00808074 	movhi	r2,513
 20014b8:	109dc604 	addi	r2,r2,30488
 20014bc:	10803517 	ldw	r2,212(r2)
 20014c0:	010002c4 	movi	r4,11
 20014c4:	e17ffd17 	ldw	r5,-12(fp)
 20014c8:	103ee83a 	callr	r2

}
 20014cc:	e037883a 	mov	sp,fp
 20014d0:	dfc00117 	ldw	ra,4(sp)
 20014d4:	df000017 	ldw	fp,0(sp)
 20014d8:	dec00204 	addi	sp,sp,8
 20014dc:	f800283a 	ret

020014e0 <ReadRAM32Bits>:




unsigned int ReadRAM32Bits(unsigned int address)
{
 20014e0:	defff604 	addi	sp,sp,-40
 20014e4:	dfc00915 	stw	ra,36(sp)
 20014e8:	df000815 	stw	fp,32(sp)
 20014ec:	df000804 	addi	fp,sp,32
 20014f0:	e13fff15 	stw	r4,-4(fp)
	[8] x				//Unused
	[9] 0x04			//End of transmission
	[10] 0x04
	*/

	unsigned char* message = (unsigned char*)"\x02Raxxxxxx\x04\x04";
 20014f4:	00808074 	movhi	r2,513
 20014f8:	10995104 	addi	r2,r2,25924
 20014fc:	e0bff815 	stw	r2,-32(fp)
	unsigned char* input = (unsigned char*)"*******";
 2001500:	00808074 	movhi	r2,513
 2001504:	10995404 	addi	r2,r2,25936
 2001508:	e0bff915 	stw	r2,-28(fp)
	message[2] = address*4;
 200150c:	e0bff817 	ldw	r2,-32(fp)
 2001510:	10c00084 	addi	r3,r2,2
 2001514:	e0bfff17 	ldw	r2,-4(fp)
 2001518:	1085883a 	add	r2,r2,r2
 200151c:	1085883a 	add	r2,r2,r2
 2001520:	18800005 	stb	r2,0(r3)

	uart.receive_count = 0;
 2001524:	00808074 	movhi	r2,513
 2001528:	109dc604 	addi	r2,r2,30488
 200152c:	10000115 	stw	zero,4(r2)
	uart.receive_flag = 0;
 2001530:	00808074 	movhi	r2,513
 2001534:	109dc604 	addi	r2,r2,30488
 2001538:	10000015 	stw	zero,0(r2)

	uart.send_string(11,message);
 200153c:	00808074 	movhi	r2,513
 2001540:	109dc604 	addi	r2,r2,30488
 2001544:	10803517 	ldw	r2,212(r2)
 2001548:	010002c4 	movi	r4,11
 200154c:	e17ff817 	ldw	r5,-32(fp)
 2001550:	103ee83a 	callr	r2

	while(! uart.receive_flag);
 2001554:	0001883a 	nop
 2001558:	00808074 	movhi	r2,513
 200155c:	109dc604 	addi	r2,r2,30488
 2001560:	10800017 	ldw	r2,0(r2)
 2001564:	103ffc26 	beq	r2,zero,2001558 <ReadRAM32Bits+0x78>

	input[0] = uart.receive_buffer[0];
 2001568:	00808074 	movhi	r2,513
 200156c:	109dc604 	addi	r2,r2,30488
 2001570:	10c00203 	ldbu	r3,8(r2)
 2001574:	e0bff917 	ldw	r2,-28(fp)
 2001578:	10c00005 	stb	r3,0(r2)
	input[1] = uart.receive_buffer[1];
 200157c:	e0bff917 	ldw	r2,-28(fp)
 2001580:	10800044 	addi	r2,r2,1
 2001584:	00c08074 	movhi	r3,513
 2001588:	18ddc604 	addi	r3,r3,30488
 200158c:	18c00243 	ldbu	r3,9(r3)
 2001590:	10c00005 	stb	r3,0(r2)
	input[2] = uart.receive_buffer[2];
 2001594:	e0bff917 	ldw	r2,-28(fp)
 2001598:	10800084 	addi	r2,r2,2
 200159c:	00c08074 	movhi	r3,513
 20015a0:	18ddc604 	addi	r3,r3,30488
 20015a4:	18c00283 	ldbu	r3,10(r3)
 20015a8:	10c00005 	stb	r3,0(r2)
	input[3] = uart.receive_buffer[3];
 20015ac:	e0bff917 	ldw	r2,-28(fp)
 20015b0:	108000c4 	addi	r2,r2,3
 20015b4:	00c08074 	movhi	r3,513
 20015b8:	18ddc604 	addi	r3,r3,30488
 20015bc:	18c002c3 	ldbu	r3,11(r3)
 20015c0:	10c00005 	stb	r3,0(r2)
	input[4] = uart.receive_buffer[4];
 20015c4:	e0bff917 	ldw	r2,-28(fp)
 20015c8:	10800104 	addi	r2,r2,4
 20015cc:	00c08074 	movhi	r3,513
 20015d0:	18ddc604 	addi	r3,r3,30488
 20015d4:	18c00303 	ldbu	r3,12(r3)
 20015d8:	10c00005 	stb	r3,0(r2)
	input[5] = uart.receive_buffer[5];
 20015dc:	e0bff917 	ldw	r2,-28(fp)
 20015e0:	10800144 	addi	r2,r2,5
 20015e4:	00c08074 	movhi	r3,513
 20015e8:	18ddc604 	addi	r3,r3,30488
 20015ec:	18c00343 	ldbu	r3,13(r3)
 20015f0:	10c00005 	stb	r3,0(r2)
	input[6] = uart.receive_buffer[6];
 20015f4:	e0bff917 	ldw	r2,-28(fp)
 20015f8:	10800184 	addi	r2,r2,6
 20015fc:	00c08074 	movhi	r3,513
 2001600:	18ddc604 	addi	r3,r3,30488
 2001604:	18c00383 	ldbu	r3,14(r3)
 2001608:	10c00005 	stb	r3,0(r2)
    //printf("%s",input);
	uart.receive_flag = 0;
 200160c:	00808074 	movhi	r2,513
 2001610:	109dc604 	addi	r2,r2,30488
 2001614:	10000015 	stw	zero,0(r2)

	unsigned int byte0 = input[2];
 2001618:	e0bff917 	ldw	r2,-28(fp)
 200161c:	10800084 	addi	r2,r2,2
 2001620:	10800003 	ldbu	r2,0(r2)
 2001624:	10803fcc 	andi	r2,r2,255
 2001628:	e0bffa15 	stw	r2,-24(fp)
	unsigned int byte1 = input[3] << 8;
 200162c:	e0bff917 	ldw	r2,-28(fp)
 2001630:	108000c4 	addi	r2,r2,3
 2001634:	10800003 	ldbu	r2,0(r2)
 2001638:	10803fcc 	andi	r2,r2,255
 200163c:	1004923a 	slli	r2,r2,8
 2001640:	e0bffb15 	stw	r2,-20(fp)
	unsigned int byte2 = input[4] << 16;
 2001644:	e0bff917 	ldw	r2,-28(fp)
 2001648:	10800104 	addi	r2,r2,4
 200164c:	10800003 	ldbu	r2,0(r2)
 2001650:	10803fcc 	andi	r2,r2,255
 2001654:	1004943a 	slli	r2,r2,16
 2001658:	e0bffc15 	stw	r2,-16(fp)
	unsigned int byte3 = input[5] << 24;
 200165c:	e0bff917 	ldw	r2,-28(fp)
 2001660:	10800144 	addi	r2,r2,5
 2001664:	10800003 	ldbu	r2,0(r2)
 2001668:	10803fcc 	andi	r2,r2,255
 200166c:	1004963a 	slli	r2,r2,24
 2001670:	e0bffd15 	stw	r2,-12(fp)

	unsigned int data = byte0 + byte1 + byte2 + byte3;
 2001674:	e0fffa17 	ldw	r3,-24(fp)
 2001678:	e0bffb17 	ldw	r2,-20(fp)
 200167c:	1887883a 	add	r3,r3,r2
 2001680:	e0bffc17 	ldw	r2,-16(fp)
 2001684:	1887883a 	add	r3,r3,r2
 2001688:	e0bffd17 	ldw	r2,-12(fp)
 200168c:	1885883a 	add	r2,r3,r2
 2001690:	e0bffe15 	stw	r2,-8(fp)
	return data;
 2001694:	e0bffe17 	ldw	r2,-8(fp)
}
 2001698:	e037883a 	mov	sp,fp
 200169c:	dfc00117 	ldw	ra,4(sp)
 20016a0:	df000017 	ldw	fp,0(sp)
 20016a4:	dec00204 	addi	sp,sp,8
 20016a8:	f800283a 	ret

020016ac <WriteEEPROM8Bits>:
	time.sleep(0.1)
	return
 */

void WriteEEPROM8Bits(unsigned char address, unsigned char data)
{
 20016ac:	defffb04 	addi	sp,sp,-20
 20016b0:	dfc00415 	stw	ra,16(sp)
 20016b4:	df000315 	stw	fp,12(sp)
 20016b8:	df000304 	addi	fp,sp,12
 20016bc:	2007883a 	mov	r3,r4
 20016c0:	2805883a 	mov	r2,r5
 20016c4:	e0fffe05 	stb	r3,-8(fp)
 20016c8:	e0bfff05 	stb	r2,-4(fp)
	//unsigned char byte0 = data & 0xFF;

	unsigned char* message = (unsigned char*)"\x02waxdxxxx\x04\x04";
 20016cc:	00808074 	movhi	r2,513
 20016d0:	10995604 	addi	r2,r2,25944
 20016d4:	e0bffd15 	stw	r2,-12(fp)

	message[2] = address;
 20016d8:	e0bffd17 	ldw	r2,-12(fp)
 20016dc:	10800084 	addi	r2,r2,2
 20016e0:	e0fffe03 	ldbu	r3,-8(fp)
 20016e4:	10c00005 	stb	r3,0(r2)
	message[4] = data;
 20016e8:	e0bffd17 	ldw	r2,-12(fp)
 20016ec:	10800104 	addi	r2,r2,4
 20016f0:	e0ffff03 	ldbu	r3,-4(fp)
 20016f4:	10c00005 	stb	r3,0(r2)

	uart.send_string(11,message);
 20016f8:	00808074 	movhi	r2,513
 20016fc:	109dc604 	addi	r2,r2,30488
 2001700:	10803517 	ldw	r2,212(r2)
 2001704:	010002c4 	movi	r4,11
 2001708:	e17ffd17 	ldw	r5,-12(fp)
 200170c:	103ee83a 	callr	r2
	//delay(1000);
}
 2001710:	e037883a 	mov	sp,fp
 2001714:	dfc00117 	ldw	ra,4(sp)
 2001718:	df000017 	ldw	fp,0(sp)
 200171c:	dec00204 	addi	sp,sp,8
 2001720:	f800283a 	ret

02001724 <WriteEEPROM32Bits>:
	WriteEEPROM8Bits(port_name,address+2,char3)
	WriteEEPROM8Bits(port_name,address+3,char4)
	return
 */
void WriteEEPROM32Bits(unsigned char address, unsigned int data)
{
 2001724:	defffa04 	addi	sp,sp,-24
 2001728:	dfc00515 	stw	ra,20(sp)
 200172c:	df000415 	stw	fp,16(sp)
 2001730:	df000404 	addi	fp,sp,16
 2001734:	2005883a 	mov	r2,r4
 2001738:	e17fff15 	stw	r5,-4(fp)
 200173c:	e0bffe05 	stb	r2,-8(fp)
	unsigned char address_new = address*4;
 2001740:	e0bffe03 	ldbu	r2,-8(fp)
 2001744:	1085883a 	add	r2,r2,r2
 2001748:	1085883a 	add	r2,r2,r2
 200174c:	e0bffc05 	stb	r2,-16(fp)

	unsigned char byte0 = data & 0xFF;
 2001750:	e0bfff17 	ldw	r2,-4(fp)
 2001754:	e0bffc45 	stb	r2,-15(fp)
	unsigned char byte1 = data>>8 & 0xFF;
 2001758:	e0bfff17 	ldw	r2,-4(fp)
 200175c:	1004d23a 	srli	r2,r2,8
 2001760:	e0bffc85 	stb	r2,-14(fp)
	unsigned char byte2 = data>>16 & 0xFF;
 2001764:	e0bfff17 	ldw	r2,-4(fp)
 2001768:	1004d43a 	srli	r2,r2,16
 200176c:	e0bffcc5 	stb	r2,-13(fp)
	unsigned char byte3 = data>>24 & 0xFF;
 2001770:	e0bfff17 	ldw	r2,-4(fp)
 2001774:	1004d63a 	srli	r2,r2,24
 2001778:	e0bffd05 	stb	r2,-12(fp)

	WriteEEPROM8Bits(address_new,byte3);
 200177c:	e0fffc03 	ldbu	r3,-16(fp)
 2001780:	e0bffd03 	ldbu	r2,-12(fp)
 2001784:	1809883a 	mov	r4,r3
 2001788:	100b883a 	mov	r5,r2
 200178c:	20016ac0 	call	20016ac <WriteEEPROM8Bits>
	WriteEEPROM8Bits(address_new+1,byte2);
 2001790:	e0bffc03 	ldbu	r2,-16(fp)
 2001794:	10800044 	addi	r2,r2,1
 2001798:	10c03fcc 	andi	r3,r2,255
 200179c:	e0bffcc3 	ldbu	r2,-13(fp)
 20017a0:	1809883a 	mov	r4,r3
 20017a4:	100b883a 	mov	r5,r2
 20017a8:	20016ac0 	call	20016ac <WriteEEPROM8Bits>
	WriteEEPROM8Bits(address_new+2,byte1);
 20017ac:	e0bffc03 	ldbu	r2,-16(fp)
 20017b0:	10800084 	addi	r2,r2,2
 20017b4:	10c03fcc 	andi	r3,r2,255
 20017b8:	e0bffc83 	ldbu	r2,-14(fp)
 20017bc:	1809883a 	mov	r4,r3
 20017c0:	100b883a 	mov	r5,r2
 20017c4:	20016ac0 	call	20016ac <WriteEEPROM8Bits>
	WriteEEPROM8Bits(address_new+3,byte0);
 20017c8:	e0bffc03 	ldbu	r2,-16(fp)
 20017cc:	108000c4 	addi	r2,r2,3
 20017d0:	10c03fcc 	andi	r3,r2,255
 20017d4:	e0bffc43 	ldbu	r2,-15(fp)
 20017d8:	1809883a 	mov	r4,r3
 20017dc:	100b883a 	mov	r5,r2
 20017e0:	20016ac0 	call	20016ac <WriteEEPROM8Bits>

}
 20017e4:	e037883a 	mov	sp,fp
 20017e8:	dfc00117 	ldw	ra,4(sp)
 20017ec:	df000017 	ldw	fp,0(sp)
 20017f0:	dec00204 	addi	sp,sp,8
 20017f4:	f800283a 	ret

020017f8 <Fire>:

void Fire()
{
 20017f8:	defffd04 	addi	sp,sp,-12
 20017fc:	dfc00215 	stw	ra,8(sp)
 2001800:	df000115 	stw	fp,4(sp)
 2001804:	df000104 	addi	fp,sp,4
	unsigned char* message = (unsigned char*)"\x02\x46xxxxxxx\x04\x04";
 2001808:	00808074 	movhi	r2,513
 200180c:	10995904 	addi	r2,r2,25956
 2001810:	e0bfff15 	stw	r2,-4(fp)

	uart.send_string(11,message);
 2001814:	00808074 	movhi	r2,513
 2001818:	109dc604 	addi	r2,r2,30488
 200181c:	10803517 	ldw	r2,212(r2)
 2001820:	010002c4 	movi	r4,11
 2001824:	e17fff17 	ldw	r5,-4(fp)
 2001828:	103ee83a 	callr	r2
}
 200182c:	e037883a 	mov	sp,fp
 2001830:	dfc00117 	ldw	ra,4(sp)
 2001834:	df000017 	ldw	fp,0(sp)
 2001838:	dec00204 	addi	sp,sp,8
 200183c:	f800283a 	ret

02001840 <Stop>:

void Stop()
{
 2001840:	defffd04 	addi	sp,sp,-12
 2001844:	dfc00215 	stw	ra,8(sp)
 2001848:	df000115 	stw	fp,4(sp)
 200184c:	df000104 	addi	fp,sp,4
	unsigned char* message = (unsigned char*)"\x02Sxxxxxxx\x04\x04";
 2001850:	00808074 	movhi	r2,513
 2001854:	10995c04 	addi	r2,r2,25968
 2001858:	e0bfff15 	stw	r2,-4(fp)
	uart.send_string(11,message);
 200185c:	00808074 	movhi	r2,513
 2001860:	109dc604 	addi	r2,r2,30488
 2001864:	10803517 	ldw	r2,212(r2)
 2001868:	010002c4 	movi	r4,11
 200186c:	e17fff17 	ldw	r5,-4(fp)
 2001870:	103ee83a 	callr	r2
}
 2001874:	e037883a 	mov	sp,fp
 2001878:	dfc00117 	ldw	ra,4(sp)
 200187c:	df000017 	ldw	fp,0(sp)
 2001880:	dec00204 	addi	sp,sp,8
 2001884:	f800283a 	ret

02001888 <ResetRAMFromEEPROM>:

void ResetRAMFromEEPROM()
{
 2001888:	defffd04 	addi	sp,sp,-12
 200188c:	dfc00215 	stw	ra,8(sp)
 2001890:	df000115 	stw	fp,4(sp)
 2001894:	df000104 	addi	fp,sp,4
	unsigned char* message = (unsigned char*)"\x02\x45xxxxxxx\x04\x04";
 2001898:	00808074 	movhi	r2,513
 200189c:	10995f04 	addi	r2,r2,25980
 20018a0:	e0bfff15 	stw	r2,-4(fp)
	uart.send_string(11,message);
 20018a4:	00808074 	movhi	r2,513
 20018a8:	109dc604 	addi	r2,r2,30488
 20018ac:	10803517 	ldw	r2,212(r2)
 20018b0:	010002c4 	movi	r4,11
 20018b4:	e17fff17 	ldw	r5,-4(fp)
 20018b8:	103ee83a 	callr	r2
	delay(40000);
 20018bc:	01271014 	movui	r4,40000
 20018c0:	20019dc0 	call	20019dc <delay>
}
 20018c4:	e037883a 	mov	sp,fp
 20018c8:	dfc00117 	ldw	ra,4(sp)
 20018cc:	df000017 	ldw	fp,0(sp)
 20018d0:	dec00204 	addi	sp,sp,8
 20018d4:	f800283a 	ret

020018d8 <showCoverPage>:
/*
 * Display the cover page (welcome screen).
 */

void showCoverPage()
{
 20018d8:	defffd04 	addi	sp,sp,-12
 20018dc:	dfc00215 	stw	ra,8(sp)
 20018e0:	df000115 	stw	fp,4(sp)
 20018e4:	df000104 	addi	fp,sp,4
	DisClear();
 20018e8:	20006780 	call	2000678 <DisClear>
	DisShowCur(0);
 20018ec:	0009883a 	mov	r4,zero
 20018f0:	20004fc0 	call	20004fc <DisShowCur>
	DisCurPos(2,1);
 20018f4:	01000084 	movi	r4,2
 20018f8:	01400044 	movi	r5,1
 20018fc:	20005400 	call	2000540 <DisCurPos>
	//        12345678901234567890
	DisWrStr("  Soft X-Ray Laser  ");
 2001900:	01008074 	movhi	r4,513
 2001904:	21196204 	addi	r4,r4,25992
 2001908:	20006000 	call	2000600 <DisWrStr>
	DisCurPos(3,1);
 200190c:	010000c4 	movi	r4,3
 2001910:	01400044 	movi	r5,1
 2001914:	20005400 	call	2000540 <DisCurPos>
	DisWrStr("Press MENU to Start");
 2001918:	01008074 	movhi	r4,513
 200191c:	21196804 	addi	r4,r4,26016
 2001920:	20006000 	call	2000600 <DisWrStr>
	printf("Engr: %d",ENGR_MODE);
 2001924:	01008074 	movhi	r4,513
 2001928:	21196d04 	addi	r4,r4,26036
 200192c:	01400044 	movi	r5,1
 2001930:	20099380 	call	2009938 <printf>
	if(ENGR_MODE)
	{
		DisCurPos(4,1);
 2001934:	01000104 	movi	r4,4
 2001938:	01400044 	movi	r5,1
 200193c:	20005400 	call	2000540 <DisCurPos>
		DisWrStr("  !!!ENGR_MODE!!!   ");
 2001940:	01008074 	movhi	r4,513
 2001944:	21197004 	addi	r4,r4,26048
 2001948:	20006000 	call	2000600 <DisWrStr>
	}

	KPLED_All_Off();
 200194c:	2000f400 	call	2000f40 <KPLED_All_Off>
	KPLED_Menu(3);
 2001950:	010000c4 	movi	r4,3
 2001954:	20011340 	call	2001134 <KPLED_Menu>
 2001958:	00000106 	br	2001960 <showCoverPage+0x88>
					while(keyFlag);
					return;
				}
			}
		}
	}
 200195c:	0001883a 	nop
	KPLED_Menu(3);

	unsigned char keyVal_latch;
	while(1)
	{
		if(keyFlag)
 2001960:	00810034 	movhi	r2,1024
 2001964:	10889804 	addi	r2,r2,8800
 2001968:	10800003 	ldbu	r2,0(r2)
 200196c:	10803fcc 	andi	r2,r2,255
 2001970:	103ffa26 	beq	r2,zero,200195c <showCoverPage+0x84>
		{
			delay(100);
 2001974:	01001904 	movi	r4,100
 2001978:	20019dc0 	call	20019dc <delay>
			if(keyFlag)
 200197c:	00810034 	movhi	r2,1024
 2001980:	10889804 	addi	r2,r2,8800
 2001984:	10800003 	ldbu	r2,0(r2)
 2001988:	10803fcc 	andi	r2,r2,255
 200198c:	103ff326 	beq	r2,zero,200195c <showCoverPage+0x84>
			{
				keyVal_latch = keyVal;
 2001990:	00810034 	movhi	r2,1024
 2001994:	10889404 	addi	r2,r2,8784
 2001998:	10800003 	ldbu	r2,0(r2)
 200199c:	e0bfff05 	stb	r2,-4(fp)
				if(keyVal_latch==KEY_MENU)
 20019a0:	e0bfff03 	ldbu	r2,-4(fp)
 20019a4:	10800318 	cmpnei	r2,r2,12
 20019a8:	103fec1e 	bne	r2,zero,200195c <showCoverPage+0x84>
				{
					while(keyFlag);
 20019ac:	0001883a 	nop
 20019b0:	00810034 	movhi	r2,1024
 20019b4:	10889804 	addi	r2,r2,8800
 20019b8:	10800003 	ldbu	r2,0(r2)
 20019bc:	10803fcc 	andi	r2,r2,255
 20019c0:	103ffb1e 	bne	r2,zero,20019b0 <showCoverPage+0xd8>
					return;
 20019c4:	0001883a 	nop
				}
			}
		}
	}
}
 20019c8:	e037883a 	mov	sp,fp
 20019cc:	dfc00117 	ldw	ra,4(sp)
 20019d0:	df000017 	ldw	fp,0(sp)
 20019d4:	dec00204 	addi	sp,sp,8
 20019d8:	f800283a 	ret

020019dc <delay>:
void delay(int n)
{
 20019dc:	defffc04 	addi	sp,sp,-16
 20019e0:	df000315 	stw	fp,12(sp)
 20019e4:	df000304 	addi	fp,sp,12
 20019e8:	e13fff15 	stw	r4,-4(fp)
	int i = 0;
 20019ec:	e03ffd15 	stw	zero,-12(fp)
	int j;
	while(i<n)
 20019f0:	00000b06 	br	2001a20 <delay+0x44>
	{
		j = 0;
 20019f4:	e03ffe15 	stw	zero,-8(fp)
		while(j<10)
 20019f8:	00000306 	br	2001a08 <delay+0x2c>
			j++;
 20019fc:	e0bffe17 	ldw	r2,-8(fp)
 2001a00:	10800044 	addi	r2,r2,1
 2001a04:	e0bffe15 	stw	r2,-8(fp)
	int i = 0;
	int j;
	while(i<n)
	{
		j = 0;
		while(j<10)
 2001a08:	e0bffe17 	ldw	r2,-8(fp)
 2001a0c:	10800290 	cmplti	r2,r2,10
 2001a10:	103ffa1e 	bne	r2,zero,20019fc <delay+0x20>
			j++;
		i++;
 2001a14:	e0bffd17 	ldw	r2,-12(fp)
 2001a18:	10800044 	addi	r2,r2,1
 2001a1c:	e0bffd15 	stw	r2,-12(fp)
void delay(int n)
{
	int i = 0;
	int j;
	while(i<n)
 2001a20:	e0fffd17 	ldw	r3,-12(fp)
 2001a24:	e0bfff17 	ldw	r2,-4(fp)
 2001a28:	18bff216 	blt	r3,r2,20019f4 <delay+0x18>
		j = 0;
		while(j<10)
			j++;
		i++;
	}
}
 2001a2c:	e037883a 	mov	sp,fp
 2001a30:	df000017 	ldw	fp,0(sp)
 2001a34:	dec00104 	addi	sp,sp,4
 2001a38:	f800283a 	ret

02001a3c <loadData>:
#include "..\inc\comInterface.h"
#include "..\inc\config.h"
#include "..\inc\FRAM.h"

void loadData()
{
 2001a3c:	defffe04 	addi	sp,sp,-8
 2001a40:	dfc00115 	stw	ra,4(sp)
 2001a44:	df000015 	stw	fp,0(sp)
 2001a48:	d839883a 	mov	fp,sp
	ResetRAMFromEEPROM();
 2001a4c:	20018880 	call	2001888 <ResetRAMFromEEPROM>
	return;
 2001a50:	0001883a 	nop
}
 2001a54:	e037883a 	mov	sp,fp
 2001a58:	dfc00117 	ldw	ra,4(sp)
 2001a5c:	df000017 	ldw	fp,0(sp)
 2001a60:	dec00204 	addi	sp,sp,8
 2001a64:	f800283a 	ret

02001a68 <LoadRAMRepRate>:

unsigned int LoadRAMRepRate()
{
 2001a68:	defffe04 	addi	sp,sp,-8
 2001a6c:	dfc00115 	stw	ra,4(sp)
 2001a70:	df000015 	stw	fp,0(sp)
 2001a74:	d839883a 	mov	fp,sp
	return ReadRAM32Bits(1);
 2001a78:	01000044 	movi	r4,1
 2001a7c:	20014e00 	call	20014e0 <ReadRAM32Bits>
}
 2001a80:	e037883a 	mov	sp,fp
 2001a84:	dfc00117 	ldw	ra,4(sp)
 2001a88:	df000017 	ldw	fp,0(sp)
 2001a8c:	dec00204 	addi	sp,sp,8
 2001a90:	f800283a 	ret

02001a94 <LoadRAMShots>:

unsigned int LoadRAMShots()
{
 2001a94:	defffe04 	addi	sp,sp,-8
 2001a98:	dfc00115 	stw	ra,4(sp)
 2001a9c:	df000015 	stw	fp,0(sp)
 2001aa0:	d839883a 	mov	fp,sp
	return ReadRAM32Bits(2);
 2001aa4:	01000084 	movi	r4,2
 2001aa8:	20014e00 	call	20014e0 <ReadRAM32Bits>
}
 2001aac:	e037883a 	mov	sp,fp
 2001ab0:	dfc00117 	ldw	ra,4(sp)
 2001ab4:	df000017 	ldw	fp,0(sp)
 2001ab8:	dec00204 	addi	sp,sp,8
 2001abc:	f800283a 	ret

02001ac0 <LoadRAMStartTime>:

unsigned int LoadRAMStartTime(unsigned char chnl)
{
 2001ac0:	defffd04 	addi	sp,sp,-12
 2001ac4:	dfc00215 	stw	ra,8(sp)
 2001ac8:	df000115 	stw	fp,4(sp)
 2001acc:	df000104 	addi	fp,sp,4
 2001ad0:	2005883a 	mov	r2,r4
 2001ad4:	e0bfff05 	stb	r2,-4(fp)
	return ReadRAM32Bits(1+chnl*2);
 2001ad8:	e0bfff03 	ldbu	r2,-4(fp)
 2001adc:	1085883a 	add	r2,r2,r2
 2001ae0:	10800044 	addi	r2,r2,1
 2001ae4:	1009883a 	mov	r4,r2
 2001ae8:	20014e00 	call	20014e0 <ReadRAM32Bits>
}
 2001aec:	e037883a 	mov	sp,fp
 2001af0:	dfc00117 	ldw	ra,4(sp)
 2001af4:	df000017 	ldw	fp,0(sp)
 2001af8:	dec00204 	addi	sp,sp,8
 2001afc:	f800283a 	ret

02001b00 <LoadRAMEndTime>:

unsigned int LoadRAMEndTime(unsigned char chnl)
{
 2001b00:	defffd04 	addi	sp,sp,-12
 2001b04:	dfc00215 	stw	ra,8(sp)
 2001b08:	df000115 	stw	fp,4(sp)
 2001b0c:	df000104 	addi	fp,sp,4
 2001b10:	2005883a 	mov	r2,r4
 2001b14:	e0bfff05 	stb	r2,-4(fp)
	return ReadRAM32Bits(2+chnl*2);
 2001b18:	e0bfff03 	ldbu	r2,-4(fp)
 2001b1c:	10800044 	addi	r2,r2,1
 2001b20:	1085883a 	add	r2,r2,r2
 2001b24:	1009883a 	mov	r4,r2
 2001b28:	20014e00 	call	20014e0 <ReadRAM32Bits>
}
 2001b2c:	e037883a 	mov	sp,fp
 2001b30:	dfc00117 	ldw	ra,4(sp)
 2001b34:	df000017 	ldw	fp,0(sp)
 2001b38:	dec00204 	addi	sp,sp,8
 2001b3c:	f800283a 	ret

02001b40 <LoadCounter0Init>:

unsigned int LoadCounter0Init()
{
 2001b40:	defffe04 	addi	sp,sp,-8
 2001b44:	dfc00115 	stw	ra,4(sp)
 2001b48:	df000015 	stw	fp,0(sp)
 2001b4c:	d839883a 	mov	fp,sp
	return FRAM_Read32Bits(COUNTER_0_ADDR);
 2001b50:	01000544 	movi	r4,21
 2001b54:	2000c880 	call	2000c88 <FRAM_Read32Bits>
}
 2001b58:	e037883a 	mov	sp,fp
 2001b5c:	dfc00117 	ldw	ra,4(sp)
 2001b60:	df000017 	ldw	fp,0(sp)
 2001b64:	dec00204 	addi	sp,sp,8
 2001b68:	f800283a 	ret

02001b6c <LoadCounter1Init>:

unsigned int LoadCounter1Init()
{
 2001b6c:	defffe04 	addi	sp,sp,-8
 2001b70:	dfc00115 	stw	ra,4(sp)
 2001b74:	df000015 	stw	fp,0(sp)
 2001b78:	d839883a 	mov	fp,sp
	return FRAM_Read32Bits(COUNTER_1_ADDR);
 2001b7c:	01000584 	movi	r4,22
 2001b80:	2000c880 	call	2000c88 <FRAM_Read32Bits>
}
 2001b84:	e037883a 	mov	sp,fp
 2001b88:	dfc00117 	ldw	ra,4(sp)
 2001b8c:	df000017 	ldw	fp,0(sp)
 2001b90:	dec00204 	addi	sp,sp,8
 2001b94:	f800283a 	ret

02001b98 <WriteRAMRepRate>:


void WriteRAMRepRate(unsigned int data)
{
 2001b98:	defffd04 	addi	sp,sp,-12
 2001b9c:	dfc00215 	stw	ra,8(sp)
 2001ba0:	df000115 	stw	fp,4(sp)
 2001ba4:	df000104 	addi	fp,sp,4
 2001ba8:	e13fff15 	stw	r4,-4(fp)
	WriteRAM32Bits(1,data);
 2001bac:	01000044 	movi	r4,1
 2001bb0:	e17fff17 	ldw	r5,-4(fp)
 2001bb4:	20014080 	call	2001408 <WriteRAM32Bits>
}
 2001bb8:	e037883a 	mov	sp,fp
 2001bbc:	dfc00117 	ldw	ra,4(sp)
 2001bc0:	df000017 	ldw	fp,0(sp)
 2001bc4:	dec00204 	addi	sp,sp,8
 2001bc8:	f800283a 	ret

02001bcc <WriteRAMShots>:

void WriteRAMShots(unsigned int data)
{
 2001bcc:	defffd04 	addi	sp,sp,-12
 2001bd0:	dfc00215 	stw	ra,8(sp)
 2001bd4:	df000115 	stw	fp,4(sp)
 2001bd8:	df000104 	addi	fp,sp,4
 2001bdc:	e13fff15 	stw	r4,-4(fp)
	WriteRAM32Bits(2,data);
 2001be0:	01000084 	movi	r4,2
 2001be4:	e17fff17 	ldw	r5,-4(fp)
 2001be8:	20014080 	call	2001408 <WriteRAM32Bits>
}
 2001bec:	e037883a 	mov	sp,fp
 2001bf0:	dfc00117 	ldw	ra,4(sp)
 2001bf4:	df000017 	ldw	fp,0(sp)
 2001bf8:	dec00204 	addi	sp,sp,8
 2001bfc:	f800283a 	ret

02001c00 <WriteRAMStartTime>:

void WriteRAMStartTime(unsigned char chnl, unsigned int data)
{
 2001c00:	defffc04 	addi	sp,sp,-16
 2001c04:	dfc00315 	stw	ra,12(sp)
 2001c08:	df000215 	stw	fp,8(sp)
 2001c0c:	df000204 	addi	fp,sp,8
 2001c10:	2005883a 	mov	r2,r4
 2001c14:	e17fff15 	stw	r5,-4(fp)
 2001c18:	e0bffe05 	stb	r2,-8(fp)
	WriteRAM32Bits(1+chnl*2,data);
 2001c1c:	e0bffe03 	ldbu	r2,-8(fp)
 2001c20:	1085883a 	add	r2,r2,r2
 2001c24:	10800044 	addi	r2,r2,1
 2001c28:	10803fcc 	andi	r2,r2,255
 2001c2c:	1009883a 	mov	r4,r2
 2001c30:	e17fff17 	ldw	r5,-4(fp)
 2001c34:	20014080 	call	2001408 <WriteRAM32Bits>
}
 2001c38:	e037883a 	mov	sp,fp
 2001c3c:	dfc00117 	ldw	ra,4(sp)
 2001c40:	df000017 	ldw	fp,0(sp)
 2001c44:	dec00204 	addi	sp,sp,8
 2001c48:	f800283a 	ret

02001c4c <WriteRAMEndTime>:

void WriteRAMEndTime(unsigned char chnl, unsigned int data)
{
 2001c4c:	defffc04 	addi	sp,sp,-16
 2001c50:	dfc00315 	stw	ra,12(sp)
 2001c54:	df000215 	stw	fp,8(sp)
 2001c58:	df000204 	addi	fp,sp,8
 2001c5c:	2005883a 	mov	r2,r4
 2001c60:	e17fff15 	stw	r5,-4(fp)
 2001c64:	e0bffe05 	stb	r2,-8(fp)
	WriteRAM32Bits(2+chnl*2,data);
 2001c68:	e0bffe03 	ldbu	r2,-8(fp)
 2001c6c:	10800044 	addi	r2,r2,1
 2001c70:	1085883a 	add	r2,r2,r2
 2001c74:	10803fcc 	andi	r2,r2,255
 2001c78:	1009883a 	mov	r4,r2
 2001c7c:	e17fff17 	ldw	r5,-4(fp)
 2001c80:	20014080 	call	2001408 <WriteRAM32Bits>
}
 2001c84:	e037883a 	mov	sp,fp
 2001c88:	dfc00117 	ldw	ra,4(sp)
 2001c8c:	df000017 	ldw	fp,0(sp)
 2001c90:	dec00204 	addi	sp,sp,8
 2001c94:	f800283a 	ret

02001c98 <reloadRegisters>:

void reloadRegisters()		//All registers are reset on StopFiring signal. Reload all registers by rewriting to RAM.
{
 2001c98:	defffc04 	addi	sp,sp,-16
 2001c9c:	dfc00315 	stw	ra,12(sp)
 2001ca0:	df000215 	stw	fp,8(sp)
 2001ca4:	dc000115 	stw	r16,4(sp)
 2001ca8:	df000104 	addi	fp,sp,4
	WriteRAMRepRate(LoadRAMRepRate());
 2001cac:	2001a680 	call	2001a68 <LoadRAMRepRate>
 2001cb0:	1009883a 	mov	r4,r2
 2001cb4:	2001b980 	call	2001b98 <WriteRAMRepRate>
	WriteRAMShots(LoadRAMShots());
 2001cb8:	2001a940 	call	2001a94 <LoadRAMShots>
 2001cbc:	1009883a 	mov	r4,r2
 2001cc0:	2001bcc0 	call	2001bcc <WriteRAMShots>
	unsigned char i;
	for(i=1;i<=CHNL_NUM;i++)
 2001cc4:	00800044 	movi	r2,1
 2001cc8:	e0bfff05 	stb	r2,-4(fp)
 2001ccc:	00001106 	br	2001d14 <reloadRegisters+0x7c>
	{
		WriteRAMStartTime(i,LoadRAMStartTime(i));
 2001cd0:	e43fff03 	ldbu	r16,-4(fp)
 2001cd4:	e0bfff03 	ldbu	r2,-4(fp)
 2001cd8:	1009883a 	mov	r4,r2
 2001cdc:	2001ac00 	call	2001ac0 <LoadRAMStartTime>
 2001ce0:	8009883a 	mov	r4,r16
 2001ce4:	100b883a 	mov	r5,r2
 2001ce8:	2001c000 	call	2001c00 <WriteRAMStartTime>
		WriteRAMEndTime(i,LoadRAMEndTime(i));
 2001cec:	e43fff03 	ldbu	r16,-4(fp)
 2001cf0:	e0bfff03 	ldbu	r2,-4(fp)
 2001cf4:	1009883a 	mov	r4,r2
 2001cf8:	2001b000 	call	2001b00 <LoadRAMEndTime>
 2001cfc:	8009883a 	mov	r4,r16
 2001d00:	100b883a 	mov	r5,r2
 2001d04:	2001c4c0 	call	2001c4c <WriteRAMEndTime>
void reloadRegisters()		//All registers are reset on StopFiring signal. Reload all registers by rewriting to RAM.
{
	WriteRAMRepRate(LoadRAMRepRate());
	WriteRAMShots(LoadRAMShots());
	unsigned char i;
	for(i=1;i<=CHNL_NUM;i++)
 2001d08:	e0bfff03 	ldbu	r2,-4(fp)
 2001d0c:	10800044 	addi	r2,r2,1
 2001d10:	e0bfff05 	stb	r2,-4(fp)
 2001d14:	e0bfff03 	ldbu	r2,-4(fp)
 2001d18:	108002b0 	cmpltui	r2,r2,10
 2001d1c:	103fec1e 	bne	r2,zero,2001cd0 <reloadRegisters+0x38>
	{
		WriteRAMStartTime(i,LoadRAMStartTime(i));
		WriteRAMEndTime(i,LoadRAMEndTime(i));
	}
	refreshErrFlags();
 2001d20:	2007bf80 	call	2007bf8 <refreshErrFlags>
}
 2001d24:	e037883a 	mov	sp,fp
 2001d28:	dfc00217 	ldw	ra,8(sp)
 2001d2c:	df000117 	ldw	fp,4(sp)
 2001d30:	dc000017 	ldw	r16,0(sp)
 2001d34:	dec00304 	addi	sp,sp,12
 2001d38:	f800283a 	ret

02001d3c <PowerFailure_ISR>:

#define powerOk			*(unsigned char*)POWER_OK_BASE
#define pauseSeq		*(unsigned char*)PAUSE_SEQ_BASE

static void PowerFailure_ISR(void *context)
{
 2001d3c:	defffd04 	addi	sp,sp,-12
 2001d40:	dfc00215 	stw	ra,8(sp)
 2001d44:	df000115 	stw	fp,4(sp)
 2001d48:	df000104 	addi	fp,sp,4
 2001d4c:	e13fff15 	stw	r4,-4(fp)
	//De-bouncing
	delay(0);
 2001d50:	0009883a 	mov	r4,zero
 2001d54:	20019dc0 	call	20019dc <delay>
	if(powerOk)
 2001d58:	00810034 	movhi	r2,1024
 2001d5c:	10883804 	addi	r2,r2,8416
 2001d60:	10800003 	ldbu	r2,0(r2)
 2001d64:	10803fcc 	andi	r2,r2,255
 2001d68:	10000526 	beq	r2,zero,2001d80 <PowerFailure_ISR+0x44>
	{
		IOWR_ALTERA_AVALON_PIO_EDGE_CAP(POWER_OK_BASE, 0x0);
 2001d6c:	0007883a 	mov	r3,zero
 2001d70:	00810034 	movhi	r2,1024
 2001d74:	10883b04 	addi	r2,r2,8428
 2001d78:	10c00035 	stwio	r3,0(r2)
		return;
 2001d7c:	00003a06 	br	2001e68 <PowerFailure_ISR+0x12c>
	}

	delay(0);
 2001d80:	0009883a 	mov	r4,zero
 2001d84:	20019dc0 	call	20019dc <delay>
	if(powerOk)
 2001d88:	00810034 	movhi	r2,1024
 2001d8c:	10883804 	addi	r2,r2,8416
 2001d90:	10800003 	ldbu	r2,0(r2)
 2001d94:	10803fcc 	andi	r2,r2,255
 2001d98:	10000526 	beq	r2,zero,2001db0 <PowerFailure_ISR+0x74>
	{
		IOWR_ALTERA_AVALON_PIO_EDGE_CAP(POWER_OK_BASE, 0x0);
 2001d9c:	0007883a 	mov	r3,zero
 2001da0:	00810034 	movhi	r2,1024
 2001da4:	10883b04 	addi	r2,r2,8428
 2001da8:	10c00035 	stwio	r3,0(r2)
		return;
 2001dac:	00002e06 	br	2001e68 <PowerFailure_ISR+0x12c>
	}

	delay(0);
 2001db0:	0009883a 	mov	r4,zero
 2001db4:	20019dc0 	call	20019dc <delay>
	if(powerOk)
 2001db8:	00810034 	movhi	r2,1024
 2001dbc:	10883804 	addi	r2,r2,8416
 2001dc0:	10800003 	ldbu	r2,0(r2)
 2001dc4:	10803fcc 	andi	r2,r2,255
 2001dc8:	10000526 	beq	r2,zero,2001de0 <PowerFailure_ISR+0xa4>
	{
		IOWR_ALTERA_AVALON_PIO_EDGE_CAP(POWER_OK_BASE, 0x0);
 2001dcc:	0007883a 	mov	r3,zero
 2001dd0:	00810034 	movhi	r2,1024
 2001dd4:	10883b04 	addi	r2,r2,8428
 2001dd8:	10c00035 	stwio	r3,0(r2)
		return;
 2001ddc:	00002206 	br	2001e68 <PowerFailure_ISR+0x12c>
	}

	delay(0);
 2001de0:	0009883a 	mov	r4,zero
 2001de4:	20019dc0 	call	20019dc <delay>
	if(powerOk)
 2001de8:	00810034 	movhi	r2,1024
 2001dec:	10883804 	addi	r2,r2,8416
 2001df0:	10800003 	ldbu	r2,0(r2)
 2001df4:	10803fcc 	andi	r2,r2,255
 2001df8:	10000626 	beq	r2,zero,2001e14 <PowerFailure_ISR+0xd8>
	{
		IOWR_ALTERA_AVALON_PIO_EDGE_CAP(POWER_OK_BASE, 0x0);
 2001dfc:	0007883a 	mov	r3,zero
 2001e00:	00810034 	movhi	r2,1024
 2001e04:	10883b04 	addi	r2,r2,8428
 2001e08:	10c00035 	stwio	r3,0(r2)
		return;
 2001e0c:	0001883a 	nop
 2001e10:	00001506 	br	2001e68 <PowerFailure_ISR+0x12c>
	}


	pauseSeq = 1;
 2001e14:	00810034 	movhi	r2,1024
 2001e18:	10885c04 	addi	r2,r2,8560
 2001e1c:	00c00044 	movi	r3,1
 2001e20:	10c00005 	stb	r3,0(r2)
	DisOff();
 2001e24:	20006f40 	call	20006f4 <DisOff>
	KPLED_All_Off();
 2001e28:	2000f400 	call	2000f40 <KPLED_All_Off>

	//Counter Protection
	SaveCounterToFRAM();
 2001e2c:	20002cc0 	call	20002cc <SaveCounterToFRAM>

	//In case of fake power failure
	DisInit();
 2001e30:	200048c0 	call	200048c <DisInit>
	DisCurPos(2,1);
 2001e34:	01000084 	movi	r4,2
 2001e38:	01400044 	movi	r5,1
 2001e3c:	20005400 	call	2000540 <DisCurPos>
	DisWrStr("Controller Pwr Fails");
 2001e40:	01008074 	movhi	r4,513
 2001e44:	21197604 	addi	r4,r4,26072
 2001e48:	20006000 	call	2000600 <DisWrStr>
	DisCurPos(3,1);
 2001e4c:	010000c4 	movi	r4,3
 2001e50:	01400044 	movi	r5,1
 2001e54:	20005400 	call	2000540 <DisCurPos>
	DisWrStr(" Counter Protected  ");
 2001e58:	01008074 	movhi	r4,513
 2001e5c:	21197c04 	addi	r4,r4,26096
 2001e60:	20006000 	call	2000600 <DisWrStr>

	while(1);
 2001e64:	003fff06 	br	2001e64 <PowerFailure_ISR+0x128>

}
 2001e68:	e037883a 	mov	sp,fp
 2001e6c:	dfc00117 	ldw	ra,4(sp)
 2001e70:	df000017 	ldw	fp,0(sp)
 2001e74:	dec00204 	addi	sp,sp,8
 2001e78:	f800283a 	ret

02001e7c <PowerFailure_Init>:


void PowerFailure_Init()
{
 2001e7c:	defffd04 	addi	sp,sp,-12
 2001e80:	dfc00215 	stw	ra,8(sp)
 2001e84:	df000115 	stw	fp,4(sp)
 2001e88:	df000104 	addi	fp,sp,4
	IOWR_ALTERA_AVALON_PIO_IRQ_MASK(POWER_OK_BASE, 0xF);
 2001e8c:	00c003c4 	movi	r3,15
 2001e90:	00810034 	movhi	r2,1024
 2001e94:	10883a04 	addi	r2,r2,8424
 2001e98:	10c00035 	stwio	r3,0(r2)
	IOWR_ALTERA_AVALON_PIO_EDGE_CAP(POWER_OK_BASE, 0x0);
 2001e9c:	0007883a 	mov	r3,zero
 2001ea0:	00810034 	movhi	r2,1024
 2001ea4:	10883b04 	addi	r2,r2,8428
 2001ea8:	10c00035 	stwio	r3,0(r2)
	alt_ic_isr_register(POWER_OK_IRQ_INTERRUPT_CONTROLLER_ID, POWER_OK_IRQ, PowerFailure_ISR, NULL, 0x0);
 2001eac:	d8000015 	stw	zero,0(sp)
 2001eb0:	0009883a 	mov	r4,zero
 2001eb4:	01400044 	movi	r5,1
 2001eb8:	01808034 	movhi	r6,512
 2001ebc:	31874f04 	addi	r6,r6,7484
 2001ec0:	000f883a 	mov	r7,zero
 2001ec4:	20126340 	call	2012634 <alt_ic_isr_register>
}
 2001ec8:	e037883a 	mov	sp,fp
 2001ecc:	dfc00117 	ldw	ra,4(sp)
 2001ed0:	df000017 	ldw	fp,0(sp)
 2001ed4:	dec00204 	addi	sp,sp,8
 2001ed8:	f800283a 	ret

02001edc <uart_send_byte>:
		.init = uart_init,
		.baudrate = set_baudrate
		};

int uart_send_byte(unsigned char data)
{
 2001edc:	defffe04 	addi	sp,sp,-8
 2001ee0:	df000115 	stw	fp,4(sp)
 2001ee4:	df000104 	addi	fp,sp,4
 2001ee8:	2005883a 	mov	r2,r4
 2001eec:	e0bfff05 	stb	r2,-4(fp)
	UART->TXDATA.BITS.TRANSMIT_DATA = data;
 2001ef0:	00810034 	movhi	r2,1024
 2001ef4:	10880804 	addi	r2,r2,8224
 2001ef8:	e0ffff03 	ldbu	r3,-4(fp)
 2001efc:	10c00105 	stb	r3,4(r2)
	while (!UART->STATUS.BITS.TRDY);
 2001f00:	0001883a 	nop
 2001f04:	00810034 	movhi	r2,1024
 2001f08:	10880804 	addi	r2,r2,8224
 2001f0c:	10800217 	ldw	r2,8(r2)
 2001f10:	1080100c 	andi	r2,r2,64
 2001f14:	103ffb26 	beq	r2,zero,2001f04 <uart_send_byte+0x28>
	return 0;
 2001f18:	0005883a 	mov	r2,zero
}
 2001f1c:	e037883a 	mov	sp,fp
 2001f20:	df000017 	ldw	fp,0(sp)
 2001f24:	dec00104 	addi	sp,sp,4
 2001f28:	f800283a 	ret

02001f2c <uart_send_string>:

void uart_send_string(unsigned int len, unsigned char *str)
{
 2001f2c:	defffc04 	addi	sp,sp,-16
 2001f30:	dfc00315 	stw	ra,12(sp)
 2001f34:	df000215 	stw	fp,8(sp)
 2001f38:	df000204 	addi	fp,sp,8
 2001f3c:	e13ffe15 	stw	r4,-8(fp)
 2001f40:	e17fff15 	stw	r5,-4(fp)
	while (len--)
 2001f44:	00000806 	br	2001f68 <uart_send_string+0x3c>
	{
		uart_send_byte(*str++);
 2001f48:	e0bfff17 	ldw	r2,-4(fp)
 2001f4c:	10800003 	ldbu	r2,0(r2)
 2001f50:	10803fcc 	andi	r2,r2,255
 2001f54:	e0ffff17 	ldw	r3,-4(fp)
 2001f58:	18c00044 	addi	r3,r3,1
 2001f5c:	e0ffff15 	stw	r3,-4(fp)
 2001f60:	1009883a 	mov	r4,r2
 2001f64:	2001edc0 	call	2001edc <uart_send_byte>
	return 0;
}

void uart_send_string(unsigned int len, unsigned char *str)
{
	while (len--)
 2001f68:	e0bffe17 	ldw	r2,-8(fp)
 2001f6c:	1004c03a 	cmpne	r2,r2,zero
 2001f70:	e0fffe17 	ldw	r3,-8(fp)
 2001f74:	18ffffc4 	addi	r3,r3,-1
 2001f78:	e0fffe15 	stw	r3,-8(fp)
 2001f7c:	10803fcc 	andi	r2,r2,255
 2001f80:	103ff11e 	bne	r2,zero,2001f48 <uart_send_string+0x1c>
	{
		uart_send_byte(*str++);
	}
}
 2001f84:	e037883a 	mov	sp,fp
 2001f88:	dfc00117 	ldw	ra,4(sp)
 2001f8c:	df000017 	ldw	fp,0(sp)
 2001f90:	dec00204 	addi	sp,sp,8
 2001f94:	f800283a 	ret

02001f98 <uart_init>:

int uart_init(void)
{
 2001f98:	defffd04 	addi	sp,sp,-12
 2001f9c:	dfc00215 	stw	ra,8(sp)
 2001fa0:	df000115 	stw	fp,4(sp)
 2001fa4:	df000104 	addi	fp,sp,4
	set_baudrate(9600);
 2001fa8:	01096004 	movi	r4,9600
 2001fac:	20020a80 	call	20020a8 <set_baudrate>
	UART->CONTROL.BITS.IRRDY = 1;
 2001fb0:	00810034 	movhi	r2,1024
 2001fb4:	10880804 	addi	r2,r2,8224
 2001fb8:	10c00317 	ldw	r3,12(r2)
 2001fbc:	18c02014 	ori	r3,r3,128
 2001fc0:	10c00315 	stw	r3,12(r2)
	UART->STATUS.WORD = 0;
 2001fc4:	00810034 	movhi	r2,1024
 2001fc8:	10880804 	addi	r2,r2,8224
 2001fcc:	10000215 	stw	zero,8(r2)
	alt_ic_isr_register(UART_IRQ_INTERRUPT_CONTROLLER_ID, UART_IRQ, uart_ISR,
 2001fd0:	d8000015 	stw	zero,0(sp)
 2001fd4:	0009883a 	mov	r4,zero
 2001fd8:	01400184 	movi	r5,6
 2001fdc:	01808034 	movhi	r6,512
 2001fe0:	31880104 	addi	r6,r6,8196
 2001fe4:	000f883a 	mov	r7,zero
 2001fe8:	20126340 	call	2012634 <alt_ic_isr_register>
		NULL, 0x0);
	return 0;
 2001fec:	0005883a 	mov	r2,zero
}
 2001ff0:	e037883a 	mov	sp,fp
 2001ff4:	dfc00117 	ldw	ra,4(sp)
 2001ff8:	df000017 	ldw	fp,0(sp)
 2001ffc:	dec00204 	addi	sp,sp,8
 2002000:	f800283a 	ret

02002004 <uart_ISR>:

static void uart_ISR(void *context)
{
 2002004:	defffe04 	addi	sp,sp,-8
 2002008:	df000115 	stw	fp,4(sp)
 200200c:	df000104 	addi	fp,sp,4
 2002010:	e13fff15 	stw	r4,-4(fp)
	while (!(UART->STATUS.BITS.RRDY));
 2002014:	0001883a 	nop
 2002018:	00810034 	movhi	r2,1024
 200201c:	10880804 	addi	r2,r2,8224
 2002020:	10800217 	ldw	r2,8(r2)
 2002024:	1080200c 	andi	r2,r2,128
 2002028:	103ffb26 	beq	r2,zero,2002018 <uart_ISR+0x14>
	uart.receive_buffer[uart.receive_count++] = UART->RXDATA.BITS.RECEIVE_DATA;
 200202c:	00808074 	movhi	r2,513
 2002030:	109dc604 	addi	r2,r2,30488
 2002034:	10800117 	ldw	r2,4(r2)
 2002038:	00c10034 	movhi	r3,1024
 200203c:	18c80804 	addi	r3,r3,8224
 2002040:	19000003 	ldbu	r4,0(r3)
 2002044:	00c08074 	movhi	r3,513
 2002048:	18ddc604 	addi	r3,r3,30488
 200204c:	1887883a 	add	r3,r3,r2
 2002050:	18c00204 	addi	r3,r3,8
 2002054:	19000005 	stb	r4,0(r3)
 2002058:	10c00044 	addi	r3,r2,1
 200205c:	00808074 	movhi	r2,513
 2002060:	109dc604 	addi	r2,r2,30488
 2002064:	10c00115 	stw	r3,4(r2)
		uart.receive_buffer[uart.receive_count] = '\0';
		uart.receive_count = 0;
		uart.receive_flag = 1;
	}*/

	if(uart.receive_count==8)
 2002068:	00808074 	movhi	r2,513
 200206c:	109dc604 	addi	r2,r2,30488
 2002070:	10800117 	ldw	r2,4(r2)
 2002074:	10800218 	cmpnei	r2,r2,8
 2002078:	1000071e 	bne	r2,zero,2002098 <uart_ISR+0x94>
	{
		uart.receive_count = 0;
 200207c:	00808074 	movhi	r2,513
 2002080:	109dc604 	addi	r2,r2,30488
 2002084:	10000115 	stw	zero,4(r2)
		uart.receive_flag = 1;
 2002088:	00808074 	movhi	r2,513
 200208c:	109dc604 	addi	r2,r2,30488
 2002090:	00c00044 	movi	r3,1
 2002094:	10c00015 	stw	r3,0(r2)
	}
}
 2002098:	e037883a 	mov	sp,fp
 200209c:	df000017 	ldw	fp,0(sp)
 20020a0:	dec00104 	addi	sp,sp,4
 20020a4:	f800283a 	ret

020020a8 <set_baudrate>:

int set_baudrate(unsigned int baudrate)
{
 20020a8:	defffc04 	addi	sp,sp,-16
 20020ac:	dfc00315 	stw	ra,12(sp)
 20020b0:	df000215 	stw	fp,8(sp)
 20020b4:	dc000115 	stw	r16,4(sp)
 20020b8:	df000104 	addi	fp,sp,4
 20020bc:	e13fff15 	stw	r4,-4(fp)
	UART->DIVISOR.WORD = (unsigned int) (ALT_CPU_FREQ / baudrate + 0.5);
 20020c0:	04010034 	movhi	r16,1024
 20020c4:	84080804 	addi	r16,r16,8224
 20020c8:	0100bef4 	movhi	r4,763
 20020cc:	213c2004 	addi	r4,r4,-3968
 20020d0:	e17fff17 	ldw	r5,-4(fp)
 20020d4:	20093a80 	call	20093a8 <__udivsi3>
 20020d8:	1009883a 	mov	r4,r2
 20020dc:	200916c0 	call	200916c <__floatunsidf>
 20020e0:	100b883a 	mov	r5,r2
 20020e4:	180d883a 	mov	r6,r3
 20020e8:	2809883a 	mov	r4,r5
 20020ec:	300b883a 	mov	r5,r6
 20020f0:	000d883a 	mov	r6,zero
 20020f4:	01cff834 	movhi	r7,16352
 20020f8:	2008f800 	call	2008f80 <__adddf3>
 20020fc:	1009883a 	mov	r4,r2
 2002100:	180b883a 	mov	r5,r3
 2002104:	2005883a 	mov	r2,r4
 2002108:	2807883a 	mov	r3,r5
 200210c:	1009883a 	mov	r4,r2
 2002110:	180b883a 	mov	r5,r3
 2002114:	2008ba80 	call	2008ba8 <__fixunsdfsi>
 2002118:	80800415 	stw	r2,16(r16)
	return 0;
 200211c:	0005883a 	mov	r2,zero
}
 2002120:	e037883a 	mov	sp,fp
 2002124:	dfc00217 	ldw	ra,8(sp)
 2002128:	df000117 	ldw	fp,4(sp)
 200212c:	dc000017 	ldw	r16,0(sp)
 2002130:	dec00304 	addi	sp,sp,12
 2002134:	f800283a 	ret

02002138 <initController>:
#define InterockSplitted 	*(unsigned char*)INTERLOCK_SPLITED_BASE		//Clear Interlock Splitted. Active High
#define pauseSeq		*(unsigned char*)PAUSE_SEQ_BASE			//Pause Firing Sequence. (Block trigger signal for timing engine) Active High
#define clrPreionFault	*(unsigned char*)RST_PREION_FAULT_BASE	//Clear Preion Fault handler. Active High

void initController()
{
 2002138:	defffe04 	addi	sp,sp,-8
 200213c:	dfc00115 	stw	ra,4(sp)
 2002140:	df000015 	stw	fp,0(sp)
 2002144:	d839883a 	mov	fp,sp

	pauseSeq = 1;								//In case of the Timing Engine is in "Firing" on powering up, this setting can prevent it from actually firing
 2002148:	00810034 	movhi	r2,1024
 200214c:	10885c04 	addi	r2,r2,8560
 2002150:	00c00044 	movi	r3,1
 2002154:	10c00005 	stb	r3,0(r2)

	KPLED_All_Bright();							//Turn on all keypad LEDs (Bright)
 2002158:	2000e880 	call	2000e88 <KPLED_All_Bright>

	DisInit();									//Initialize Display
 200215c:	200048c0 	call	200048c <DisInit>
	DisCurPos(1,1);
 2002160:	01000044 	movi	r4,1
 2002164:	01400044 	movi	r5,1
 2002168:	20005400 	call	2000540 <DisCurPos>
	DisWrStr("Initializing...");				//Show message "Initializing..."
 200216c:	01008074 	movhi	r4,513
 2002170:	21198204 	addi	r4,r4,26120
 2002174:	20006000 	call	2000600 <DisWrStr>

	UartInit();									//Initialize Nios UART
 2002178:	20013d40 	call	20013d4 <UartInit>


	remoteEn = 0;								//Disable Remote Control (make sure Nios core has the right of the UART)
 200217c:	00810034 	movhi	r2,1024
 2002180:	10888804 	addi	r2,r2,8736
 2002184:	10000005 	stb	zero,0(r2)
	KPLED_All_Off();
 2002188:	2000f400 	call	2000f40 <KPLED_All_Off>
	Stop();										//Send a Stop instruction to the Timing Engine. Make sure it's not firing on initial state.
 200218c:	20018400 	call	2001840 <Stop>


	clrTimer = 1; 								//Reset Password&Heater Timer
 2002190:	00810034 	movhi	r2,1024
 2002194:	10887c04 	addi	r2,r2,8688
 2002198:	00c00044 	movi	r3,1
 200219c:	10c00005 	stb	r3,0(r2)
	clrTimer = 0;
 20021a0:	00810034 	movhi	r2,1024
 20021a4:	10887c04 	addi	r2,r2,8688
 20021a8:	10000005 	stb	zero,0(r2)

	clrPreionFault = 1;							//Clear Preion Fault Handler
 20021ac:	00810034 	movhi	r2,1024
 20021b0:	10886804 	addi	r2,r2,8608
 20021b4:	00c00044 	movi	r3,1
 20021b8:	10c00005 	stb	r3,0(r2)
	clrPreionFault = 0;
 20021bc:	00810034 	movhi	r2,1024
 20021c0:	10886804 	addi	r2,r2,8608
 20021c4:	10000005 	stb	zero,0(r2)

	clrInterlock=1;								//Clear Interlock Handler
 20021c8:	00810034 	movhi	r2,1024
 20021cc:	10886004 	addi	r2,r2,8576
 20021d0:	00c00044 	movi	r3,1
 20021d4:	10c00005 	stb	r3,0(r2)
	clrInterlock=0;
 20021d8:	00810034 	movhi	r2,1024
 20021dc:	10886004 	addi	r2,r2,8576
 20021e0:	10000005 	stb	zero,0(r2)
	//InterlockIn=0;

	//InterockSplitted=1;
	//InterockSplitted=0;

	loadData();									//Load Data From EEPROM to Main RAM
 20021e4:	2001a3c0 	call	2001a3c <loadData>
	delay(5000);								//There is no signal that indicates if the loading is done so use delay() to wait.
 20021e8:	0104e204 	movi	r4,5000
 20021ec:	20019dc0 	call	20019dc <delay>

	KPLED_All_Dim();							//Turn on all keypad LEDs (Dim)
 20021f0:	2000ee40 	call	2000ee4 <KPLED_All_Dim>
	delay(5000);
 20021f4:	0104e204 	movi	r4,5000
 20021f8:	20019dc0 	call	20019dc <delay>

	reloadRegisters();							//Reload all Timing Engine registers with current data in Main RAM. (Load data from EEPROM does not refresh those registers)
 20021fc:	2001c980 	call	2001c98 <reloadRegisters>


	refreshErrFlags();							//Data Error Check
 2002200:	2007bf80 	call	2007bf8 <refreshErrFlags>

	CounterInit();								//Load Counters data to FPGA Counter module (from FRAM)
 2002204:	20001f00 	call	20001f0 <CounterInit>

	PowerFailure_Init();						//Power Failure Handler Initialization (enable interrupt and register ISR)
 2002208:	2001e7c0 	call	2001e7c <PowerFailure_Init>

	pauseSeq = 0;								//Clear Pause
 200220c:	00810034 	movhi	r2,1024
 2002210:	10885c04 	addi	r2,r2,8560
 2002214:	10000005 	stb	zero,0(r2)

	KPLED_All_Off();							//Turn off all keypad LEDs
 2002218:	2000f400 	call	2000f40 <KPLED_All_Off>

	printf("Done!\n");							//Send massage through JTAG, for debugging.
 200221c:	01008074 	movhi	r4,513
 2002220:	21198604 	addi	r4,r4,26136
 2002224:	20099f80 	call	20099f8 <puts>
}
 2002228:	e037883a 	mov	sp,fp
 200222c:	dfc00117 	ldw	ra,4(sp)
 2002230:	df000017 	ldw	fp,0(sp)
 2002234:	dec00204 	addi	sp,sp,8
 2002238:	f800283a 	ret

0200223c <refreshTopMenuEntry>:
 * 			Remember to check and update them when the order they appear in a menu changes.
 */


void refreshTopMenuEntry(unsigned char curr_state)
{
 200223c:	defffd04 	addi	sp,sp,-12
 2002240:	dfc00215 	stw	ra,8(sp)
 2002244:	df000115 	stw	fp,4(sp)
 2002248:	df000104 	addi	fp,sp,4
 200224c:	2005883a 	mov	r2,r4
 2002250:	e0bfff05 	stb	r2,-4(fp)
	if(curr_state==1)		entryParameterMenu(curr_state);
 2002254:	e0bfff03 	ldbu	r2,-4(fp)
 2002258:	10800058 	cmpnei	r2,r2,1
 200225c:	1000041e 	bne	r2,zero,2002270 <refreshTopMenuEntry+0x34>
 2002260:	e0bfff03 	ldbu	r2,-4(fp)
 2002264:	1009883a 	mov	r4,r2
 2002268:	20034cc0 	call	20034cc <entryParameterMenu>
 200226c:	00002906 	br	2002314 <refreshTopMenuEntry+0xd8>
	else if(curr_state==2)	entryStartupMenu(curr_state);
 2002270:	e0bfff03 	ldbu	r2,-4(fp)
 2002274:	10800098 	cmpnei	r2,r2,2
 2002278:	1000041e 	bne	r2,zero,200228c <refreshTopMenuEntry+0x50>
 200227c:	e0bfff03 	ldbu	r2,-4(fp)
 2002280:	1009883a 	mov	r4,r2
 2002284:	200512c0 	call	200512c <entryStartupMenu>
 2002288:	00002206 	br	2002314 <refreshTopMenuEntry+0xd8>
	else if(curr_state==3)	entryShutdownMenu(curr_state);
 200228c:	e0bfff03 	ldbu	r2,-4(fp)
 2002290:	108000d8 	cmpnei	r2,r2,3
 2002294:	1000041e 	bne	r2,zero,20022a8 <refreshTopMenuEntry+0x6c>
 2002298:	e0bfff03 	ldbu	r2,-4(fp)
 200229c:	1009883a 	mov	r4,r2
 20022a0:	20049240 	call	2004924 <entryShutdownMenu>
 20022a4:	00001b06 	br	2002314 <refreshTopMenuEntry+0xd8>
	else if(curr_state==4)	entryFireMenu(curr_state);
 20022a8:	e0bfff03 	ldbu	r2,-4(fp)
 20022ac:	10800118 	cmpnei	r2,r2,4
 20022b0:	1000041e 	bne	r2,zero,20022c4 <refreshTopMenuEntry+0x88>
 20022b4:	e0bfff03 	ldbu	r2,-4(fp)
 20022b8:	1009883a 	mov	r4,r2
 20022bc:	200259c0 	call	200259c <entryFireMenu>
 20022c0:	00001406 	br	2002314 <refreshTopMenuEntry+0xd8>
	else if(curr_state==5)	entryRemoteMenu(curr_state);
 20022c4:	e0bfff03 	ldbu	r2,-4(fp)
 20022c8:	10800158 	cmpnei	r2,r2,5
 20022cc:	1000041e 	bne	r2,zero,20022e0 <refreshTopMenuEntry+0xa4>
 20022d0:	e0bfff03 	ldbu	r2,-4(fp)
 20022d4:	1009883a 	mov	r4,r2
 20022d8:	200392c0 	call	200392c <entryRemoteMenu>
 20022dc:	00000d06 	br	2002314 <refreshTopMenuEntry+0xd8>
	else if(curr_state==6)	entrySaveLoadMenu(curr_state);
 20022e0:	e0bfff03 	ldbu	r2,-4(fp)
 20022e4:	10800198 	cmpnei	r2,r2,6
 20022e8:	1000041e 	bne	r2,zero,20022fc <refreshTopMenuEntry+0xc0>
 20022ec:	e0bfff03 	ldbu	r2,-4(fp)
 20022f0:	1009883a 	mov	r4,r2
 20022f4:	2003b140 	call	2003b14 <entrySaveLoadMenu>
 20022f8:	00000606 	br	2002314 <refreshTopMenuEntry+0xd8>
	else if(curr_state==7)	entryShotCountersMenu(curr_state);
 20022fc:	e0bfff03 	ldbu	r2,-4(fp)
 2002300:	108001d8 	cmpnei	r2,r2,7
 2002304:	1000031e 	bne	r2,zero,2002314 <refreshTopMenuEntry+0xd8>
 2002308:	e0bfff03 	ldbu	r2,-4(fp)
 200230c:	1009883a 	mov	r4,r2
 2002310:	200423c0 	call	200423c <entryShotCountersMenu>
	//else if(curr_state==8)	entryExternalTriggerMenu(curr_state);
}
 2002314:	e037883a 	mov	sp,fp
 2002318:	dfc00117 	ldw	ra,4(sp)
 200231c:	df000017 	ldw	fp,0(sp)
 2002320:	dec00204 	addi	sp,sp,8
 2002324:	f800283a 	ret

02002328 <enterTopMenuPage>:
 * It should be called when need to enter an sub-menu, such as ENTER button is pressed.
 * It has no returns.
 */

void enterTopMenuPage(unsigned char curr_state)
{
 2002328:	defffd04 	addi	sp,sp,-12
 200232c:	dfc00215 	stw	ra,8(sp)
 2002330:	df000115 	stw	fp,4(sp)
 2002334:	df000104 	addi	fp,sp,4
 2002338:	2005883a 	mov	r2,r4
 200233c:	e0bfff05 	stb	r2,-4(fp)
	if(curr_state==1)		enterParameterMenu();
 2002340:	e0bfff03 	ldbu	r2,-4(fp)
 2002344:	10800058 	cmpnei	r2,r2,1
 2002348:	1000021e 	bne	r2,zero,2002354 <enterTopMenuPage+0x2c>
 200234c:	20036700 	call	2003670 <enterParameterMenu>
 2002350:	00001e06 	br	20023cc <enterTopMenuPage+0xa4>
	else if(curr_state==2)	enterStartupMenu(0);
 2002354:	e0bfff03 	ldbu	r2,-4(fp)
 2002358:	10800098 	cmpnei	r2,r2,2
 200235c:	1000031e 	bne	r2,zero,200236c <enterTopMenuPage+0x44>
 2002360:	0009883a 	mov	r4,zero
 2002364:	20053000 	call	2005300 <enterStartupMenu>
 2002368:	00001806 	br	20023cc <enterTopMenuPage+0xa4>
	else if(curr_state==3)	enterShutdownMenu();
 200236c:	e0bfff03 	ldbu	r2,-4(fp)
 2002370:	108000d8 	cmpnei	r2,r2,3
 2002374:	1000021e 	bne	r2,zero,2002380 <enterTopMenuPage+0x58>
 2002378:	2004c4c0 	call	2004c4c <enterShutdownMenu>
 200237c:	00001306 	br	20023cc <enterTopMenuPage+0xa4>
	else if(curr_state==4)	enterFireMenu();
 2002380:	e0bfff03 	ldbu	r2,-4(fp)
 2002384:	10800118 	cmpnei	r2,r2,4
 2002388:	1000021e 	bne	r2,zero,2002394 <enterTopMenuPage+0x6c>
 200238c:	20031c00 	call	20031c0 <enterFireMenu>
 2002390:	00000e06 	br	20023cc <enterTopMenuPage+0xa4>
	else if(curr_state==5)	enterRemoteMenu();
 2002394:	e0bfff03 	ldbu	r2,-4(fp)
 2002398:	10800158 	cmpnei	r2,r2,5
 200239c:	1000021e 	bne	r2,zero,20023a8 <enterTopMenuPage+0x80>
 20023a0:	20039e40 	call	20039e4 <enterRemoteMenu>
 20023a4:	00000906 	br	20023cc <enterTopMenuPage+0xa4>
	else if(curr_state==6)	enterSaveLoadMenu();
 20023a8:	e0bfff03 	ldbu	r2,-4(fp)
 20023ac:	10800198 	cmpnei	r2,r2,6
 20023b0:	1000021e 	bne	r2,zero,20023bc <enterTopMenuPage+0x94>
 20023b4:	20040b40 	call	20040b4 <enterSaveLoadMenu>
 20023b8:	00000406 	br	20023cc <enterTopMenuPage+0xa4>
	else if(curr_state==7)	enterShotCountersMenu();
 20023bc:	e0bfff03 	ldbu	r2,-4(fp)
 20023c0:	108001d8 	cmpnei	r2,r2,7
 20023c4:	1000011e 	bne	r2,zero,20023cc <enterTopMenuPage+0xa4>
 20023c8:	20046240 	call	2004624 <enterShotCountersMenu>
	//else if(curr_state==8)	entryExternalTriggerMenu(curr_state);
}
 20023cc:	e037883a 	mov	sp,fp
 20023d0:	dfc00117 	ldw	ra,4(sp)
 20023d4:	df000017 	ldw	fp,0(sp)
 20023d8:	dec00204 	addi	sp,sp,8
 20023dc:	f800283a 	ret

020023e0 <TopMenu>:
 *
 * CAUTION: Put "while(keyFlag);" before entering a sub-menu to make sure key-press is released. If not, the key-press may also be captured by the sub-menu.
 */

void TopMenu()
{
 20023e0:	defffa04 	addi	sp,sp,-24
 20023e4:	dfc00515 	stw	ra,20(sp)
 20023e8:	df000415 	stw	fp,16(sp)
 20023ec:	df000404 	addi	fp,sp,16
	initController();												//Initialize the controller (go into this function to see details)
 20023f0:	20021380 	call	2002138 <initController>
	printf("Menu Initialized!\n");									//Send massage through JTAG, for debugging.
 20023f4:	01008074 	movhi	r4,513
 20023f8:	21198804 	addi	r4,r4,26144
 20023fc:	20099f80 	call	20099f8 <puts>
	int MinPageID = 1;
 2002400:	00800044 	movi	r2,1
 2002404:	e0bffd15 	stw	r2,-12(fp)
	int MaxPageID = 7;
 2002408:	008001c4 	movi	r2,7
 200240c:	e0bffe15 	stw	r2,-8(fp)

	showCoverPage();												//Display the "welcome screen".
 2002410:	20018d80 	call	20018d8 <showCoverPage>

	enterStartupMenu(1);												//Enter startup instruction menu to guide through the startup sequence
 2002414:	01000044 	movi	r4,1
 2002418:	20053000 	call	2005300 <enterStartupMenu>

	unsigned char curr_state = 1;									//Make sure the menu starts from its first page
 200241c:	00800044 	movi	r2,1
 2002420:	e0bffc05 	stb	r2,-16(fp)

	refreshTopMenuEntry(curr_state);								//Call "refreshTopMenuEntry(curr_state)" to refresh the display each time after curr_state changes.
 2002424:	e0bffc03 	ldbu	r2,-16(fp)
 2002428:	1009883a 	mov	r4,r2
 200242c:	200223c0 	call	200223c <refreshTopMenuEntry>
 2002430:	00000106 	br	2002438 <TopMenu+0x58>
					refreshTopMenuEntry(curr_state);
				}
			}
			while(keyFlag);											//Wait until key is released
		}
	}
 2002434:	0001883a 	nop
	refreshTopMenuEntry(curr_state);								//Call "refreshTopMenuEntry(curr_state)" to refresh the display each time after curr_state changes.

	unsigned char keyVal_latch;										//Once a key-press is detected, latch the key value in keyVal_latch.
	while(1)														//Infinity loop to pull key-press and update the state of the FSM.
	{
		if(keyFlag)													//If a key press is detected.
 2002438:	00810034 	movhi	r2,1024
 200243c:	10889804 	addi	r2,r2,8800
 2002440:	10800003 	ldbu	r2,0(r2)
 2002444:	10803fcc 	andi	r2,r2,255
 2002448:	103ffa26 	beq	r2,zero,2002434 <TopMenu+0x54>
		{
			delay(100);												//De-bouncing
 200244c:	01001904 	movi	r4,100
 2002450:	20019dc0 	call	20019dc <delay>
			if(keyFlag)												//De-bouncing
 2002454:	00810034 	movhi	r2,1024
 2002458:	10889804 	addi	r2,r2,8800
 200245c:	10800003 	ldbu	r2,0(r2)
 2002460:	10803fcc 	andi	r2,r2,255
 2002464:	10003b26 	beq	r2,zero,2002554 <TopMenu+0x174>
			{
				keyVal_latch = keyVal;								//Latch key value
 2002468:	00810034 	movhi	r2,1024
 200246c:	10889404 	addi	r2,r2,8784
 2002470:	10800003 	ldbu	r2,0(r2)
 2002474:	e0bfff05 	stb	r2,-4(fp)
				if(keyVal_latch == KEY_LEFT)						//If left arrow is pressed
 2002478:	e0bfff03 	ldbu	r2,-4(fp)
 200247c:	10800298 	cmpnei	r2,r2,10
 2002480:	10000a1e 	bne	r2,zero,20024ac <TopMenu+0xcc>
				{
					if(curr_state > MinPageID)								//If curr_state is greater than 1
 2002484:	e0bffc03 	ldbu	r2,-16(fp)
 2002488:	e0fffd17 	ldw	r3,-12(fp)
 200248c:	1880310e 	bge	r3,r2,2002554 <TopMenu+0x174>
					{
						curr_state--;								//Decrease curr_state by 1
 2002490:	e0bffc03 	ldbu	r2,-16(fp)
 2002494:	10bfffc4 	addi	r2,r2,-1
 2002498:	e0bffc05 	stb	r2,-16(fp)
						refreshTopMenuEntry(curr_state);			//Refresh display
 200249c:	e0bffc03 	ldbu	r2,-16(fp)
 20024a0:	1009883a 	mov	r4,r2
 20024a4:	200223c0 	call	200223c <refreshTopMenuEntry>
					while(keyFlag);
					enterFireMenu();
					refreshTopMenuEntry(curr_state);
				}
			}
			while(keyFlag);											//Wait until key is released
 20024a8:	00002a06 	br	2002554 <TopMenu+0x174>
					{
						curr_state--;								//Decrease curr_state by 1
						refreshTopMenuEntry(curr_state);			//Refresh display
					}
				}
				else if(keyVal_latch == KEY_RIGHT)					//If right arrow is pressed
 20024ac:	e0bfff03 	ldbu	r2,-4(fp)
 20024b0:	108002d8 	cmpnei	r2,r2,11
 20024b4:	10000a1e 	bne	r2,zero,20024e0 <TopMenu+0x100>
				{
					if(curr_state < MaxPageID)								//If curr_state is less than the total page number, 7(May updated to 8)
 20024b8:	e0fffc03 	ldbu	r3,-16(fp)
 20024bc:	e0bffe17 	ldw	r2,-8(fp)
 20024c0:	1880240e 	bge	r3,r2,2002554 <TopMenu+0x174>
					{
						curr_state++;								//Increase curr_state by 1
 20024c4:	e0bffc03 	ldbu	r2,-16(fp)
 20024c8:	10800044 	addi	r2,r2,1
 20024cc:	e0bffc05 	stb	r2,-16(fp)
						refreshTopMenuEntry(curr_state);			//Refresh display
 20024d0:	e0bffc03 	ldbu	r2,-16(fp)
 20024d4:	1009883a 	mov	r4,r2
 20024d8:	200223c0 	call	200223c <refreshTopMenuEntry>
					while(keyFlag);
					enterFireMenu();
					refreshTopMenuEntry(curr_state);
				}
			}
			while(keyFlag);											//Wait until key is released
 20024dc:	00001d06 	br	2002554 <TopMenu+0x174>
					{
						curr_state++;								//Increase curr_state by 1
						refreshTopMenuEntry(curr_state);			//Refresh display
					}
				}
				else if(keyVal_latch == KEY_ENTER)					//If ENTER key is pressed
 20024e0:	e0bfff03 	ldbu	r2,-4(fp)
 20024e4:	10800398 	cmpnei	r2,r2,14
 20024e8:	10000d1e 	bne	r2,zero,2002520 <TopMenu+0x140>
				{
					while(keyFlag);									//Wait until key is released
 20024ec:	0001883a 	nop
 20024f0:	00810034 	movhi	r2,1024
 20024f4:	10889804 	addi	r2,r2,8800
 20024f8:	10800003 	ldbu	r2,0(r2)
 20024fc:	10803fcc 	andi	r2,r2,255
 2002500:	103ffb1e 	bne	r2,zero,20024f0 <TopMenu+0x110>
					enterTopMenuPage(curr_state);					//Enter a sub-menu
 2002504:	e0bffc03 	ldbu	r2,-16(fp)
 2002508:	1009883a 	mov	r4,r2
 200250c:	20023280 	call	2002328 <enterTopMenuPage>
					refreshTopMenuEntry(curr_state);				//Remember to call "refreshTopMenuEntry(curr_state)" when it returns from a sub-menu, because the display might be manipulated by a sub-menu.
 2002510:	e0bffc03 	ldbu	r2,-16(fp)
 2002514:	1009883a 	mov	r4,r2
 2002518:	200223c0 	call	200223c <refreshTopMenuEntry>
					while(keyFlag);
					enterFireMenu();
					refreshTopMenuEntry(curr_state);
				}
			}
			while(keyFlag);											//Wait until key is released
 200251c:	00000d06 	br	2002554 <TopMenu+0x174>
				{
					while(keyFlag);									//Wait until key is released
					enterTopMenuPage(curr_state);					//Enter a sub-menu
					refreshTopMenuEntry(curr_state);				//Remember to call "refreshTopMenuEntry(curr_state)" when it returns from a sub-menu, because the display might be manipulated by a sub-menu.
				}
				else if(keyVal_latch == KEY_ENA)					//Enter Fire menu if ENABLE is pressed.
 2002520:	e0bfff03 	ldbu	r2,-4(fp)
 2002524:	108003d8 	cmpnei	r2,r2,15
 2002528:	10000a1e 	bne	r2,zero,2002554 <TopMenu+0x174>
				{
					while(keyFlag);
 200252c:	0001883a 	nop
 2002530:	00810034 	movhi	r2,1024
 2002534:	10889804 	addi	r2,r2,8800
 2002538:	10800003 	ldbu	r2,0(r2)
 200253c:	10803fcc 	andi	r2,r2,255
 2002540:	103ffb1e 	bne	r2,zero,2002530 <TopMenu+0x150>
					enterFireMenu();
 2002544:	20031c00 	call	20031c0 <enterFireMenu>
					refreshTopMenuEntry(curr_state);
 2002548:	e0bffc03 	ldbu	r2,-16(fp)
 200254c:	1009883a 	mov	r4,r2
 2002550:	200223c0 	call	200223c <refreshTopMenuEntry>
				}
			}
			while(keyFlag);											//Wait until key is released
 2002554:	0001883a 	nop
 2002558:	00810034 	movhi	r2,1024
 200255c:	10889804 	addi	r2,r2,8800
 2002560:	10800003 	ldbu	r2,0(r2)
 2002564:	10803fcc 	andi	r2,r2,255
 2002568:	103ffb1e 	bne	r2,zero,2002558 <TopMenu+0x178>
		}
	}
 200256c:	003fb106 	br	2002434 <TopMenu+0x54>

02002570 <main>:
#define heaterCounter	*(unsigned int*) HEATERCOUNTER_BASE		//Input, 10bit, A count down timer for heater warming up
#define heaterDone		*(unsigned char*) HEATERDONE_BASE		//Input, Flag, set when heater is ready (warming up finished)
#define rstHeaterTimer *(unsigned char*)RSTHEATERTIMER_BASE

int main()
{
 2002570:	defffe04 	addi	sp,sp,-8
 2002574:	dfc00115 	stw	ra,4(sp)
 2002578:	df000015 	stw	fp,0(sp)
 200257c:	d839883a 	mov	fp,sp
		printf("%dth HeaterCounter: %d\n",i,heaterCounter);
		i++;
		delay(5000);
	}*/

	TopMenu();
 2002580:	20023e00 	call	20023e0 <TopMenu>

  return 0;
 2002584:	0005883a 	mov	r2,zero
}
 2002588:	e037883a 	mov	sp,fp
 200258c:	dfc00117 	ldw	ra,4(sp)
 2002590:	df000017 	ldw	fp,0(sp)
 2002594:	dec00204 	addi	sp,sp,8
 2002598:	f800283a 	ret

0200259c <entryFireMenu>:
#define interlock_code  *(volatile unsigned char*)INTERLOCK_SPLITED_BASE //Input,a sequence of binary which determines which interlock channel has an error.



void entryFireMenu(unsigned char number)
{
 200259c:	defffd04 	addi	sp,sp,-12
 20025a0:	dfc00215 	stw	ra,8(sp)
 20025a4:	df000115 	stw	fp,4(sp)
 20025a8:	df000104 	addi	fp,sp,4
 20025ac:	2005883a 	mov	r2,r4
 20025b0:	e0bfff05 	stb	r2,-4(fp)
	//Configure backlit LEDs
	KPLED_All_Off();
 20025b4:	2000f400 	call	2000f40 <KPLED_All_Off>
	KPLED_Enter(3);
 20025b8:	010000c4 	movi	r4,3
 20025bc:	20012440 	call	2001244 <KPLED_Enter>
	KPLED_Enable(1);
 20025c0:	01000044 	movi	r4,1
 20025c4:	20012cc0 	call	20012cc <KPLED_Enable>
	KPLED_RightArrow(3);
 20025c8:	010000c4 	movi	r4,3
 20025cc:	20010200 	call	2001020 <KPLED_RightArrow>
	KPLED_LeftArrow(3);
 20025d0:	010000c4 	movi	r4,3
 20025d4:	20010ac0 	call	20010ac <KPLED_LeftArrow>

	//Construct display screen
	DisClear();
 20025d8:	20006780 	call	2000678 <DisClear>
	DisShowCur(0);
 20025dc:	0009883a 	mov	r4,zero
 20025e0:	20004fc0 	call	20004fc <DisShowCur>
	DisCurPos(1,1);
 20025e4:	01000044 	movi	r4,1
 20025e8:	01400044 	movi	r5,1
 20025ec:	20005400 	call	2000540 <DisCurPos>
	DisWrStr("       MENU         ");
 20025f0:	01008074 	movhi	r4,513
 20025f4:	21198d04 	addi	r4,r4,26164
 20025f8:	20006000 	call	2000600 <DisWrStr>
	DisCurPos(2,1);
 20025fc:	01000084 	movi	r4,2
 2002600:	01400044 	movi	r5,1
 2002604:	20005400 	call	2000540 <DisCurPos>
	DisWrStr(Num2toStr2(number));
 2002608:	e0bfff03 	ldbu	r2,-4(fp)
 200260c:	1009883a 	mov	r4,r2
 2002610:	20062640 	call	2006264 <Num2toStr2>
 2002614:	1009883a 	mov	r4,r2
 2002618:	20006000 	call	2000600 <DisWrStr>
	DisWrStr(".Fire");
 200261c:	01008074 	movhi	r4,513
 2002620:	21199304 	addi	r4,r4,26188
 2002624:	20006000 	call	2000600 <DisWrStr>

	DisCurPos(4,1);
 2002628:	01000104 	movi	r4,4
 200262c:	01400044 	movi	r5,1
 2002630:	20005400 	call	2000540 <DisCurPos>
	DisWrStr("<Prev   Enter  Next>");
 2002634:	01008074 	movhi	r4,513
 2002638:	21199504 	addi	r4,r4,26196
 200263c:	20006000 	call	2000600 <DisWrStr>

}
 2002640:	e037883a 	mov	sp,fp
 2002644:	dfc00117 	ldw	ra,4(sp)
 2002648:	df000017 	ldw	fp,0(sp)
 200264c:	dec00204 	addi	sp,sp,8
 2002650:	f800283a 	ret

02002654 <PreFiringErrChk>:
 * Returns:
 * 		non-zero: Error(Do NOT Fire)	0:No Error
 */

unsigned char PreFiringErrChk()
{
 2002654:	defffd04 	addi	sp,sp,-12
 2002658:	dfc00215 	stw	ra,8(sp)
 200265c:	df000115 	stw	fp,4(sp)
 2002660:	df000104 	addi	fp,sp,4
	unsigned char keyVal_latch;
	unsigned char err = chkAllTiming();			//Check all timing parameters. Returns "1" if ny parameter error is detected.
 2002664:	2007cdc0 	call	2007cdc <chkAllTiming>
 2002668:	e0bfff05 	stb	r2,-4(fp)
	unsigned char interlock_latch;

	clrInterlock = 1;
 200266c:	00810034 	movhi	r2,1024
 2002670:	10886004 	addi	r2,r2,8576
 2002674:	00c00044 	movi	r3,1
 2002678:	10c00005 	stb	r3,0(r2)
	clrInterlock = 0;
 200267c:	00810034 	movhi	r2,1024
 2002680:	10886004 	addi	r2,r2,8576
 2002684:	10000005 	stb	zero,0(r2)
	interlock_latch = interlock;
 2002688:	00810034 	movhi	r2,1024
 200268c:	10886404 	addi	r2,r2,8592
 2002690:	10800003 	ldbu	r2,0(r2)
 2002694:	e0bfff45 	stb	r2,-3(fp)

	KPLED_All_Off();
 2002698:	2000f400 	call	2000f40 <KPLED_All_Off>
	if(err)										//If any parameter error is detected.
 200269c:	e0bfff03 	ldbu	r2,-4(fp)
 20026a0:	10004326 	beq	r2,zero,20027b0 <PreFiringErrChk+0x15c>
	{

		KPLED_Menu(3);							//Display "Range check error" message
 20026a4:	010000c4 	movi	r4,3
 20026a8:	20011340 	call	2001134 <KPLED_Menu>
		DisClear();
 20026ac:	20006780 	call	2000678 <DisClear>
		DisShowCur(0);
 20026b0:	0009883a 	mov	r4,zero
 20026b4:	20004fc0 	call	20004fc <DisShowCur>
		DisCurPos(1,8);
 20026b8:	01000044 	movi	r4,1
 20026bc:	01400204 	movi	r5,8
 20026c0:	20005400 	call	2000540 <DisCurPos>
		DisWrStr("ERROR");
 20026c4:	01008074 	movhi	r4,513
 20026c8:	21199b04 	addi	r4,r4,26220
 20026cc:	20006000 	call	2000600 <DisWrStr>
		DisCurPos(2,1);
 20026d0:	01000084 	movi	r4,2
 20026d4:	01400044 	movi	r5,1
 20026d8:	20005400 	call	2000540 <DisCurPos>
		DisWrStr("Range Check Error");
 20026dc:	01008074 	movhi	r4,513
 20026e0:	21199d04 	addi	r4,r4,26228
 20026e4:	20006000 	call	2000600 <DisWrStr>
		DisCurPos(3,1);
 20026e8:	010000c4 	movi	r4,3
 20026ec:	01400044 	movi	r5,1
 20026f0:	20005400 	call	2000540 <DisCurPos>
		DisWrStr(convertChnlTitle(err));
 20026f4:	e0bfff03 	ldbu	r2,-4(fp)
 20026f8:	1009883a 	mov	r4,r2
 20026fc:	20082e40 	call	20082e4 <convertChnlTitle>
 2002700:	1009883a 	mov	r4,r2
 2002704:	20006000 	call	2000600 <DisWrStr>
		DisCurPos(4,1);
 2002708:	01000104 	movi	r4,4
 200270c:	01400044 	movi	r5,1
 2002710:	20005400 	call	2000540 <DisCurPos>
		DisWrStr("Press MENU to Return");
 2002714:	01008074 	movhi	r4,513
 2002718:	2119a204 	addi	r4,r4,26248
 200271c:	20006000 	call	2000600 <DisWrStr>
 2002720:	00000106 	br	2002728 <PreFiringErrChk+0xd4>
						return err;
					}
				}
				while(keyFlag);
			}
		}
 2002724:	0001883a 	nop
		DisWrStr("Press MENU to Return");


		while(1)								//Detect key press, MENU to return.
		{
			if(keyFlag)
 2002728:	00810034 	movhi	r2,1024
 200272c:	10889804 	addi	r2,r2,8800
 2002730:	10800003 	ldbu	r2,0(r2)
 2002734:	10803fcc 	andi	r2,r2,255
 2002738:	103ffa26 	beq	r2,zero,2002724 <PreFiringErrChk+0xd0>
			{
				delay(100);
 200273c:	01001904 	movi	r4,100
 2002740:	20019dc0 	call	20019dc <delay>
				if(keyFlag)
 2002744:	00810034 	movhi	r2,1024
 2002748:	10889804 	addi	r2,r2,8800
 200274c:	10800003 	ldbu	r2,0(r2)
 2002750:	10803fcc 	andi	r2,r2,255
 2002754:	10000f26 	beq	r2,zero,2002794 <PreFiringErrChk+0x140>
				{
					keyVal_latch = keyVal;
 2002758:	00810034 	movhi	r2,1024
 200275c:	10889404 	addi	r2,r2,8784
 2002760:	10800003 	ldbu	r2,0(r2)
 2002764:	e0bfff85 	stb	r2,-2(fp)
					if(keyVal_latch == KEY_MENU)
 2002768:	e0bfff83 	ldbu	r2,-2(fp)
 200276c:	10800318 	cmpnei	r2,r2,12
 2002770:	1000081e 	bne	r2,zero,2002794 <PreFiringErrChk+0x140>
					{
						while(keyFlag);
 2002774:	0001883a 	nop
 2002778:	00810034 	movhi	r2,1024
 200277c:	10889804 	addi	r2,r2,8800
 2002780:	10800003 	ldbu	r2,0(r2)
 2002784:	10803fcc 	andi	r2,r2,255
 2002788:	103ffb1e 	bne	r2,zero,2002778 <PreFiringErrChk+0x124>
						return err;
 200278c:	e0bfff03 	ldbu	r2,-4(fp)
 2002790:	00004506 	br	20028a8 <PreFiringErrChk+0x254>
					}
				}
				while(keyFlag);
 2002794:	0001883a 	nop
 2002798:	00810034 	movhi	r2,1024
 200279c:	10889804 	addi	r2,r2,8800
 20027a0:	10800003 	ldbu	r2,0(r2)
 20027a4:	10803fcc 	andi	r2,r2,255
 20027a8:	103ffb1e 	bne	r2,zero,2002798 <PreFiringErrChk+0x144>
			}
		}
 20027ac:	003fdd06 	br	2002724 <PreFiringErrChk+0xd0>
	}
	else if(interlock_latch)					//If interlock is detected
 20027b0:	e0bfff43 	ldbu	r2,-3(fp)
 20027b4:	10003b26 	beq	r2,zero,20028a4 <PreFiringErrChk+0x250>
	{
		KPLED_Menu(3);							//Display Interlock message
 20027b8:	010000c4 	movi	r4,3
 20027bc:	20011340 	call	2001134 <KPLED_Menu>
		DisClear();
 20027c0:	20006780 	call	2000678 <DisClear>
		DisShowCur(0);
 20027c4:	0009883a 	mov	r4,zero
 20027c8:	20004fc0 	call	20004fc <DisShowCur>
		DisCurPos(1,8);
 20027cc:	01000044 	movi	r4,1
 20027d0:	01400204 	movi	r5,8
 20027d4:	20005400 	call	2000540 <DisCurPos>
		DisWrStr("ERROR");
 20027d8:	01008074 	movhi	r4,513
 20027dc:	21199b04 	addi	r4,r4,26220
 20027e0:	20006000 	call	2000600 <DisWrStr>
		DisCurPos(2,1);
 20027e4:	01000084 	movi	r4,2
 20027e8:	01400044 	movi	r5,1
 20027ec:	20005400 	call	2000540 <DisCurPos>
		DisWrStr("Interlock!");
 20027f0:	01008074 	movhi	r4,513
 20027f4:	2119a804 	addi	r4,r4,26272
 20027f8:	20006000 	call	2000600 <DisWrStr>
		DisCurPos(4,1);
 20027fc:	01000104 	movi	r4,4
 2002800:	01400044 	movi	r5,1
 2002804:	20005400 	call	2000540 <DisCurPos>
		DisWrStr("Press MENU to Return");
 2002808:	01008074 	movhi	r4,513
 200280c:	2119a204 	addi	r4,r4,26248
 2002810:	20006000 	call	2000600 <DisWrStr>
 2002814:	00000106 	br	200281c <PreFiringErrChk+0x1c8>
						return 255;
					}
				}
				while(keyFlag);
			}
		}
 2002818:	0001883a 	nop
		DisCurPos(4,1);
		DisWrStr("Press MENU to Return");

		while(1)								//Detect key press, MENU to return
		{
			if(keyFlag)
 200281c:	00810034 	movhi	r2,1024
 2002820:	10889804 	addi	r2,r2,8800
 2002824:	10800003 	ldbu	r2,0(r2)
 2002828:	10803fcc 	andi	r2,r2,255
 200282c:	103ffa26 	beq	r2,zero,2002818 <PreFiringErrChk+0x1c4>
			{
				delay(100);
 2002830:	01001904 	movi	r4,100
 2002834:	20019dc0 	call	20019dc <delay>
				if(keyFlag)
 2002838:	00810034 	movhi	r2,1024
 200283c:	10889804 	addi	r2,r2,8800
 2002840:	10800003 	ldbu	r2,0(r2)
 2002844:	10803fcc 	andi	r2,r2,255
 2002848:	10000f26 	beq	r2,zero,2002888 <PreFiringErrChk+0x234>
				{
					keyVal_latch = keyVal;
 200284c:	00810034 	movhi	r2,1024
 2002850:	10889404 	addi	r2,r2,8784
 2002854:	10800003 	ldbu	r2,0(r2)
 2002858:	e0bfff85 	stb	r2,-2(fp)
					if(keyVal_latch == KEY_MENU)
 200285c:	e0bfff83 	ldbu	r2,-2(fp)
 2002860:	10800318 	cmpnei	r2,r2,12
 2002864:	1000081e 	bne	r2,zero,2002888 <PreFiringErrChk+0x234>
					{
						while(keyFlag);
 2002868:	0001883a 	nop
 200286c:	00810034 	movhi	r2,1024
 2002870:	10889804 	addi	r2,r2,8800
 2002874:	10800003 	ldbu	r2,0(r2)
 2002878:	10803fcc 	andi	r2,r2,255
 200287c:	103ffb1e 	bne	r2,zero,200286c <PreFiringErrChk+0x218>
						return 255;
 2002880:	00bfffc4 	movi	r2,-1
 2002884:	00000806 	br	20028a8 <PreFiringErrChk+0x254>
					}
				}
				while(keyFlag);
 2002888:	0001883a 	nop
 200288c:	00810034 	movhi	r2,1024
 2002890:	10889804 	addi	r2,r2,8800
 2002894:	10800003 	ldbu	r2,0(r2)
 2002898:	10803fcc 	andi	r2,r2,255
 200289c:	103ffb1e 	bne	r2,zero,200288c <PreFiringErrChk+0x238>
			}
		}
 20028a0:	003fdd06 	br	2002818 <PreFiringErrChk+0x1c4>
	}
	return checkHeater();						//Return heater check status. If the heater is already warming up for 10 minutes, then it is ready.
 20028a4:	20034ac0 	call	20034ac <checkHeater>
}
 20028a8:	e037883a 	mov	sp,fp
 20028ac:	dfc00117 	ldw	ra,4(sp)
 20028b0:	df000017 	ldw	fp,0(sp)
 20028b4:	dec00204 	addi	sp,sp,8
 20028b8:	f800283a 	ret

020028bc <showFiringInformation>:

void showFiringInformation()
{
 20028bc:	defffe04 	addi	sp,sp,-8
 20028c0:	dfc00115 	stw	ra,4(sp)
 20028c4:	df000015 	stw	fp,0(sp)
 20028c8:	d839883a 	mov	fp,sp
	KPLED_All_Off();
 20028cc:	2000f400 	call	2000f40 <KPLED_All_Off>
	KPLED_Enable(3);
 20028d0:	010000c4 	movi	r4,3
 20028d4:	20012cc0 	call	20012cc <KPLED_Enable>
	KPLED_Menu(3);
 20028d8:	010000c4 	movi	r4,3
 20028dc:	20011340 	call	2001134 <KPLED_Menu>
	KPLED_Fire(3);								//Let the Fire button flash once during each shot
 20028e0:	010000c4 	movi	r4,3
 20028e4:	20013540 	call	2001354 <KPLED_Fire>

	DisClear();
 20028e8:	20006780 	call	2000678 <DisClear>
	DisCurPos(1,5);
 20028ec:	01000044 	movi	r4,1
 20028f0:	01400144 	movi	r5,5
 20028f4:	20005400 	call	2000540 <DisCurPos>
	DisWrStr(" Firing...");
 20028f8:	01008074 	movhi	r4,513
 20028fc:	2119ab04 	addi	r4,r4,26284
 2002900:	20006000 	call	2000600 <DisWrStr>
	DisCurPos(2,1);
 2002904:	01000084 	movi	r4,2
 2002908:	01400044 	movi	r5,1
 200290c:	20005400 	call	2000540 <DisCurPos>
	DisWrStr("SeqCount:     /");
 2002910:	01008074 	movhi	r4,513
 2002914:	2119ae04 	addi	r4,r4,26296
 2002918:	20006000 	call	2000600 <DisWrStr>
	DisWrStr(Num5toStr5(LoadRAMShots()));
 200291c:	2001a940 	call	2001a94 <LoadRAMShots>
 2002920:	1009883a 	mov	r4,r2
 2002924:	20067980 	call	2006798 <Num5toStr5>
 2002928:	1009883a 	mov	r4,r2
 200292c:	20006000 	call	2000600 <DisWrStr>
	DisCurPos(3,1);
 2002930:	010000c4 	movi	r4,3
 2002934:	01400044 	movi	r5,1
 2002938:	20005400 	call	2000540 <DisCurPos>
	DisWrStr("CapCount:");
 200293c:	01008074 	movhi	r4,513
 2002940:	2119b204 	addi	r4,r4,26312
 2002944:	20006000 	call	2000600 <DisWrStr>
	DisCurPos(4,1);
 2002948:	01000104 	movi	r4,4
 200294c:	01400044 	movi	r5,1
 2002950:	20005400 	call	2000540 <DisCurPos>
	DisWrStr("ENA=Pause  MENU=Stop");
 2002954:	01008074 	movhi	r4,513
 2002958:	2119b504 	addi	r4,r4,26324
 200295c:	20006000 	call	2000600 <DisWrStr>
}
 2002960:	e037883a 	mov	sp,fp
 2002964:	dfc00117 	ldw	ra,4(sp)
 2002968:	df000017 	ldw	fp,0(sp)
 200296c:	dec00204 	addi	sp,sp,8
 2002970:	f800283a 	ret

02002974 <PreionFaultHandler>:

/*
 * Display fault massage when DC preion fault is detected
 */
void PreionFaultHandler()
{
 2002974:	defffd04 	addi	sp,sp,-12
 2002978:	dfc00215 	stw	ra,8(sp)
 200297c:	df000115 	stw	fp,4(sp)
 2002980:	df000104 	addi	fp,sp,4
	unsigned char preionFault_latch = preionFault;
 2002984:	00810034 	movhi	r2,1024
 2002988:	10886c04 	addi	r2,r2,8624
 200298c:	10800003 	ldbu	r2,0(r2)
 2002990:	e0bfff05 	stb	r2,-4(fp)
	unsigned char HV_Inhibit_latch = HV_Inhibit;
 2002994:	00810034 	movhi	r2,1024
 2002998:	10885004 	addi	r2,r2,8512
 200299c:	10800003 	ldbu	r2,0(r2)
 20029a0:	e0bfff45 	stb	r2,-3(fp)



	if(preionFault_latch || HV_Inhibit_latch)
 20029a4:	e0bfff03 	ldbu	r2,-4(fp)
 20029a8:	1000021e 	bne	r2,zero,20029b4 <PreionFaultHandler+0x40>
 20029ac:	e0bfff43 	ldbu	r2,-3(fp)
 20029b0:	10000626 	beq	r2,zero,20029cc <PreionFaultHandler+0x58>
	{
		DisCurPos(2,1);
 20029b4:	01000084 	movi	r4,2
 20029b8:	01400044 	movi	r5,1
 20029bc:	20005400 	call	2000540 <DisCurPos>
		DisWrStr("  DC Preion Fault!  ");
 20029c0:	01008074 	movhi	r4,513
 20029c4:	2119bb04 	addi	r4,r4,26348
 20029c8:	20006000 	call	2000600 <DisWrStr>
	}

	if(HV_Inhibit_latch)
 20029cc:	e0bfff43 	ldbu	r2,-3(fp)
 20029d0:	10000626 	beq	r2,zero,20029ec <PreionFaultHandler+0x78>
	{
		DisCurPos(3,1);
 20029d4:	010000c4 	movi	r4,3
 20029d8:	01400044 	movi	r5,1
 20029dc:	20005400 	call	2000540 <DisCurPos>
		DisWrStr("     HV Inhibit     ");
 20029e0:	01008074 	movhi	r4,513
 20029e4:	2119c104 	addi	r4,r4,26372
 20029e8:	20006000 	call	2000600 <DisWrStr>
	}
}
 20029ec:	e037883a 	mov	sp,fp
 20029f0:	dfc00117 	ldw	ra,4(sp)
 20029f4:	df000017 	ldw	fp,0(sp)
 20029f8:	dec00204 	addi	sp,sp,8
 20029fc:	f800283a 	ret

02002a00 <PauseSequence>:
 */

//Return 0: Resume
//Return 1: Stop
unsigned char PauseSequence(unsigned char isFromInterlock)
{
 2002a00:	defff804 	addi	sp,sp,-32
 2002a04:	dfc00715 	stw	ra,28(sp)
 2002a08:	df000615 	stw	fp,24(sp)
 2002a0c:	df000604 	addi	fp,sp,24
 2002a10:	2005883a 	mov	r2,r4
 2002a14:	e0bfff05 	stb	r2,-4(fp)
	pauseSeq = 1;
 2002a18:	00810034 	movhi	r2,1024
 2002a1c:	10885c04 	addi	r2,r2,8560
 2002a20:	00c00044 	movi	r3,1
 2002a24:	10c00005 	stb	r3,0(r2)

	unsigned char interlock_latch;
	unsigned int interlock_code_latch;
	unsigned short blink_ctr = 0;
 2002a28:	e03ffa8d 	sth	zero,-22(fp)
	unsigned char keyVal_latch;
	unsigned char interlock_flag;	//This flag is set once an interlock is detected

	interlock_flag = isFromInterlock;		//Initialize Interlock Flag
 2002a2c:	e0bfff03 	ldbu	r2,-4(fp)
 2002a30:	e0bffb05 	stb	r2,-20(fp)

	showFiringInformation();
 2002a34:	20028bc0 	call	20028bc <showFiringInformation>

	KPLED_All_Off();
 2002a38:	2000f400 	call	2000f40 <KPLED_All_Off>
	KPLED_Enable(1);
 2002a3c:	01000044 	movi	r4,1
 2002a40:	20012cc0 	call	20012cc <KPLED_Enable>
	KPLED_Menu(3);
 2002a44:	010000c4 	movi	r4,3
 2002a48:	20011340 	call	2001134 <KPLED_Menu>


	//Construct the Pause screen
	DisCurPos(1,1);
 2002a4c:	01000044 	movi	r4,1
 2002a50:	01400044 	movi	r5,1
 2002a54:	20005400 	call	2000540 <DisCurPos>
	DisWrStr(" Firing Seq. Paused");
 2002a58:	01008074 	movhi	r4,513
 2002a5c:	2119c704 	addi	r4,r4,26396
 2002a60:	20006000 	call	2000600 <DisWrStr>
	DisCurPos(4,1);
 2002a64:	01000104 	movi	r4,4
 2002a68:	01400044 	movi	r5,1
 2002a6c:	20005400 	call	2000540 <DisCurPos>
	DisWrStr("ENA=Resume MENU=Stop");
 2002a70:	01008074 	movhi	r4,513
 2002a74:	2119cc04 	addi	r4,r4,26416
 2002a78:	20006000 	call	2000600 <DisWrStr>
	unsigned int seqCount_latch = seqCount;
 2002a7c:	00810034 	movhi	r2,1024
 2002a80:	10885804 	addi	r2,r2,8544
 2002a84:	10800017 	ldw	r2,0(r2)
 2002a88:	e0bffc15 	stw	r2,-16(fp)
	DisCurPos(2,10);
 2002a8c:	01000084 	movi	r4,2
 2002a90:	01400284 	movi	r5,10
 2002a94:	20005400 	call	2000540 <DisCurPos>
	DisWrStr(Num5toStr5(seqCount_latch));
 2002a98:	e13ffc17 	ldw	r4,-16(fp)
 2002a9c:	20067980 	call	2006798 <Num5toStr5>
 2002aa0:	1009883a 	mov	r4,r2
 2002aa4:	20006000 	call	2000600 <DisWrStr>
	DisCurPos(3,11);
 2002aa8:	010000c4 	movi	r4,3
 2002aac:	014002c4 	movi	r5,11
 2002ab0:	20005400 	call	2000540 <DisCurPos>
	DisWrStr(Num10toStr10(getCounter1Val()));
 2002ab4:	200029c0 	call	200029c <getCounter1Val>
 2002ab8:	1009883a 	mov	r4,r2
 2002abc:	20054500 	call	2005450 <Num10toStr10>
 2002ac0:	1009883a 	mov	r4,r2
 2002ac4:	20006000 	call	2000600 <DisWrStr>
 2002ac8:	00000106 	br	2002ad0 <PauseSequence+0xd0>
						}
					}
				}
			}
		}
	}
 2002acc:	0001883a 	nop
	DisWrStr(Num10toStr10(getCounter1Val()));

	//Pull interlock
	while(1)
	{
		interlock_latch = interlock;
 2002ad0:	00810034 	movhi	r2,1024
 2002ad4:	10886404 	addi	r2,r2,8592
 2002ad8:	10800003 	ldbu	r2,0(r2)
 2002adc:	e0bffa05 	stb	r2,-24(fp)
		interlock_code_latch = interlock_code;
 2002ae0:	00810034 	movhi	r2,1024
 2002ae4:	10882404 	addi	r2,r2,8336
 2002ae8:	10800003 	ldbu	r2,0(r2)
 2002aec:	10803fcc 	andi	r2,r2,255
 2002af0:	e0bffd15 	stw	r2,-12(fp)
		clrInterlock = 1;
 2002af4:	00810034 	movhi	r2,1024
 2002af8:	10886004 	addi	r2,r2,8576
 2002afc:	00c00044 	movi	r3,1
 2002b00:	10c00005 	stb	r3,0(r2)
		clrInterlock = 0;
 2002b04:	00810034 	movhi	r2,1024
 2002b08:	10886004 	addi	r2,r2,8576
 2002b0c:	10000005 	stb	zero,0(r2)


		if(interlock_latch)
 2002b10:	e0bffa03 	ldbu	r2,-24(fp)
 2002b14:	10003d26 	beq	r2,zero,2002c0c <PauseSequence+0x20c>
		{
			if(! interlock_flag)
 2002b18:	e0bffb03 	ldbu	r2,-20(fp)
 2002b1c:	10000a1e 	bne	r2,zero,2002b48 <PauseSequence+0x148>
			{
				KPLED_Enable(0);
 2002b20:	0009883a 	mov	r4,zero
 2002b24:	20012cc0 	call	20012cc <KPLED_Enable>
				DisCurPos(4,1);
 2002b28:	01000104 	movi	r4,4
 2002b2c:	01400044 	movi	r5,1
 2002b30:	20005400 	call	2000540 <DisCurPos>
				DisWrStr("          ");
 2002b34:	01008074 	movhi	r4,513
 2002b38:	2119d204 	addi	r4,r4,26440
 2002b3c:	20006000 	call	2000600 <DisWrStr>
				interlock_flag = 1;
 2002b40:	00800044 	movi	r2,1
 2002b44:	e0bffb05 	stb	r2,-20(fp)
			}
			blink_ctr++;
 2002b48:	e0bffa8b 	ldhu	r2,-22(fp)
 2002b4c:	10800044 	addi	r2,r2,1
 2002b50:	e0bffa8d 	sth	r2,-22(fp)
			if(blink_ctr == 50000)
 2002b54:	e0fffa8b 	ldhu	r3,-22(fp)
 2002b58:	00b0d414 	movui	r2,50000
 2002b5c:	18800b1e 	bne	r3,r2,2002b8c <PauseSequence+0x18c>
			{
				DisCurPos(3,6);
 2002b60:	010000c4 	movi	r4,3
 2002b64:	01400184 	movi	r5,6
 2002b68:	20005400 	call	2000540 <DisCurPos>
				ShowInterlockMessage(interlock_code);
 2002b6c:	00810034 	movhi	r2,1024
 2002b70:	10882404 	addi	r2,r2,8336
 2002b74:	10800003 	ldbu	r2,0(r2)
 2002b78:	10803fcc 	andi	r2,r2,255
 2002b7c:	1009883a 	mov	r4,r2
 2002b80:	20033700 	call	2003370 <ShowInterlockMessage>
				//DisWrStr("Interlock!");
				blink_ctr = 0;
 2002b84:	e03ffa8d 	sth	zero,-22(fp)
 2002b88:	00000506 	br	2002ba0 <PauseSequence+0x1a0>
			}
			else if(blink_ctr == 25000)
 2002b8c:	e0bffa8b 	ldhu	r2,-22(fp)
 2002b90:	10986a18 	cmpnei	r2,r2,25000
 2002b94:	1000021e 	bne	r2,zero,2002ba0 <PauseSequence+0x1a0>
			{
				DisClearRow(3);
 2002b98:	010000c4 	movi	r4,3
 2002b9c:	20006ac0 	call	20006ac <DisClearRow>
			}

			if(keyFlag)
 2002ba0:	00810034 	movhi	r2,1024
 2002ba4:	10889804 	addi	r2,r2,8800
 2002ba8:	10800003 	ldbu	r2,0(r2)
 2002bac:	10803fcc 	andi	r2,r2,255
 2002bb0:	103fc626 	beq	r2,zero,2002acc <PauseSequence+0xcc>
			{
				delay(100);
 2002bb4:	01001904 	movi	r4,100
 2002bb8:	20019dc0 	call	20019dc <delay>
				if(keyFlag)
 2002bbc:	00810034 	movhi	r2,1024
 2002bc0:	10889804 	addi	r2,r2,8800
 2002bc4:	10800003 	ldbu	r2,0(r2)
 2002bc8:	10803fcc 	andi	r2,r2,255
 2002bcc:	103fbf26 	beq	r2,zero,2002acc <PauseSequence+0xcc>
				{
					keyVal_latch = keyVal;
 2002bd0:	00810034 	movhi	r2,1024
 2002bd4:	10889404 	addi	r2,r2,8784
 2002bd8:	10800003 	ldbu	r2,0(r2)
 2002bdc:	e0bffe05 	stb	r2,-8(fp)
					if(keyVal_latch==KEY_MENU)
 2002be0:	e0bffe03 	ldbu	r2,-8(fp)
 2002be4:	10800318 	cmpnei	r2,r2,12
 2002be8:	103fb81e 	bne	r2,zero,2002acc <PauseSequence+0xcc>
					{
						while(keyFlag);
 2002bec:	0001883a 	nop
 2002bf0:	00810034 	movhi	r2,1024
 2002bf4:	10889804 	addi	r2,r2,8800
 2002bf8:	10800003 	ldbu	r2,0(r2)
 2002bfc:	10803fcc 	andi	r2,r2,255
 2002c00:	103ffb1e 	bne	r2,zero,2002bf0 <PauseSequence+0x1f0>
						return(1);
 2002c04:	00800044 	movi	r2,1
 2002c08:	00005106 	br	2002d50 <PauseSequence+0x350>
				}
			}
		}
		else
		{
			if(interlock_flag)
 2002c0c:	e0bffb03 	ldbu	r2,-20(fp)
 2002c10:	10004c26 	beq	r2,zero,2002d44 <PauseSequence+0x344>
			{
				KPLED_Enable(1);
 2002c14:	01000044 	movi	r4,1
 2002c18:	20012cc0 	call	20012cc <KPLED_Enable>
				DisCurPos(3,1);
 2002c1c:	010000c4 	movi	r4,3
 2002c20:	01400044 	movi	r5,1
 2002c24:	20005400 	call	2000540 <DisCurPos>
				DisWrStr(" Interlock Occurred ");
 2002c28:	01008074 	movhi	r4,513
 2002c2c:	2119d504 	addi	r4,r4,26452
 2002c30:	20006000 	call	2000600 <DisWrStr>
				DisCurPos(4,1);
 2002c34:	01000104 	movi	r4,4
 2002c38:	01400044 	movi	r5,1
 2002c3c:	20005400 	call	2000540 <DisCurPos>
				DisWrStr("ENA=Resume");
 2002c40:	01008074 	movhi	r4,513
 2002c44:	2119db04 	addi	r4,r4,26476
 2002c48:	20006000 	call	2000600 <DisWrStr>
				interlock_flag = 0;
 2002c4c:	e03ffb05 	stb	zero,-20(fp)
			}
			while(! interlock_latch)
 2002c50:	00003c06 	br	2002d44 <PauseSequence+0x344>
			{
				clrInterlock = 1;
 2002c54:	00810034 	movhi	r2,1024
 2002c58:	10886004 	addi	r2,r2,8576
 2002c5c:	00c00044 	movi	r3,1
 2002c60:	10c00005 	stb	r3,0(r2)
				clrInterlock = 0;
 2002c64:	00810034 	movhi	r2,1024
 2002c68:	10886004 	addi	r2,r2,8576
 2002c6c:	10000005 	stb	zero,0(r2)
				interlock_latch = interlock;
 2002c70:	00810034 	movhi	r2,1024
 2002c74:	10886404 	addi	r2,r2,8592
 2002c78:	10800003 	ldbu	r2,0(r2)
 2002c7c:	e0bffa05 	stb	r2,-24(fp)
				if(keyFlag)
 2002c80:	00810034 	movhi	r2,1024
 2002c84:	10889804 	addi	r2,r2,8800
 2002c88:	10800003 	ldbu	r2,0(r2)
 2002c8c:	10803fcc 	andi	r2,r2,255
 2002c90:	10002c26 	beq	r2,zero,2002d44 <PauseSequence+0x344>
				{
					delay(100);
 2002c94:	01001904 	movi	r4,100
 2002c98:	20019dc0 	call	20019dc <delay>
					if(keyFlag)
 2002c9c:	00810034 	movhi	r2,1024
 2002ca0:	10889804 	addi	r2,r2,8800
 2002ca4:	10800003 	ldbu	r2,0(r2)
 2002ca8:	10803fcc 	andi	r2,r2,255
 2002cac:	10002526 	beq	r2,zero,2002d44 <PauseSequence+0x344>
					{
						keyVal_latch = keyVal;
 2002cb0:	00810034 	movhi	r2,1024
 2002cb4:	10889404 	addi	r2,r2,8784
 2002cb8:	10800003 	ldbu	r2,0(r2)
 2002cbc:	e0bffe05 	stb	r2,-8(fp)
						if(keyVal_latch==KEY_ENA)
 2002cc0:	e0bffe03 	ldbu	r2,-8(fp)
 2002cc4:	108003d8 	cmpnei	r2,r2,15
 2002cc8:	1000131e 	bne	r2,zero,2002d18 <PauseSequence+0x318>
						{
							while(keyFlag);
 2002ccc:	0001883a 	nop
 2002cd0:	00810034 	movhi	r2,1024
 2002cd4:	10889804 	addi	r2,r2,8800
 2002cd8:	10800003 	ldbu	r2,0(r2)
 2002cdc:	10803fcc 	andi	r2,r2,255
 2002ce0:	103ffb1e 	bne	r2,zero,2002cd0 <PauseSequence+0x2d0>
							showFiringInformation();
 2002ce4:	20028bc0 	call	20028bc <showFiringInformation>
							clrInterlock = 1;
 2002ce8:	00810034 	movhi	r2,1024
 2002cec:	10886004 	addi	r2,r2,8576
 2002cf0:	00c00044 	movi	r3,1
 2002cf4:	10c00005 	stb	r3,0(r2)
							clrInterlock = 0;
 2002cf8:	00810034 	movhi	r2,1024
 2002cfc:	10886004 	addi	r2,r2,8576
 2002d00:	10000005 	stb	zero,0(r2)
							pauseSeq = 0;
 2002d04:	00810034 	movhi	r2,1024
 2002d08:	10885c04 	addi	r2,r2,8560
 2002d0c:	10000005 	stb	zero,0(r2)
							return(0);
 2002d10:	0005883a 	mov	r2,zero
 2002d14:	00000e06 	br	2002d50 <PauseSequence+0x350>
						}
						else if(keyVal_latch==KEY_MENU)
 2002d18:	e0bffe03 	ldbu	r2,-8(fp)
 2002d1c:	10800318 	cmpnei	r2,r2,12
 2002d20:	1000081e 	bne	r2,zero,2002d44 <PauseSequence+0x344>
						{
							while(keyFlag);
 2002d24:	0001883a 	nop
 2002d28:	00810034 	movhi	r2,1024
 2002d2c:	10889804 	addi	r2,r2,8800
 2002d30:	10800003 	ldbu	r2,0(r2)
 2002d34:	10803fcc 	andi	r2,r2,255
 2002d38:	103ffb1e 	bne	r2,zero,2002d28 <PauseSequence+0x328>
							return(1);
 2002d3c:	00800044 	movi	r2,1
 2002d40:	00000306 	br	2002d50 <PauseSequence+0x350>
				DisWrStr(" Interlock Occurred ");
				DisCurPos(4,1);
				DisWrStr("ENA=Resume");
				interlock_flag = 0;
			}
			while(! interlock_latch)
 2002d44:	e0bffa03 	ldbu	r2,-24(fp)
 2002d48:	103fc226 	beq	r2,zero,2002c54 <PauseSequence+0x254>
						}
					}
				}
			}
		}
	}
 2002d4c:	003f5f06 	br	2002acc <PauseSequence+0xcc>
	return(0);
}
 2002d50:	e037883a 	mov	sp,fp
 2002d54:	dfc00117 	ldw	ra,4(sp)
 2002d58:	df000017 	ldw	fp,0(sp)
 2002d5c:	dec00204 	addi	sp,sp,8
 2002d60:	f800283a 	ret

02002d64 <StopFiring>:


void StopFiring()
{
 2002d64:	defffe04 	addi	sp,sp,-8
 2002d68:	dfc00115 	stw	ra,4(sp)
 2002d6c:	df000015 	stw	fp,0(sp)
 2002d70:	d839883a 	mov	fp,sp
	Stop();
 2002d74:	20018400 	call	2001840 <Stop>
	DisClear();
 2002d78:	20006780 	call	2000678 <DisClear>
	DisCurPos(2,5);
 2002d7c:	01000084 	movi	r4,2
 2002d80:	01400144 	movi	r5,5
 2002d84:	20005400 	call	2000540 <DisCurPos>
	DisWrStr("Stopping...");
 2002d88:	01008074 	movhi	r4,513
 2002d8c:	2119de04 	addi	r4,r4,26488
 2002d90:	20006000 	call	2000600 <DisWrStr>

	//Refresh Timing Engine Registers *** Necessary!!
	reloadRegisters();
 2002d94:	2001c980 	call	2001c98 <reloadRegisters>

	//Clear Preion Fault
	clrPreionFault = 1;
 2002d98:	00810034 	movhi	r2,1024
 2002d9c:	10886804 	addi	r2,r2,8608
 2002da0:	00c00044 	movi	r3,1
 2002da4:	10c00005 	stb	r3,0(r2)
	clrPreionFault = 0;
 2002da8:	00810034 	movhi	r2,1024
 2002dac:	10886804 	addi	r2,r2,8608
 2002db0:	10000005 	stb	zero,0(r2)
	//Clear Interlock
	clrInterlock = 1;
 2002db4:	00810034 	movhi	r2,1024
 2002db8:	10886004 	addi	r2,r2,8576
 2002dbc:	00c00044 	movi	r3,1
 2002dc0:	10c00005 	stb	r3,0(r2)
	clrInterlock = 0;
 2002dc4:	00810034 	movhi	r2,1024
 2002dc8:	10886004 	addi	r2,r2,8576
 2002dcc:	10000005 	stb	zero,0(r2)
	//Clear Pause Lock
	pauseSeq = 0;
 2002dd0:	00810034 	movhi	r2,1024
 2002dd4:	10885c04 	addi	r2,r2,8560
 2002dd8:	10000005 	stb	zero,0(r2)

	//Save Counter to FRAM
	SaveCounterToFRAM();
 2002ddc:	20002cc0 	call	20002cc <SaveCounterToFRAM>

	DisCurPos(2,4);
 2002de0:	01000084 	movi	r4,2
 2002de4:	01400104 	movi	r5,4
 2002de8:	20005400 	call	2000540 <DisCurPos>
	DisWrStr("Firing Stopped");
 2002dec:	01008074 	movhi	r4,513
 2002df0:	2119e104 	addi	r4,r4,26500
 2002df4:	20006000 	call	2000600 <DisWrStr>
	delay(MSG_DELAY);
 2002df8:	01271014 	movui	r4,40000
 2002dfc:	20019dc0 	call	20019dc <delay>
	while(keyFlag);
 2002e00:	0001883a 	nop
 2002e04:	00810034 	movhi	r2,1024
 2002e08:	10889804 	addi	r2,r2,8800
 2002e0c:	10800003 	ldbu	r2,0(r2)
 2002e10:	10803fcc 	andi	r2,r2,255
 2002e14:	103ffb1e 	bne	r2,zero,2002e04 <StopFiring+0xa0>
	return;
 2002e18:	0001883a 	nop
}
 2002e1c:	e037883a 	mov	sp,fp
 2002e20:	dfc00117 	ldw	ra,4(sp)
 2002e24:	df000017 	ldw	fp,0(sp)
 2002e28:	dec00204 	addi	sp,sp,8
 2002e2c:	f800283a 	ret

02002e30 <StartFiring>:
 * Start Firing
 * Before the new interlock handler system is implemented, the Preion Fault is handled with a separate logic block which is designed in Quartus II
 */
//1: Fire Again		0:Exit
unsigned char StartFiring()
{
 2002e30:	defffb04 	addi	sp,sp,-20
 2002e34:	dfc00415 	stw	ra,16(sp)
 2002e38:	df000315 	stw	fp,12(sp)
 2002e3c:	df000304 	addi	fp,sp,12
	unsigned char isFiring_latch;
	unsigned int  seqCount_latch;
	unsigned char interlock_latch;
	unsigned char preionFault_latch;
	unsigned char HV_Inhibit_latch;
	unsigned char preionFault_flag = 0;
 2002e40:	e03ffd45 	stb	zero,-11(fp)
	unsigned char stop_flag = 0;
 2002e44:	e03ffd85 	stb	zero,-10(fp)
	DisClear();
 2002e48:	20006780 	call	2000678 <DisClear>
	DisShowCur(0);
 2002e4c:	0009883a 	mov	r4,zero
 2002e50:	20004fc0 	call	20004fc <DisShowCur>
	DisCurPos(2,5);
 2002e54:	01000084 	movi	r4,2
 2002e58:	01400144 	movi	r5,5
 2002e5c:	20005400 	call	2000540 <DisCurPos>
	DisWrStr("Starting...");
 2002e60:	01008074 	movhi	r4,513
 2002e64:	2119e504 	addi	r4,r4,26516
 2002e68:	20006000 	call	2000600 <DisWrStr>

	//Clear Preion Fault
	clrPreionFault = 1;
 2002e6c:	00810034 	movhi	r2,1024
 2002e70:	10886804 	addi	r2,r2,8608
 2002e74:	00c00044 	movi	r3,1
 2002e78:	10c00005 	stb	r3,0(r2)
	clrPreionFault = 0;
 2002e7c:	00810034 	movhi	r2,1024
 2002e80:	10886804 	addi	r2,r2,8608
 2002e84:	10000005 	stb	zero,0(r2)
	//Clear Interlock
	clrInterlock = 1;
 2002e88:	00810034 	movhi	r2,1024
 2002e8c:	10886004 	addi	r2,r2,8576
 2002e90:	00c00044 	movi	r3,1
 2002e94:	10c00005 	stb	r3,0(r2)
	clrInterlock = 0;
 2002e98:	00810034 	movhi	r2,1024
 2002e9c:	10886004 	addi	r2,r2,8576
 2002ea0:	10000005 	stb	zero,0(r2)
	//Clear Pause Lock
	pauseSeq = 0;
 2002ea4:	00810034 	movhi	r2,1024
 2002ea8:	10885c04 	addi	r2,r2,8560
 2002eac:	10000005 	stb	zero,0(r2)

	Fire();
 2002eb0:	20017f80 	call	20017f8 <Fire>
	delay(100);
 2002eb4:	01001904 	movi	r4,100
 2002eb8:	20019dc0 	call	20019dc <delay>
	if(isFiring)
 2002ebc:	00810034 	movhi	r2,1024
 2002ec0:	10887804 	addi	r2,r2,8672
 2002ec4:	10800003 	ldbu	r2,0(r2)
 2002ec8:	10803fcc 	andi	r2,r2,255
 2002ecc:	10007026 	beq	r2,zero,2003090 <StartFiring+0x260>
	{
		showFiringInformation();
 2002ed0:	20028bc0 	call	20028bc <showFiringInformation>
		isFiring_latch = isFiring;
 2002ed4:	00810034 	movhi	r2,1024
 2002ed8:	10887804 	addi	r2,r2,8672
 2002edc:	10800003 	ldbu	r2,0(r2)
 2002ee0:	e0bffd05 	stb	r2,-12(fp)
		while(isFiring_latch)
 2002ee4:	00006806 	br	2003088 <StartFiring+0x258>
		{

			isFiring_latch = isFiring;
 2002ee8:	00810034 	movhi	r2,1024
 2002eec:	10887804 	addi	r2,r2,8672
 2002ef0:	10800003 	ldbu	r2,0(r2)
 2002ef4:	e0bffd05 	stb	r2,-12(fp)
			if(! preionFault_flag)								//Check for Preion Fault
 2002ef8:	e0bffd43 	ldbu	r2,-11(fp)
 2002efc:	1000131e 	bne	r2,zero,2002f4c <StartFiring+0x11c>
			{
				//If no preion fault, refresh counter on the screen
				seqCount_latch = seqCount;
 2002f00:	00810034 	movhi	r2,1024
 2002f04:	10885804 	addi	r2,r2,8544
 2002f08:	10800017 	ldw	r2,0(r2)
 2002f0c:	e0bffe15 	stw	r2,-8(fp)
				DisCurPos(2,10);
 2002f10:	01000084 	movi	r4,2
 2002f14:	01400284 	movi	r5,10
 2002f18:	20005400 	call	2000540 <DisCurPos>
				DisWrStr(Num5toStr5(seqCount_latch));
 2002f1c:	e13ffe17 	ldw	r4,-8(fp)
 2002f20:	20067980 	call	2006798 <Num5toStr5>
 2002f24:	1009883a 	mov	r4,r2
 2002f28:	20006000 	call	2000600 <DisWrStr>
				DisCurPos(3,11);
 2002f2c:	010000c4 	movi	r4,3
 2002f30:	014002c4 	movi	r5,11
 2002f34:	20005400 	call	2000540 <DisCurPos>
				DisWrStr(Num10toStr10(getCounter1Val()));
 2002f38:	200029c0 	call	200029c <getCounter1Val>
 2002f3c:	1009883a 	mov	r4,r2
 2002f40:	20054500 	call	2005450 <Num10toStr10>
 2002f44:	1009883a 	mov	r4,r2
 2002f48:	20006000 	call	2000600 <DisWrStr>
			}

			HV_Inhibit_latch = HV_Inhibit;
 2002f4c:	00810034 	movhi	r2,1024
 2002f50:	10885004 	addi	r2,r2,8512
 2002f54:	10800003 	ldbu	r2,0(r2)
 2002f58:	e0bfff05 	stb	r2,-4(fp)
			preionFault_latch = preionFault;
 2002f5c:	00810034 	movhi	r2,1024
 2002f60:	10886c04 	addi	r2,r2,8624
 2002f64:	10800003 	ldbu	r2,0(r2)
 2002f68:	e0bfff45 	stb	r2,-3(fp)
			if(preionFault_latch || HV_Inhibit_latch)
 2002f6c:	e0bfff43 	ldbu	r2,-3(fp)
 2002f70:	1000021e 	bne	r2,zero,2002f7c <StartFiring+0x14c>
 2002f74:	e0bfff03 	ldbu	r2,-4(fp)
 2002f78:	10000426 	beq	r2,zero,2002f8c <StartFiring+0x15c>
			{
				preionFault_flag = 1;
 2002f7c:	00800044 	movi	r2,1
 2002f80:	e0bffd45 	stb	r2,-11(fp)
				PreionFaultHandler();
 2002f84:	20029740 	call	2002974 <PreionFaultHandler>
 2002f88:	00000406 	br	2002f9c <StartFiring+0x16c>
			}
			else if(preionFault_flag)
 2002f8c:	e0bffd43 	ldbu	r2,-11(fp)
 2002f90:	10000226 	beq	r2,zero,2002f9c <StartFiring+0x16c>
			{
				preionFault_flag = 0;
 2002f94:	e03ffd45 	stb	zero,-11(fp)
				showFiringInformation();
 2002f98:	20028bc0 	call	20028bc <showFiringInformation>
			}
			interlock_latch = interlock;
 2002f9c:	00810034 	movhi	r2,1024
 2002fa0:	10886404 	addi	r2,r2,8592
 2002fa4:	10800003 	ldbu	r2,0(r2)
 2002fa8:	e0bfff85 	stb	r2,-2(fp)
			if(interlock_latch)
 2002fac:	e0bfff83 	ldbu	r2,-2(fp)
 2002fb0:	10000326 	beq	r2,zero,2002fc0 <StartFiring+0x190>
			{
				stop_flag = PauseSequence(1);
 2002fb4:	01000044 	movi	r4,1
 2002fb8:	2002a000 	call	2002a00 <PauseSequence>
 2002fbc:	e0bffd85 	stb	r2,-10(fp)
			}

			if(stop_flag)
 2002fc0:	e0bffd83 	ldbu	r2,-10(fp)
 2002fc4:	10000326 	beq	r2,zero,2002fd4 <StartFiring+0x1a4>
			{
				StopFiring();
 2002fc8:	2002d640 	call	2002d64 <StopFiring>
				return 0;
 2002fcc:	0005883a 	mov	r2,zero
 2002fd0:	00007606 	br	20031ac <StartFiring+0x37c>
			}
			if(keyFlag)
 2002fd4:	00810034 	movhi	r2,1024
 2002fd8:	10889804 	addi	r2,r2,8800
 2002fdc:	10800003 	ldbu	r2,0(r2)
 2002fe0:	10803fcc 	andi	r2,r2,255
 2002fe4:	10002826 	beq	r2,zero,2003088 <StartFiring+0x258>
			{
				delay(100);
 2002fe8:	01001904 	movi	r4,100
 2002fec:	20019dc0 	call	20019dc <delay>
				if(keyFlag)
 2002ff0:	00810034 	movhi	r2,1024
 2002ff4:	10889804 	addi	r2,r2,8800
 2002ff8:	10800003 	ldbu	r2,0(r2)
 2002ffc:	10803fcc 	andi	r2,r2,255
 2003000:	10002126 	beq	r2,zero,2003088 <StartFiring+0x258>
				{
					keyVal_latch = keyVal;
 2003004:	00810034 	movhi	r2,1024
 2003008:	10889404 	addi	r2,r2,8784
 200300c:	10800003 	ldbu	r2,0(r2)
 2003010:	e0bfffc5 	stb	r2,-1(fp)
					if(keyVal_latch == KEY_MENU)
 2003014:	e0bfffc3 	ldbu	r2,-1(fp)
 2003018:	10800318 	cmpnei	r2,r2,12
 200301c:	1000091e 	bne	r2,zero,2003044 <StartFiring+0x214>
					{
						while(keyFlag);
 2003020:	0001883a 	nop
 2003024:	00810034 	movhi	r2,1024
 2003028:	10889804 	addi	r2,r2,8800
 200302c:	10800003 	ldbu	r2,0(r2)
 2003030:	10803fcc 	andi	r2,r2,255
 2003034:	103ffb1e 	bne	r2,zero,2003024 <StartFiring+0x1f4>
						StopFiring();
 2003038:	2002d640 	call	2002d64 <StopFiring>
						return 0;
 200303c:	0005883a 	mov	r2,zero
 2003040:	00005a06 	br	20031ac <StartFiring+0x37c>
					}
					else if(keyVal_latch == KEY_ENA)
 2003044:	e0bfffc3 	ldbu	r2,-1(fp)
 2003048:	108003d8 	cmpnei	r2,r2,15
 200304c:	10000e1e 	bne	r2,zero,2003088 <StartFiring+0x258>
					{
						while(keyFlag);
 2003050:	0001883a 	nop
 2003054:	00810034 	movhi	r2,1024
 2003058:	10889804 	addi	r2,r2,8800
 200305c:	10800003 	ldbu	r2,0(r2)
 2003060:	10803fcc 	andi	r2,r2,255
 2003064:	103ffb1e 	bne	r2,zero,2003054 <StartFiring+0x224>
						stop_flag = PauseSequence(0);
 2003068:	0009883a 	mov	r4,zero
 200306c:	2002a000 	call	2002a00 <PauseSequence>
 2003070:	e0bffd85 	stb	r2,-10(fp)
						if(stop_flag)
 2003074:	e0bffd83 	ldbu	r2,-10(fp)
 2003078:	10000326 	beq	r2,zero,2003088 <StartFiring+0x258>
						{
							StopFiring();
 200307c:	2002d640 	call	2002d64 <StopFiring>
							return 0;
 2003080:	0005883a 	mov	r2,zero
 2003084:	00004906 	br	20031ac <StartFiring+0x37c>
	delay(100);
	if(isFiring)
	{
		showFiringInformation();
		isFiring_latch = isFiring;
		while(isFiring_latch)
 2003088:	e0bffd03 	ldbu	r2,-12(fp)
 200308c:	103f961e 	bne	r2,zero,2002ee8 <StartFiring+0xb8>
			}
		}
	}


	KPLED_All_Off();
 2003090:	2000f400 	call	2000f40 <KPLED_All_Off>
	KPLED_Menu(3);
 2003094:	010000c4 	movi	r4,3
 2003098:	20011340 	call	2001134 <KPLED_Menu>
	KPLED_Fire(1);
 200309c:	01000044 	movi	r4,1
 20030a0:	20013540 	call	2001354 <KPLED_Fire>

	DisClear();
 20030a4:	20006780 	call	2000678 <DisClear>
	DisCurPos(2,5);
 20030a8:	01000084 	movi	r4,2
 20030ac:	01400144 	movi	r5,5
 20030b0:	20005400 	call	2000540 <DisCurPos>
	DisWrStr("Done Firing");
 20030b4:	01008074 	movhi	r4,513
 20030b8:	2119e804 	addi	r4,r4,26528
 20030bc:	20006000 	call	2000600 <DisWrStr>

	DisCurPos(3,3);
 20030c0:	010000c4 	movi	r4,3
 20030c4:	014000c4 	movi	r5,3
 20030c8:	20005400 	call	2000540 <DisCurPos>
	DisWrStr("MENU=Exit");
 20030cc:	01008074 	movhi	r4,513
 20030d0:	2119eb04 	addi	r4,r4,26540
 20030d4:	20006000 	call	2000600 <DisWrStr>

	DisCurPos(4,3);
 20030d8:	01000104 	movi	r4,4
 20030dc:	014000c4 	movi	r5,3
 20030e0:	20005400 	call	2000540 <DisCurPos>
	DisWrStr("FIRE=Fire Again");
 20030e4:	01008074 	movhi	r4,513
 20030e8:	2119ee04 	addi	r4,r4,26552
 20030ec:	20006000 	call	2000600 <DisWrStr>
 20030f0:	00000106 	br	20030f8 <StartFiring+0x2c8>
					return 1;
				}
			}
			while(keyFlag);
		}
	}
 20030f4:	0001883a 	nop
	DisCurPos(4,3);
	DisWrStr("FIRE=Fire Again");

	while(1)
	{
		if(keyFlag)
 20030f8:	00810034 	movhi	r2,1024
 20030fc:	10889804 	addi	r2,r2,8800
 2003100:	10800003 	ldbu	r2,0(r2)
 2003104:	10803fcc 	andi	r2,r2,255
 2003108:	103ffa26 	beq	r2,zero,20030f4 <StartFiring+0x2c4>
		{
			delay(100);
 200310c:	01001904 	movi	r4,100
 2003110:	20019dc0 	call	20019dc <delay>
			if(keyFlag)
 2003114:	00810034 	movhi	r2,1024
 2003118:	10889804 	addi	r2,r2,8800
 200311c:	10800003 	ldbu	r2,0(r2)
 2003120:	10803fcc 	andi	r2,r2,255
 2003124:	10001a26 	beq	r2,zero,2003190 <StartFiring+0x360>
			{
				keyVal_latch = keyVal;
 2003128:	00810034 	movhi	r2,1024
 200312c:	10889404 	addi	r2,r2,8784
 2003130:	10800003 	ldbu	r2,0(r2)
 2003134:	e0bfffc5 	stb	r2,-1(fp)
				if(keyVal_latch == KEY_MENU)
 2003138:	e0bfffc3 	ldbu	r2,-1(fp)
 200313c:	10800318 	cmpnei	r2,r2,12
 2003140:	1000081e 	bne	r2,zero,2003164 <StartFiring+0x334>
				{
					while(keyFlag);
 2003144:	0001883a 	nop
 2003148:	00810034 	movhi	r2,1024
 200314c:	10889804 	addi	r2,r2,8800
 2003150:	10800003 	ldbu	r2,0(r2)
 2003154:	10803fcc 	andi	r2,r2,255
 2003158:	103ffb1e 	bne	r2,zero,2003148 <StartFiring+0x318>
					return 0;
 200315c:	0005883a 	mov	r2,zero
 2003160:	00001206 	br	20031ac <StartFiring+0x37c>
				}
				else if(keyVal_latch == KEY_FIRE)
 2003164:	e0bfffc3 	ldbu	r2,-1(fp)
 2003168:	10800418 	cmpnei	r2,r2,16
 200316c:	1000081e 	bne	r2,zero,2003190 <StartFiring+0x360>
				{
					while(keyFlag);
 2003170:	0001883a 	nop
 2003174:	00810034 	movhi	r2,1024
 2003178:	10889804 	addi	r2,r2,8800
 200317c:	10800003 	ldbu	r2,0(r2)
 2003180:	10803fcc 	andi	r2,r2,255
 2003184:	103ffb1e 	bne	r2,zero,2003174 <StartFiring+0x344>
					return 1;
 2003188:	00800044 	movi	r2,1
 200318c:	00000706 	br	20031ac <StartFiring+0x37c>
				}
			}
			while(keyFlag);
 2003190:	0001883a 	nop
 2003194:	00810034 	movhi	r2,1024
 2003198:	10889804 	addi	r2,r2,8800
 200319c:	10800003 	ldbu	r2,0(r2)
 20031a0:	10803fcc 	andi	r2,r2,255
 20031a4:	103ffb1e 	bne	r2,zero,2003194 <StartFiring+0x364>
		}
	}
 20031a8:	003fd206 	br	20030f4 <StartFiring+0x2c4>
	return 0;
}
 20031ac:	e037883a 	mov	sp,fp
 20031b0:	dfc00117 	ldw	ra,4(sp)
 20031b4:	df000017 	ldw	fp,0(sp)
 20031b8:	dec00204 	addi	sp,sp,8
 20031bc:	f800283a 	ret

020031c0 <enterFireMenu>:

void enterFireMenu()
{
 20031c0:	defffd04 	addi	sp,sp,-12
 20031c4:	dfc00215 	stw	ra,8(sp)
 20031c8:	df000115 	stw	fp,4(sp)
 20031cc:	df000104 	addi	fp,sp,4
	if(!PreFiringErrChk())		//If PreFiringErrChk() returns 0, then there is no error.
 20031d0:	20026540 	call	2002654 <PreFiringErrChk>
 20031d4:	10803fcc 	andi	r2,r2,255
 20031d8:	1000601e 	bne	r2,zero,200335c <enterFireMenu+0x19c>
	{
		KPLED_All_Off();
 20031dc:	2000f400 	call	2000f40 <KPLED_All_Off>
		KPLED_Fire(1);
 20031e0:	01000044 	movi	r4,1
 20031e4:	20013540 	call	2001354 <KPLED_Fire>
		KPLED_Menu(3);
 20031e8:	010000c4 	movi	r4,3
 20031ec:	20011340 	call	2001134 <KPLED_Menu>

		DisClear();
 20031f0:	20006780 	call	2000678 <DisClear>
		DisShowCur(0);
 20031f4:	0009883a 	mov	r4,zero
 20031f8:	20004fc0 	call	20004fc <DisShowCur>
		DisCurPos(1,1);
 20031fc:	01000044 	movi	r4,1
 2003200:	01400044 	movi	r5,1
 2003204:	20005400 	call	2000540 <DisCurPos>
		DisWrStr("Confirm to Fire?");
 2003208:	01008074 	movhi	r4,513
 200320c:	2119f204 	addi	r4,r4,26568
 2003210:	20006000 	call	2000600 <DisWrStr>
		DisCurPos(2,1);
 2003214:	01000084 	movi	r4,2
 2003218:	01400044 	movi	r5,1
 200321c:	20005400 	call	2000540 <DisCurPos>
		DisWrStr("   Yes: Press FIRE");
 2003220:	01008074 	movhi	r4,513
 2003224:	2119f704 	addi	r4,r4,26588
 2003228:	20006000 	call	2000600 <DisWrStr>
		DisCurPos(3,1);
 200322c:	010000c4 	movi	r4,3
 2003230:	01400044 	movi	r5,1
 2003234:	20005400 	call	2000540 <DisCurPos>
		DisWrStr("   No:  Press MENU");
 2003238:	01008074 	movhi	r4,513
 200323c:	2119fc04 	addi	r4,r4,26608
 2003240:	20006000 	call	2000600 <DisWrStr>
		DisCurPos(4,1);
 2003244:	01000104 	movi	r4,4
 2003248:	01400044 	movi	r5,1
 200324c:	20005400 	call	2000540 <DisCurPos>
 2003250:	00000106 	br	2003258 <enterFireMenu+0x98>
						return;
					}
				}
				while(keyFlag);
			}
		}
 2003254:	0001883a 	nop
		DisCurPos(4,1);

		unsigned char keyVal_latch;
		while(1)
		{
			if(PreFiringErrChk())	//If PreFiringErrChk() returns 1, then there is  error.
 2003258:	20026540 	call	2002654 <PreFiringErrChk>
 200325c:	10803fcc 	andi	r2,r2,255
 2003260:	10003b1e 	bne	r2,zero,2003350 <enterFireMenu+0x190>
			{
				return;
			}
			KPLED_All_Off();
 2003264:	2000f400 	call	2000f40 <KPLED_All_Off>
			KPLED_Fire(1);
 2003268:	01000044 	movi	r4,1
 200326c:	20013540 	call	2001354 <KPLED_Fire>
			KPLED_Menu(3);
 2003270:	010000c4 	movi	r4,3
 2003274:	20011340 	call	2001134 <KPLED_Menu>
			if(keyFlag)
 2003278:	00810034 	movhi	r2,1024
 200327c:	10889804 	addi	r2,r2,8800
 2003280:	10800003 	ldbu	r2,0(r2)
 2003284:	10803fcc 	andi	r2,r2,255
 2003288:	103ff226 	beq	r2,zero,2003254 <enterFireMenu+0x94>
			{
				delay(100);
 200328c:	01001904 	movi	r4,100
 2003290:	20019dc0 	call	20019dc <delay>
				if(keyFlag)
 2003294:	00810034 	movhi	r2,1024
 2003298:	10889804 	addi	r2,r2,8800
 200329c:	10800003 	ldbu	r2,0(r2)
 20032a0:	10803fcc 	andi	r2,r2,255
 20032a4:	10002326 	beq	r2,zero,2003334 <enterFireMenu+0x174>
				{
					keyVal_latch = keyVal;
 20032a8:	00810034 	movhi	r2,1024
 20032ac:	10889404 	addi	r2,r2,8784
 20032b0:	10800003 	ldbu	r2,0(r2)
 20032b4:	e0bfff05 	stb	r2,-4(fp)
					if(keyVal_latch == KEY_MENU)
 20032b8:	e0bfff03 	ldbu	r2,-4(fp)
 20032bc:	10800318 	cmpnei	r2,r2,12
 20032c0:	1000071e 	bne	r2,zero,20032e0 <enterFireMenu+0x120>
					{
						while(keyFlag);
 20032c4:	0001883a 	nop
 20032c8:	00810034 	movhi	r2,1024
 20032cc:	10889804 	addi	r2,r2,8800
 20032d0:	10800003 	ldbu	r2,0(r2)
 20032d4:	10803fcc 	andi	r2,r2,255
 20032d8:	103ffb1e 	bne	r2,zero,20032c8 <enterFireMenu+0x108>
						return;
 20032dc:	00001f06 	br	200335c <enterFireMenu+0x19c>
					}
					else if(keyVal_latch == KEY_FIRE)
 20032e0:	e0bfff03 	ldbu	r2,-4(fp)
 20032e4:	10800418 	cmpnei	r2,r2,16
 20032e8:	1000121e 	bne	r2,zero,2003334 <enterFireMenu+0x174>
					{
						while(keyFlag);
 20032ec:	0001883a 	nop
 20032f0:	00810034 	movhi	r2,1024
 20032f4:	10889804 	addi	r2,r2,8800
 20032f8:	10800003 	ldbu	r2,0(r2)
 20032fc:	10803fcc 	andi	r2,r2,255
 2003300:	103ffb1e 	bne	r2,zero,20032f0 <enterFireMenu+0x130>
						if(!PreFiringErrChk())
 2003304:	20026540 	call	2002654 <PreFiringErrChk>
 2003308:	10803fcc 	andi	r2,r2,255
 200330c:	1000121e 	bne	r2,zero,2003358 <enterFireMenu+0x198>
 2003310:	00000106 	br	2003318 <enterFireMenu+0x158>
							while(1)
							{
								unsigned char fireAgain;
								fireAgain = StartFiring();	//If PreFiringErrChk() returns 1, then the fire sequence continues.
								if(fireAgain==0) break;
							}
 2003314:	0001883a 	nop
						while(keyFlag);
						if(!PreFiringErrChk())
							while(1)
							{
								unsigned char fireAgain;
								fireAgain = StartFiring();	//If PreFiringErrChk() returns 1, then the fire sequence continues.
 2003318:	2002e300 	call	2002e30 <StartFiring>
 200331c:	e0bfff45 	stb	r2,-3(fp)
								if(fireAgain==0) break;
 2003320:	e0bfff43 	ldbu	r2,-3(fp)
 2003324:	103ffb1e 	bne	r2,zero,2003314 <enterFireMenu+0x154>
 2003328:	0001883a 	nop
							}
						return;
 200332c:	0001883a 	nop
 2003330:	00000906 	br	2003358 <enterFireMenu+0x198>
					}
				}
				while(keyFlag);
 2003334:	0001883a 	nop
 2003338:	00810034 	movhi	r2,1024
 200333c:	10889804 	addi	r2,r2,8800
 2003340:	10800003 	ldbu	r2,0(r2)
 2003344:	10803fcc 	andi	r2,r2,255
 2003348:	103ffb1e 	bne	r2,zero,2003338 <enterFireMenu+0x178>
			}
		}
 200334c:	003fc106 	br	2003254 <enterFireMenu+0x94>
		unsigned char keyVal_latch;
		while(1)
		{
			if(PreFiringErrChk())	//If PreFiringErrChk() returns 1, then there is  error.
			{
				return;
 2003350:	0001883a 	nop
 2003354:	00000106 	br	200335c <enterFireMenu+0x19c>
							{
								unsigned char fireAgain;
								fireAgain = StartFiring();	//If PreFiringErrChk() returns 1, then the fire sequence continues.
								if(fireAgain==0) break;
							}
						return;
 2003358:	0001883a 	nop
				}
				while(keyFlag);
			}
		}
	}
}
 200335c:	e037883a 	mov	sp,fp
 2003360:	dfc00117 	ldw	ra,4(sp)
 2003364:	df000017 	ldw	fp,0(sp)
 2003368:	dec00204 	addi	sp,sp,8
 200336c:	f800283a 	ret

02003370 <ShowInterlockMessage>:

char *interlockNames[5] = {"LHV ", "Ht ", "RF ", "DC ", "Thy"};
void ShowInterlockMessage (unsigned int ILchnl)
{
 2003370:	defffb04 	addi	sp,sp,-20
 2003374:	dfc00415 	stw	ra,16(sp)
 2003378:	df000315 	stw	fp,12(sp)
 200337c:	df000304 	addi	fp,sp,12
 2003380:	e13fff15 	stw	r4,-4(fp)
	DisCurPos(3,1);
 2003384:	010000c4 	movi	r4,3
 2003388:	01400044 	movi	r5,1
 200338c:	20005400 	call	2000540 <DisCurPos>
	DisWrStr("INT:");
 2003390:	01008074 	movhi	r4,513
 2003394:	211a0704 	addi	r4,r4,26652
 2003398:	20006000 	call	2000600 <DisWrStr>
	DisCurPos(3,5);
 200339c:	010000c4 	movi	r4,3
 20033a0:	01400144 	movi	r5,5
 20033a4:	20005400 	call	2000540 <DisCurPos>
	unsigned int mask = 0x1;
 20033a8:	00800044 	movi	r2,1
 20033ac:	e0bffd15 	stw	r2,-12(fp)
	int i;
	for(i = 0; i < 5; i++) {
 20033b0:	e03ffe15 	stw	zero,-8(fp)
 20033b4:	00001306 	br	2003404 <ShowInterlockMessage+0x94>
		if(ILchnl&mask) DisWrStr(interlockNames[i]);
 20033b8:	e0ffff17 	ldw	r3,-4(fp)
 20033bc:	e0bffd17 	ldw	r2,-12(fp)
 20033c0:	1884703a 	and	r2,r3,r2
 20033c4:	10000926 	beq	r2,zero,20033ec <ShowInterlockMessage+0x7c>
 20033c8:	00c08074 	movhi	r3,513
 20033cc:	18ddfe04 	addi	r3,r3,30712
 20033d0:	e0bffe17 	ldw	r2,-8(fp)
 20033d4:	1085883a 	add	r2,r2,r2
 20033d8:	1085883a 	add	r2,r2,r2
 20033dc:	1885883a 	add	r2,r3,r2
 20033e0:	10800017 	ldw	r2,0(r2)
 20033e4:	1009883a 	mov	r4,r2
 20033e8:	20006000 	call	2000600 <DisWrStr>
		mask=mask<<1;
 20033ec:	e0bffd17 	ldw	r2,-12(fp)
 20033f0:	1085883a 	add	r2,r2,r2
 20033f4:	e0bffd15 	stw	r2,-12(fp)
	DisCurPos(3,1);
	DisWrStr("INT:");
	DisCurPos(3,5);
	unsigned int mask = 0x1;
	int i;
	for(i = 0; i < 5; i++) {
 20033f8:	e0bffe17 	ldw	r2,-8(fp)
 20033fc:	10800044 	addi	r2,r2,1
 2003400:	e0bffe15 	stw	r2,-8(fp)
 2003404:	e0bffe17 	ldw	r2,-8(fp)
 2003408:	10800150 	cmplti	r2,r2,5
 200340c:	103fea1e 	bne	r2,zero,20033b8 <ShowInterlockMessage+0x48>
		if(ILchnl&mask) DisWrStr(interlockNames[i]);
		mask=mask<<1;
	}
}
 2003410:	e037883a 	mov	sp,fp
 2003414:	dfc00117 	ldw	ra,4(sp)
 2003418:	df000017 	ldw	fp,0(sp)
 200341c:	dec00204 	addi	sp,sp,8
 2003420:	f800283a 	ret

02003424 <printTime>:

/*
 * Convert time format from seconds to MM:SS
 */
void printTime(unsigned short seconds)
{
 2003424:	defffc04 	addi	sp,sp,-16
 2003428:	dfc00315 	stw	ra,12(sp)
 200342c:	df000215 	stw	fp,8(sp)
 2003430:	df000204 	addi	fp,sp,8
 2003434:	2005883a 	mov	r2,r4
 2003438:	e0bfff0d 	sth	r2,-4(fp)
	unsigned char min = seconds / 60;
 200343c:	e0bfff0b 	ldhu	r2,-4(fp)
 2003440:	1009883a 	mov	r4,r2
 2003444:	01400f04 	movi	r5,60
 2003448:	20093a80 	call	20093a8 <__udivsi3>
 200344c:	e0bffe05 	stb	r2,-8(fp)
	unsigned char sec = seconds % 60;
 2003450:	e0bfff0b 	ldhu	r2,-4(fp)
 2003454:	1009883a 	mov	r4,r2
 2003458:	01400f04 	movi	r5,60
 200345c:	20093b00 	call	20093b0 <__umodsi3>
 2003460:	e0bffe45 	stb	r2,-7(fp)

	DisWrStr(Num2toStr2(min));
 2003464:	e0bffe03 	ldbu	r2,-8(fp)
 2003468:	1009883a 	mov	r4,r2
 200346c:	20062640 	call	2006264 <Num2toStr2>
 2003470:	1009883a 	mov	r4,r2
 2003474:	20006000 	call	2000600 <DisWrStr>
	DisWrStr(":");
 2003478:	01008074 	movhi	r4,513
 200347c:	211a0904 	addi	r4,r4,26660
 2003480:	20006000 	call	2000600 <DisWrStr>
	DisWrStr(Num2toStr2(sec));
 2003484:	e0bffe43 	ldbu	r2,-7(fp)
 2003488:	1009883a 	mov	r4,r2
 200348c:	20062640 	call	2006264 <Num2toStr2>
 2003490:	1009883a 	mov	r4,r2
 2003494:	20006000 	call	2000600 <DisWrStr>
}
 2003498:	e037883a 	mov	sp,fp
 200349c:	dfc00117 	ldw	ra,4(sp)
 20034a0:	df000017 	ldw	fp,0(sp)
 20034a4:	dec00204 	addi	sp,sp,8
 20034a8:	f800283a 	ret

020034ac <checkHeater>:
 * If the heater is ready, return 0, which indicates OK
 * Return:
 * 		0: Ready(Done)	1: Not Ready(Warming Up)
 */
unsigned char checkHeater()
{
 20034ac:	deffff04 	addi	sp,sp,-4
 20034b0:	df000015 	stw	fp,0(sp)
 20034b4:	d839883a 	mov	fp,sp
					}
				}
			}
		}
	}
	return 0;									//Return 0, indicates that the heater is ready
 20034b8:	0005883a 	mov	r2,zero
}
 20034bc:	e037883a 	mov	sp,fp
 20034c0:	df000017 	ldw	fp,0(sp)
 20034c4:	dec00104 	addi	sp,sp,4
 20034c8:	f800283a 	ret

020034cc <entryParameterMenu>:
#include "..\inc\KPLED.h"



void entryParameterMenu(unsigned char number)
{
 20034cc:	defffd04 	addi	sp,sp,-12
 20034d0:	dfc00215 	stw	ra,8(sp)
 20034d4:	df000115 	stw	fp,4(sp)
 20034d8:	df000104 	addi	fp,sp,4
 20034dc:	2005883a 	mov	r2,r4
 20034e0:	e0bfff05 	stb	r2,-4(fp)
	KPLED_All_Off();
 20034e4:	2000f400 	call	2000f40 <KPLED_All_Off>
	KPLED_Enter(3);
 20034e8:	010000c4 	movi	r4,3
 20034ec:	20012440 	call	2001244 <KPLED_Enter>
	KPLED_Enable(1);
 20034f0:	01000044 	movi	r4,1
 20034f4:	20012cc0 	call	20012cc <KPLED_Enable>
	KPLED_RightArrow(3);
 20034f8:	010000c4 	movi	r4,3
 20034fc:	20010200 	call	2001020 <KPLED_RightArrow>
	//KPLED_LeftArrow(3);

	DisClear();
 2003500:	20006780 	call	2000678 <DisClear>
	DisShowCur(0);
 2003504:	0009883a 	mov	r4,zero
 2003508:	20004fc0 	call	20004fc <DisShowCur>
	DisCurPos(1,1);
 200350c:	01000044 	movi	r4,1
 2003510:	01400044 	movi	r5,1
 2003514:	20005400 	call	2000540 <DisCurPos>
	DisWrStr("       MENU         ");
 2003518:	01008074 	movhi	r4,513
 200351c:	211a0a04 	addi	r4,r4,26664
 2003520:	20006000 	call	2000600 <DisWrStr>
	DisCurPos(2,1);
 2003524:	01000084 	movi	r4,2
 2003528:	01400044 	movi	r5,1
 200352c:	20005400 	call	2000540 <DisCurPos>
	DisWrStr(Num2toStr2(number));
 2003530:	e0bfff03 	ldbu	r2,-4(fp)
 2003534:	1009883a 	mov	r4,r2
 2003538:	20062640 	call	2006264 <Num2toStr2>
 200353c:	1009883a 	mov	r4,r2
 2003540:	20006000 	call	2000600 <DisWrStr>
	DisWrStr(".Parameters");
 2003544:	01008074 	movhi	r4,513
 2003548:	211a1004 	addi	r4,r4,26688
 200354c:	20006000 	call	2000600 <DisWrStr>

	//Error Check
	if(chkAllTiming())
 2003550:	2007cdc0 	call	2007cdc <chkAllTiming>
 2003554:	10803fcc 	andi	r2,r2,255
 2003558:	10000626 	beq	r2,zero,2003574 <entryParameterMenu+0xa8>
	{
		DisCurPos(2,13);
 200355c:	01000084 	movi	r4,2
 2003560:	01400344 	movi	r5,13
 2003564:	20005400 	call	2000540 <DisCurPos>
		DisWrStr("*");
 2003568:	01008074 	movhi	r4,513
 200356c:	211a1304 	addi	r4,r4,26700
 2003570:	20006000 	call	2000600 <DisWrStr>
	}

	DisCurPos(4,1);
 2003574:	01000104 	movi	r4,4
 2003578:	01400044 	movi	r5,1
 200357c:	20005400 	call	2000540 <DisCurPos>
	DisWrStr("        Enter  Next>");
 2003580:	01008074 	movhi	r4,513
 2003584:	211a1404 	addi	r4,r4,26704
 2003588:	20006000 	call	2000600 <DisWrStr>


}
 200358c:	e037883a 	mov	sp,fp
 2003590:	dfc00117 	ldw	ra,4(sp)
 2003594:	df000017 	ldw	fp,0(sp)
 2003598:	dec00204 	addi	sp,sp,8
 200359c:	f800283a 	ret

020035a0 <refreshParameterMenuEntry>:

void refreshParameterMenuEntry(unsigned char curr_state)
{
 20035a0:	defffd04 	addi	sp,sp,-12
 20035a4:	dfc00215 	stw	ra,8(sp)
 20035a8:	df000115 	stw	fp,4(sp)
 20035ac:	df000104 	addi	fp,sp,4
 20035b0:	2005883a 	mov	r2,r4
 20035b4:	e0bfff05 	stb	r2,-4(fp)

	if(curr_state == 1)
 20035b8:	e0bfff03 	ldbu	r2,-4(fp)
 20035bc:	10800058 	cmpnei	r2,r2,1
 20035c0:	1000021e 	bne	r2,zero,20035cc <refreshParameterMenuEntry+0x2c>
	{
		entryParameterRepRate();
 20035c4:	2007fac0 	call	2007fac <entryParameterRepRate>
 20035c8:	00000a06 	br	20035f4 <refreshParameterMenuEntry+0x54>
	}
	else if(curr_state == 2)
 20035cc:	e0bfff03 	ldbu	r2,-4(fp)
 20035d0:	10800098 	cmpnei	r2,r2,2
 20035d4:	1000021e 	bne	r2,zero,20035e0 <refreshParameterMenuEntry+0x40>
	{
		entryParameterNumOfShots();
 20035d8:	20081580 	call	2008158 <entryParameterNumOfShots>
 20035dc:	00000506 	br	20035f4 <refreshParameterMenuEntry+0x54>
	}
	else
	{
		entryParameterTiming(curr_state-2);
 20035e0:	e0bfff03 	ldbu	r2,-4(fp)
 20035e4:	10bfff84 	addi	r2,r2,-2
 20035e8:	10803fcc 	andi	r2,r2,255
 20035ec:	1009883a 	mov	r4,r2
 20035f0:	20083cc0 	call	20083cc <entryParameterTiming>
	}
}
 20035f4:	e037883a 	mov	sp,fp
 20035f8:	dfc00117 	ldw	ra,4(sp)
 20035fc:	df000017 	ldw	fp,0(sp)
 2003600:	dec00204 	addi	sp,sp,8
 2003604:	f800283a 	ret

02003608 <editParameter>:

void editParameter(unsigned char curr_state)
{
 2003608:	defffd04 	addi	sp,sp,-12
 200360c:	dfc00215 	stw	ra,8(sp)
 2003610:	df000115 	stw	fp,4(sp)
 2003614:	df000104 	addi	fp,sp,4
 2003618:	2005883a 	mov	r2,r4
 200361c:	e0bfff05 	stb	r2,-4(fp)
	if(curr_state == 1)
 2003620:	e0bfff03 	ldbu	r2,-4(fp)
 2003624:	10800058 	cmpnei	r2,r2,1
 2003628:	1000021e 	bne	r2,zero,2003634 <editParameter+0x2c>
		editParameterRepRate();
 200362c:	20080880 	call	2008088 <editParameterRepRate>
 2003630:	00000a06 	br	200365c <editParameter+0x54>
	else if(curr_state == 2)
 2003634:	e0bfff03 	ldbu	r2,-4(fp)
 2003638:	10800098 	cmpnei	r2,r2,2
 200363c:	1000021e 	bne	r2,zero,2003648 <editParameter+0x40>
		editParameterNumOfShot();
 2003640:	20082380 	call	2008238 <editParameterNumOfShot>
 2003644:	00000506 	br	200365c <editParameter+0x54>
	else
		editParamterTiming(curr_state-2);
 2003648:	e0bfff03 	ldbu	r2,-4(fp)
 200364c:	10bfff84 	addi	r2,r2,-2
 2003650:	10803fcc 	andi	r2,r2,255
 2003654:	1009883a 	mov	r4,r2
 2003658:	20086040 	call	2008604 <editParamterTiming>
}
 200365c:	e037883a 	mov	sp,fp
 2003660:	dfc00117 	ldw	ra,4(sp)
 2003664:	df000017 	ldw	fp,0(sp)
 2003668:	dec00204 	addi	sp,sp,8
 200366c:	f800283a 	ret

02003670 <enterParameterMenu>:

void enterParameterMenu()
{
 2003670:	defffd04 	addi	sp,sp,-12
 2003674:	dfc00215 	stw	ra,8(sp)
 2003678:	df000115 	stw	fp,4(sp)
 200367c:	df000104 	addi	fp,sp,4

	//initMenu();

	//showCoverPage();

	unsigned char curr_state = 1;
 2003680:	00800044 	movi	r2,1
 2003684:	e0bfff05 	stb	r2,-4(fp)
	refreshParameterMenuEntry(curr_state);
 2003688:	e0bfff03 	ldbu	r2,-4(fp)
 200368c:	1009883a 	mov	r4,r2
 2003690:	20035a00 	call	20035a0 <refreshParameterMenuEntry>
 2003694:	00000106 	br	200369c <enterParameterMenu+0x2c>
			}
			while(keyFlag);
		}


	}
 2003698:	0001883a 	nop
	unsigned char curr_state = 1;
	refreshParameterMenuEntry(curr_state);
	unsigned char keyVal_latch;
	while(1)
	{
		if(keyFlag)
 200369c:	00810034 	movhi	r2,1024
 20036a0:	10889804 	addi	r2,r2,8800
 20036a4:	10800003 	ldbu	r2,0(r2)
 20036a8:	10803fcc 	andi	r2,r2,255
 20036ac:	103ffa26 	beq	r2,zero,2003698 <enterParameterMenu+0x28>
		{
			delay(100);
 20036b0:	01001904 	movi	r4,100
 20036b4:	20019dc0 	call	20019dc <delay>
			if(keyFlag)
 20036b8:	00810034 	movhi	r2,1024
 20036bc:	10889804 	addi	r2,r2,8800
 20036c0:	10800003 	ldbu	r2,0(r2)
 20036c4:	10803fcc 	andi	r2,r2,255
 20036c8:	10004226 	beq	r2,zero,20037d4 <enterParameterMenu+0x164>
			{
				keyVal_latch = keyVal;
 20036cc:	00810034 	movhi	r2,1024
 20036d0:	10889404 	addi	r2,r2,8784
 20036d4:	10800003 	ldbu	r2,0(r2)
 20036d8:	e0bfff45 	stb	r2,-3(fp)
				if(keyVal_latch == KEY_LEFT)
 20036dc:	e0bfff43 	ldbu	r2,-3(fp)
 20036e0:	10800298 	cmpnei	r2,r2,10
 20036e4:	10000a1e 	bne	r2,zero,2003710 <enterParameterMenu+0xa0>
				{
					if(curr_state > 1)
 20036e8:	e0bfff03 	ldbu	r2,-4(fp)
 20036ec:	108000b0 	cmpltui	r2,r2,2
 20036f0:	1000381e 	bne	r2,zero,20037d4 <enterParameterMenu+0x164>
					{
						curr_state--;
 20036f4:	e0bfff03 	ldbu	r2,-4(fp)
 20036f8:	10bfffc4 	addi	r2,r2,-1
 20036fc:	e0bfff05 	stb	r2,-4(fp)
						refreshParameterMenuEntry(curr_state);
 2003700:	e0bfff03 	ldbu	r2,-4(fp)
 2003704:	1009883a 	mov	r4,r2
 2003708:	20035a00 	call	20035a0 <refreshParameterMenuEntry>
					while(keyFlag);
					enterFireMenu();
					refreshParameterMenuEntry(curr_state);
				}
			}
			while(keyFlag);
 200370c:	00003106 	br	20037d4 <enterParameterMenu+0x164>
					{
						curr_state--;
						refreshParameterMenuEntry(curr_state);
					}
				}
				else if(keyVal_latch == KEY_RIGHT)
 2003710:	e0bfff43 	ldbu	r2,-3(fp)
 2003714:	108002d8 	cmpnei	r2,r2,11
 2003718:	10000a1e 	bne	r2,zero,2003744 <enterParameterMenu+0xd4>
				{
					if(curr_state < 2+CHNL_NUM)
 200371c:	e0bfff03 	ldbu	r2,-4(fp)
 2003720:	108002e8 	cmpgeui	r2,r2,11
 2003724:	10002b1e 	bne	r2,zero,20037d4 <enterParameterMenu+0x164>
					{
						curr_state++;
 2003728:	e0bfff03 	ldbu	r2,-4(fp)
 200372c:	10800044 	addi	r2,r2,1
 2003730:	e0bfff05 	stb	r2,-4(fp)
						refreshParameterMenuEntry(curr_state);
 2003734:	e0bfff03 	ldbu	r2,-4(fp)
 2003738:	1009883a 	mov	r4,r2
 200373c:	20035a00 	call	20035a0 <refreshParameterMenuEntry>
					while(keyFlag);
					enterFireMenu();
					refreshParameterMenuEntry(curr_state);
				}
			}
			while(keyFlag);
 2003740:	00002406 	br	20037d4 <enterParameterMenu+0x164>
					{
						curr_state++;
						refreshParameterMenuEntry(curr_state);
					}
				}
				else if(keyVal_latch == KEY_EDIT)
 2003744:	e0bfff43 	ldbu	r2,-3(fp)
 2003748:	10800358 	cmpnei	r2,r2,13
 200374c:	10000a1e 	bne	r2,zero,2003778 <enterParameterMenu+0x108>
				{
					while(keyFlag);
 2003750:	0001883a 	nop
 2003754:	00810034 	movhi	r2,1024
 2003758:	10889804 	addi	r2,r2,8800
 200375c:	10800003 	ldbu	r2,0(r2)
 2003760:	10803fcc 	andi	r2,r2,255
 2003764:	103ffb1e 	bne	r2,zero,2003754 <enterParameterMenu+0xe4>
					editParameter(curr_state);
 2003768:	e0bfff03 	ldbu	r2,-4(fp)
 200376c:	1009883a 	mov	r4,r2
 2003770:	20036080 	call	2003608 <editParameter>
					while(keyFlag);
					enterFireMenu();
					refreshParameterMenuEntry(curr_state);
				}
			}
			while(keyFlag);
 2003774:	00001706 	br	20037d4 <enterParameterMenu+0x164>
				else if(keyVal_latch == KEY_EDIT)
				{
					while(keyFlag);
					editParameter(curr_state);
				}
				else if(keyVal_latch == KEY_MENU)
 2003778:	e0bfff43 	ldbu	r2,-3(fp)
 200377c:	10800318 	cmpnei	r2,r2,12
 2003780:	1000071e 	bne	r2,zero,20037a0 <enterParameterMenu+0x130>
				{
					while(keyFlag);
 2003784:	0001883a 	nop
 2003788:	00810034 	movhi	r2,1024
 200378c:	10889804 	addi	r2,r2,8800
 2003790:	10800003 	ldbu	r2,0(r2)
 2003794:	10803fcc 	andi	r2,r2,255
 2003798:	103ffb1e 	bne	r2,zero,2003788 <enterParameterMenu+0x118>
					return;
 200379c:	00001406 	br	20037f0 <enterParameterMenu+0x180>
				}
				else if(keyVal_latch == KEY_ENA)
 20037a0:	e0bfff43 	ldbu	r2,-3(fp)
 20037a4:	108003d8 	cmpnei	r2,r2,15
 20037a8:	10000a1e 	bne	r2,zero,20037d4 <enterParameterMenu+0x164>
				{
					while(keyFlag);
 20037ac:	0001883a 	nop
 20037b0:	00810034 	movhi	r2,1024
 20037b4:	10889804 	addi	r2,r2,8800
 20037b8:	10800003 	ldbu	r2,0(r2)
 20037bc:	10803fcc 	andi	r2,r2,255
 20037c0:	103ffb1e 	bne	r2,zero,20037b0 <enterParameterMenu+0x140>
					enterFireMenu();
 20037c4:	20031c00 	call	20031c0 <enterFireMenu>
					refreshParameterMenuEntry(curr_state);
 20037c8:	e0bfff03 	ldbu	r2,-4(fp)
 20037cc:	1009883a 	mov	r4,r2
 20037d0:	20035a00 	call	20035a0 <refreshParameterMenuEntry>
				}
			}
			while(keyFlag);
 20037d4:	0001883a 	nop
 20037d8:	00810034 	movhi	r2,1024
 20037dc:	10889804 	addi	r2,r2,8800
 20037e0:	10800003 	ldbu	r2,0(r2)
 20037e4:	10803fcc 	andi	r2,r2,255
 20037e8:	103ffb1e 	bne	r2,zero,20037d8 <enterParameterMenu+0x168>
		}


	}
 20037ec:	003faa06 	br	2003698 <enterParameterMenu+0x28>

}
 20037f0:	e037883a 	mov	sp,fp
 20037f4:	dfc00117 	ldw	ra,4(sp)
 20037f8:	df000017 	ldw	fp,0(sp)
 20037fc:	dec00204 	addi	sp,sp,8
 2003800:	f800283a 	ret

02003804 <StartRemoteCtrl>:
#include "..\inc\editNum2.h"

#define remoteEn *(unsigned char*)REMOTECTRL_BASE    //If remoteEn = 1, then goes into remote control mode; if remoteEn = 0, then goes into domestic control mode.

void StartRemoteCtrl()
{
 2003804:	defffd04 	addi	sp,sp,-12
 2003808:	dfc00215 	stw	ra,8(sp)
 200380c:	df000115 	stw	fp,4(sp)
 2003810:	df000104 	addi	fp,sp,4
	unsigned char keyVal_latch;

	remoteEn = 1;
 2003814:	00810034 	movhi	r2,1024
 2003818:	10888804 	addi	r2,r2,8736
 200381c:	00c00044 	movi	r3,1
 2003820:	10c00005 	stb	r3,0(r2)

	KPLED_All_Off();
 2003824:	2000f400 	call	2000f40 <KPLED_All_Off>
	KPLED_Menu(3);
 2003828:	010000c4 	movi	r4,3
 200382c:	20011340 	call	2001134 <KPLED_Menu>

	DisClear();
 2003830:	20006780 	call	2000678 <DisClear>
	DisShowCur(0);
 2003834:	0009883a 	mov	r4,zero
 2003838:	20004fc0 	call	20004fc <DisShowCur>
	DisCurPos(2,1);
 200383c:	01000084 	movi	r4,2
 2003840:	01400044 	movi	r5,1
 2003844:	20005400 	call	2000540 <DisCurPos>
	DisWrStr("Controlled Remotely");
 2003848:	01008074 	movhi	r4,513
 200384c:	211a1a04 	addi	r4,r4,26728
 2003850:	20006000 	call	2000600 <DisWrStr>
	DisCurPos(3,1);
 2003854:	010000c4 	movi	r4,3
 2003858:	01400044 	movi	r5,1
 200385c:	20005400 	call	2000540 <DisCurPos>
	DisWrStr(" Press MENU to Exit");
 2003860:	01008074 	movhi	r4,513
 2003864:	211a1f04 	addi	r4,r4,26748
 2003868:	20006000 	call	2000600 <DisWrStr>
 200386c:	00000106 	br	2003874 <StartRemoteCtrl+0x70>
					return;
				}
			}
			while(keyFlag);
		}
	}
 2003870:	0001883a 	nop
	DisCurPos(3,1);
	DisWrStr(" Press MENU to Exit");

	while(1)
	{
		if(keyFlag)
 2003874:	00810034 	movhi	r2,1024
 2003878:	10889804 	addi	r2,r2,8800
 200387c:	10800003 	ldbu	r2,0(r2)
 2003880:	10803fcc 	andi	r2,r2,255
 2003884:	103ffa26 	beq	r2,zero,2003870 <StartRemoteCtrl+0x6c>
		{
			delay(100);
 2003888:	01001904 	movi	r4,100
 200388c:	20019dc0 	call	20019dc <delay>
			if(keyFlag)
 2003890:	00810034 	movhi	r2,1024
 2003894:	10889804 	addi	r2,r2,8800
 2003898:	10800003 	ldbu	r2,0(r2)
 200389c:	10803fcc 	andi	r2,r2,255
 20038a0:	10001626 	beq	r2,zero,20038fc <StartRemoteCtrl+0xf8>
			{
				keyVal_latch = keyVal;
 20038a4:	00810034 	movhi	r2,1024
 20038a8:	10889404 	addi	r2,r2,8784
 20038ac:	10800003 	ldbu	r2,0(r2)
 20038b0:	e0bfff05 	stb	r2,-4(fp)
				if(keyVal_latch == KEY_MENU)
 20038b4:	e0bfff03 	ldbu	r2,-4(fp)
 20038b8:	10800318 	cmpnei	r2,r2,12
 20038bc:	10000f1e 	bne	r2,zero,20038fc <StartRemoteCtrl+0xf8>
				{
					remoteEn = 0;
 20038c0:	00810034 	movhi	r2,1024
 20038c4:	10888804 	addi	r2,r2,8736
 20038c8:	10000005 	stb	zero,0(r2)
					KPLED_All_Off();
 20038cc:	2000f400 	call	2000f40 <KPLED_All_Off>
					DisClear();
 20038d0:	20006780 	call	2000678 <DisClear>
					DisCurPos(2,2);
 20038d4:	01000084 	movi	r4,2
 20038d8:	01400084 	movi	r5,2
 20038dc:	20005400 	call	2000540 <DisCurPos>
					DisWrStr("Remote Terminated");
 20038e0:	01008074 	movhi	r4,513
 20038e4:	211a2404 	addi	r4,r4,26768
 20038e8:	20006000 	call	2000600 <DisWrStr>
					delay(MSG_DELAY);
 20038ec:	01271014 	movui	r4,40000
 20038f0:	20019dc0 	call	20019dc <delay>
					return;
 20038f4:	0001883a 	nop
 20038f8:	00000706 	br	2003918 <StartRemoteCtrl+0x114>
				}
			}
			while(keyFlag);
 20038fc:	0001883a 	nop
 2003900:	00810034 	movhi	r2,1024
 2003904:	10889804 	addi	r2,r2,8800
 2003908:	10800003 	ldbu	r2,0(r2)
 200390c:	10803fcc 	andi	r2,r2,255
 2003910:	103ffb1e 	bne	r2,zero,2003900 <StartRemoteCtrl+0xfc>
		}
	}
 2003914:	003fd606 	br	2003870 <StartRemoteCtrl+0x6c>
}
 2003918:	e037883a 	mov	sp,fp
 200391c:	dfc00117 	ldw	ra,4(sp)
 2003920:	df000017 	ldw	fp,0(sp)
 2003924:	dec00204 	addi	sp,sp,8
 2003928:	f800283a 	ret

0200392c <entryRemoteMenu>:

void entryRemoteMenu(unsigned char number)
{
 200392c:	defffd04 	addi	sp,sp,-12
 2003930:	dfc00215 	stw	ra,8(sp)
 2003934:	df000115 	stw	fp,4(sp)
 2003938:	df000104 	addi	fp,sp,4
 200393c:	2005883a 	mov	r2,r4
 2003940:	e0bfff05 	stb	r2,-4(fp)
	KPLED_All_Off();
 2003944:	2000f400 	call	2000f40 <KPLED_All_Off>
	KPLED_Enter(3);
 2003948:	010000c4 	movi	r4,3
 200394c:	20012440 	call	2001244 <KPLED_Enter>
	KPLED_Enable(1);
 2003950:	01000044 	movi	r4,1
 2003954:	20012cc0 	call	20012cc <KPLED_Enable>
	KPLED_LeftArrow(3);
 2003958:	010000c4 	movi	r4,3
 200395c:	20010ac0 	call	20010ac <KPLED_LeftArrow>
	KPLED_RightArrow(3);
 2003960:	010000c4 	movi	r4,3
 2003964:	20010200 	call	2001020 <KPLED_RightArrow>

	DisClear();
 2003968:	20006780 	call	2000678 <DisClear>
	DisShowCur(0);
 200396c:	0009883a 	mov	r4,zero
 2003970:	20004fc0 	call	20004fc <DisShowCur>
	DisCurPos(1,1);
 2003974:	01000044 	movi	r4,1
 2003978:	01400044 	movi	r5,1
 200397c:	20005400 	call	2000540 <DisCurPos>
	DisWrStr("       MENU         ");
 2003980:	01008074 	movhi	r4,513
 2003984:	211a2904 	addi	r4,r4,26788
 2003988:	20006000 	call	2000600 <DisWrStr>
	DisCurPos(2,1);
 200398c:	01000084 	movi	r4,2
 2003990:	01400044 	movi	r5,1
 2003994:	20005400 	call	2000540 <DisCurPos>
	DisWrStr(Num2toStr2(number));
 2003998:	e0bfff03 	ldbu	r2,-4(fp)
 200399c:	1009883a 	mov	r4,r2
 20039a0:	20062640 	call	2006264 <Num2toStr2>
 20039a4:	1009883a 	mov	r4,r2
 20039a8:	20006000 	call	2000600 <DisWrStr>
	DisWrStr(".Remote Control");
 20039ac:	01008074 	movhi	r4,513
 20039b0:	211a2f04 	addi	r4,r4,26812
 20039b4:	20006000 	call	2000600 <DisWrStr>

	DisCurPos(4,1);
 20039b8:	01000104 	movi	r4,4
 20039bc:	01400044 	movi	r5,1
 20039c0:	20005400 	call	2000540 <DisCurPos>
	DisWrStr("<Prev   Enter  Next>");
 20039c4:	01008074 	movhi	r4,513
 20039c8:	211a3304 	addi	r4,r4,26828
 20039cc:	20006000 	call	2000600 <DisWrStr>
}
 20039d0:	e037883a 	mov	sp,fp
 20039d4:	dfc00117 	ldw	ra,4(sp)
 20039d8:	df000017 	ldw	fp,0(sp)
 20039dc:	dec00204 	addi	sp,sp,8
 20039e0:	f800283a 	ret

020039e4 <enterRemoteMenu>:

void enterRemoteMenu()
{
 20039e4:	defffd04 	addi	sp,sp,-12
 20039e8:	dfc00215 	stw	ra,8(sp)
 20039ec:	df000115 	stw	fp,4(sp)
 20039f0:	df000104 	addi	fp,sp,4
	KPLED_All_Off();
 20039f4:	2000f400 	call	2000f40 <KPLED_All_Off>
	KPLED_Enter(3);
 20039f8:	010000c4 	movi	r4,3
 20039fc:	20012440 	call	2001244 <KPLED_Enter>
	KPLED_Menu(3);
 2003a00:	010000c4 	movi	r4,3
 2003a04:	20011340 	call	2001134 <KPLED_Menu>

	DisClear();
 2003a08:	20006780 	call	2000678 <DisClear>
	DisShowCur(0);
 2003a0c:	0009883a 	mov	r4,zero
 2003a10:	20004fc0 	call	20004fc <DisShowCur>
	DisCurPos(1,1);
 2003a14:	01000044 	movi	r4,1
 2003a18:	01400044 	movi	r5,1
 2003a1c:	20005400 	call	2000540 <DisCurPos>
	DisWrStr("Enable Remote Ctrl?");
 2003a20:	01008074 	movhi	r4,513
 2003a24:	211a3904 	addi	r4,r4,26852
 2003a28:	20006000 	call	2000600 <DisWrStr>
	DisCurPos(2,1);
 2003a2c:	01000084 	movi	r4,2
 2003a30:	01400044 	movi	r5,1
 2003a34:	20005400 	call	2000540 <DisCurPos>
	DisWrStr("   Yes: Press ENTER");
 2003a38:	01008074 	movhi	r4,513
 2003a3c:	211a3e04 	addi	r4,r4,26872
 2003a40:	20006000 	call	2000600 <DisWrStr>
	DisCurPos(3,1);
 2003a44:	010000c4 	movi	r4,3
 2003a48:	01400044 	movi	r5,1
 2003a4c:	20005400 	call	2000540 <DisCurPos>
	DisWrStr("   No:  Press MENU");
 2003a50:	01008074 	movhi	r4,513
 2003a54:	211a4304 	addi	r4,r4,26892
 2003a58:	20006000 	call	2000600 <DisWrStr>
 2003a5c:	00000106 	br	2003a64 <enterRemoteMenu+0x80>
					return;
				}
			}
			while(keyFlag);
		}
	}
 2003a60:	0001883a 	nop
	DisWrStr("   No:  Press MENU");

	unsigned char keyVal_latch;
	while(1)
	{
		if(keyFlag)
 2003a64:	00810034 	movhi	r2,1024
 2003a68:	10889804 	addi	r2,r2,8800
 2003a6c:	10800003 	ldbu	r2,0(r2)
 2003a70:	10803fcc 	andi	r2,r2,255
 2003a74:	103ffa26 	beq	r2,zero,2003a60 <enterRemoteMenu+0x7c>
		{
			delay(100);
 2003a78:	01001904 	movi	r4,100
 2003a7c:	20019dc0 	call	20019dc <delay>
			if(keyFlag)
 2003a80:	00810034 	movhi	r2,1024
 2003a84:	10889804 	addi	r2,r2,8800
 2003a88:	10800003 	ldbu	r2,0(r2)
 2003a8c:	10803fcc 	andi	r2,r2,255
 2003a90:	10001326 	beq	r2,zero,2003ae0 <enterRemoteMenu+0xfc>
			{
				keyVal_latch = keyVal;
 2003a94:	00810034 	movhi	r2,1024
 2003a98:	10889404 	addi	r2,r2,8784
 2003a9c:	10800003 	ldbu	r2,0(r2)
 2003aa0:	e0bfff05 	stb	r2,-4(fp)
				if(keyVal_latch == KEY_MENU)
 2003aa4:	e0bfff03 	ldbu	r2,-4(fp)
 2003aa8:	10800318 	cmpnei	r2,r2,12
 2003aac:	10001326 	beq	r2,zero,2003afc <enterRemoteMenu+0x118>
				{
					return;
				}
				else if(keyVal_latch == KEY_ENTER)
 2003ab0:	e0bfff03 	ldbu	r2,-4(fp)
 2003ab4:	10800398 	cmpnei	r2,r2,14
 2003ab8:	1000091e 	bne	r2,zero,2003ae0 <enterRemoteMenu+0xfc>
				{
					while(keyFlag);
 2003abc:	0001883a 	nop
 2003ac0:	00810034 	movhi	r2,1024
 2003ac4:	10889804 	addi	r2,r2,8800
 2003ac8:	10800003 	ldbu	r2,0(r2)
 2003acc:	10803fcc 	andi	r2,r2,255
 2003ad0:	103ffb1e 	bne	r2,zero,2003ac0 <enterRemoteMenu+0xdc>
					StartRemoteCtrl();
 2003ad4:	20038040 	call	2003804 <StartRemoteCtrl>
					return;
 2003ad8:	0001883a 	nop
 2003adc:	00000806 	br	2003b00 <enterRemoteMenu+0x11c>
				}
			}
			while(keyFlag);
 2003ae0:	0001883a 	nop
 2003ae4:	00810034 	movhi	r2,1024
 2003ae8:	10889804 	addi	r2,r2,8800
 2003aec:	10800003 	ldbu	r2,0(r2)
 2003af0:	10803fcc 	andi	r2,r2,255
 2003af4:	103ffb1e 	bne	r2,zero,2003ae4 <enterRemoteMenu+0x100>
		}
	}
 2003af8:	003fd906 	br	2003a60 <enterRemoteMenu+0x7c>
			if(keyFlag)
			{
				keyVal_latch = keyVal;
				if(keyVal_latch == KEY_MENU)
				{
					return;
 2003afc:	0001883a 	nop
				}
			}
			while(keyFlag);
		}
	}
}
 2003b00:	e037883a 	mov	sp,fp
 2003b04:	dfc00117 	ldw	ra,4(sp)
 2003b08:	df000017 	ldw	fp,0(sp)
 2003b0c:	dec00204 	addi	sp,sp,8
 2003b10:	f800283a 	ret

02003b14 <entrySaveLoadMenu>:
#include "..\inc\comInterface.h"
#include "..\inc\KPLED.h"
#include "..\inc\editNum2.h"

void entrySaveLoadMenu(unsigned char number)
{
 2003b14:	defffd04 	addi	sp,sp,-12
 2003b18:	dfc00215 	stw	ra,8(sp)
 2003b1c:	df000115 	stw	fp,4(sp)
 2003b20:	df000104 	addi	fp,sp,4
 2003b24:	2005883a 	mov	r2,r4
 2003b28:	e0bfff05 	stb	r2,-4(fp)
	KPLED_All_Off();
 2003b2c:	2000f400 	call	2000f40 <KPLED_All_Off>
	KPLED_Enter(3);
 2003b30:	010000c4 	movi	r4,3
 2003b34:	20012440 	call	2001244 <KPLED_Enter>
	KPLED_Enable(1);
 2003b38:	01000044 	movi	r4,1
 2003b3c:	20012cc0 	call	20012cc <KPLED_Enable>
	KPLED_LeftArrow(3);
 2003b40:	010000c4 	movi	r4,3
 2003b44:	20010ac0 	call	20010ac <KPLED_LeftArrow>
	KPLED_RightArrow(3);
 2003b48:	010000c4 	movi	r4,3
 2003b4c:	20010200 	call	2001020 <KPLED_RightArrow>
	DisClear();
 2003b50:	20006780 	call	2000678 <DisClear>
	DisShowCur(0);
 2003b54:	0009883a 	mov	r4,zero
 2003b58:	20004fc0 	call	20004fc <DisShowCur>
	DisCurPos(1,1);
 2003b5c:	01000044 	movi	r4,1
 2003b60:	01400044 	movi	r5,1
 2003b64:	20005400 	call	2000540 <DisCurPos>
	DisWrStr("       MENU         ");
 2003b68:	01008074 	movhi	r4,513
 2003b6c:	211a4804 	addi	r4,r4,26912
 2003b70:	20006000 	call	2000600 <DisWrStr>
	DisCurPos(2,1);
 2003b74:	01000084 	movi	r4,2
 2003b78:	01400044 	movi	r5,1
 2003b7c:	20005400 	call	2000540 <DisCurPos>
	DisWrStr(Num2toStr2(number));
 2003b80:	e0bfff03 	ldbu	r2,-4(fp)
 2003b84:	1009883a 	mov	r4,r2
 2003b88:	20062640 	call	2006264 <Num2toStr2>
 2003b8c:	1009883a 	mov	r4,r2
 2003b90:	20006000 	call	2000600 <DisWrStr>
	DisWrStr(".Load/Save Setting");
 2003b94:	01008074 	movhi	r4,513
 2003b98:	211a4e04 	addi	r4,r4,26936
 2003b9c:	20006000 	call	2000600 <DisWrStr>

	DisCurPos(4,1);
 2003ba0:	01000104 	movi	r4,4
 2003ba4:	01400044 	movi	r5,1
 2003ba8:	20005400 	call	2000540 <DisCurPos>
	DisWrStr("<Prev   Enter  Next>");
 2003bac:	01008074 	movhi	r4,513
 2003bb0:	211a5304 	addi	r4,r4,26956
 2003bb4:	20006000 	call	2000600 <DisWrStr>
}
 2003bb8:	e037883a 	mov	sp,fp
 2003bbc:	dfc00117 	ldw	ra,4(sp)
 2003bc0:	df000017 	ldw	fp,0(sp)
 2003bc4:	dec00204 	addi	sp,sp,8
 2003bc8:	f800283a 	ret

02003bcc <SaveToEEPROM>:

void SaveToEEPROM()
{
 2003bcc:	defffc04 	addi	sp,sp,-16
 2003bd0:	dfc00315 	stw	ra,12(sp)
 2003bd4:	df000215 	stw	fp,8(sp)
 2003bd8:	dc000115 	stw	r16,4(sp)
 2003bdc:	df000104 	addi	fp,sp,4
	KPLED_All_Off();
 2003be0:	2000f400 	call	2000f40 <KPLED_All_Off>

	DisClear();
 2003be4:	20006780 	call	2000678 <DisClear>
	DisShowCur(0);
 2003be8:	0009883a 	mov	r4,zero
 2003bec:	20004fc0 	call	20004fc <DisShowCur>
	DisCurPos(2,1);
 2003bf0:	01000084 	movi	r4,2
 2003bf4:	01400044 	movi	r5,1
 2003bf8:	20005400 	call	2000540 <DisCurPos>
	DisWrStr("      Saving...     ");
 2003bfc:	01008074 	movhi	r4,513
 2003c00:	211a5904 	addi	r4,r4,26980
 2003c04:	20006000 	call	2000600 <DisWrStr>
	WriteEEPROM32Bits(1,LoadRAMRepRate());
 2003c08:	2001a680 	call	2001a68 <LoadRAMRepRate>
 2003c0c:	01000044 	movi	r4,1
 2003c10:	100b883a 	mov	r5,r2
 2003c14:	20017240 	call	2001724 <WriteEEPROM32Bits>
	WriteEEPROM32Bits(2,LoadRAMShots());
 2003c18:	2001a940 	call	2001a94 <LoadRAMShots>
 2003c1c:	01000084 	movi	r4,2
 2003c20:	100b883a 	mov	r5,r2
 2003c24:	20017240 	call	2001724 <WriteEEPROM32Bits>
	unsigned char i;
	for(i=1;i<=CHNL_NUM;i++)
 2003c28:	00800044 	movi	r2,1
 2003c2c:	e0bfff05 	stb	r2,-4(fp)
 2003c30:	00001706 	br	2003c90 <SaveToEEPROM+0xc4>
	{
		WriteEEPROM32Bits(2*i+1,LoadRAMStartTime(i));
 2003c34:	e0bfff03 	ldbu	r2,-4(fp)
 2003c38:	1085883a 	add	r2,r2,r2
 2003c3c:	10800044 	addi	r2,r2,1
 2003c40:	14003fcc 	andi	r16,r2,255
 2003c44:	e0bfff03 	ldbu	r2,-4(fp)
 2003c48:	1009883a 	mov	r4,r2
 2003c4c:	2001ac00 	call	2001ac0 <LoadRAMStartTime>
 2003c50:	8009883a 	mov	r4,r16
 2003c54:	100b883a 	mov	r5,r2
 2003c58:	20017240 	call	2001724 <WriteEEPROM32Bits>
		WriteEEPROM32Bits(2*i+2,LoadRAMEndTime(i));
 2003c5c:	e0bfff03 	ldbu	r2,-4(fp)
 2003c60:	10800044 	addi	r2,r2,1
 2003c64:	1085883a 	add	r2,r2,r2
 2003c68:	14003fcc 	andi	r16,r2,255
 2003c6c:	e0bfff03 	ldbu	r2,-4(fp)
 2003c70:	1009883a 	mov	r4,r2
 2003c74:	2001b000 	call	2001b00 <LoadRAMEndTime>
 2003c78:	8009883a 	mov	r4,r16
 2003c7c:	100b883a 	mov	r5,r2
 2003c80:	20017240 	call	2001724 <WriteEEPROM32Bits>
	DisCurPos(2,1);
	DisWrStr("      Saving...     ");
	WriteEEPROM32Bits(1,LoadRAMRepRate());
	WriteEEPROM32Bits(2,LoadRAMShots());
	unsigned char i;
	for(i=1;i<=CHNL_NUM;i++)
 2003c84:	e0bfff03 	ldbu	r2,-4(fp)
 2003c88:	10800044 	addi	r2,r2,1
 2003c8c:	e0bfff05 	stb	r2,-4(fp)
 2003c90:	e0bfff03 	ldbu	r2,-4(fp)
 2003c94:	108002b0 	cmpltui	r2,r2,10
 2003c98:	103fe61e 	bne	r2,zero,2003c34 <SaveToEEPROM+0x68>
	{
		WriteEEPROM32Bits(2*i+1,LoadRAMStartTime(i));
		WriteEEPROM32Bits(2*i+2,LoadRAMEndTime(i));
	}
	ResetRAMFromEEPROM();
 2003c9c:	20018880 	call	2001888 <ResetRAMFromEEPROM>
	DisCurPos(3,1);
 2003ca0:	010000c4 	movi	r4,3
 2003ca4:	01400044 	movi	r5,1
 2003ca8:	20005400 	call	2000540 <DisCurPos>
	DisWrStr("        Done!       ");
 2003cac:	01008074 	movhi	r4,513
 2003cb0:	211a5f04 	addi	r4,r4,27004
 2003cb4:	20006000 	call	2000600 <DisWrStr>
	delay(MSG_DELAY);
 2003cb8:	01271014 	movui	r4,40000
 2003cbc:	20019dc0 	call	20019dc <delay>
}
 2003cc0:	e037883a 	mov	sp,fp
 2003cc4:	dfc00217 	ldw	ra,8(sp)
 2003cc8:	df000117 	ldw	fp,4(sp)
 2003ccc:	dc000017 	ldw	r16,0(sp)
 2003cd0:	dec00304 	addi	sp,sp,12
 2003cd4:	f800283a 	ret

02003cd8 <refreshSaveLoadMenuPage>:

void refreshSaveLoadMenuPage(unsigned char curr_state)
{
 2003cd8:	defffd04 	addi	sp,sp,-12
 2003cdc:	dfc00215 	stw	ra,8(sp)
 2003ce0:	df000115 	stw	fp,4(sp)
 2003ce4:	df000104 	addi	fp,sp,4
 2003ce8:	2005883a 	mov	r2,r4
 2003cec:	e0bfff05 	stb	r2,-4(fp)
	if(curr_state == 1)
 2003cf0:	e0bfff03 	ldbu	r2,-4(fp)
 2003cf4:	10800058 	cmpnei	r2,r2,1
 2003cf8:	10001f1e 	bne	r2,zero,2003d78 <refreshSaveLoadMenuPage+0xa0>
	{
		KPLED_All_Off();
 2003cfc:	2000f400 	call	2000f40 <KPLED_All_Off>
		KPLED_Enter(3);
 2003d00:	010000c4 	movi	r4,3
 2003d04:	20012440 	call	2001244 <KPLED_Enter>
		KPLED_RightArrow(3);
 2003d08:	010000c4 	movi	r4,3
 2003d0c:	20010200 	call	2001020 <KPLED_RightArrow>
		KPLED_Menu(3);
 2003d10:	010000c4 	movi	r4,3
 2003d14:	20011340 	call	2001134 <KPLED_Menu>
		KPLED_Enable(1);
 2003d18:	01000044 	movi	r4,1
 2003d1c:	20012cc0 	call	20012cc <KPLED_Enable>

		DisClear();
 2003d20:	20006780 	call	2000678 <DisClear>
		DisShowCur(0);
 2003d24:	0009883a 	mov	r4,zero
 2003d28:	20004fc0 	call	20004fc <DisShowCur>
		DisCurPos(1,1);
 2003d2c:	01000044 	movi	r4,1
 2003d30:	01400044 	movi	r5,1
 2003d34:	20005400 	call	2000540 <DisCurPos>
		DisWrStr("     Load/Save      ");
 2003d38:	01008074 	movhi	r4,513
 2003d3c:	211a6504 	addi	r4,r4,27028
 2003d40:	20006000 	call	2000600 <DisWrStr>
		DisCurPos(2,1);
 2003d44:	01000084 	movi	r4,2
 2003d48:	01400044 	movi	r5,1
 2003d4c:	20005400 	call	2000540 <DisCurPos>
		DisWrStr("Load Settings");
 2003d50:	01008074 	movhi	r4,513
 2003d54:	211a6b04 	addi	r4,r4,27052
 2003d58:	20006000 	call	2000600 <DisWrStr>

		DisCurPos(4,1);
 2003d5c:	01000104 	movi	r4,4
 2003d60:	01400044 	movi	r5,1
 2003d64:	20005400 	call	2000540 <DisCurPos>
		DisWrStr("        Enter  Next>");
 2003d68:	01008074 	movhi	r4,513
 2003d6c:	211a6f04 	addi	r4,r4,27068
 2003d70:	20006000 	call	2000600 <DisWrStr>
 2003d74:	00002106 	br	2003dfc <refreshSaveLoadMenuPage+0x124>
	}
	else if(curr_state == 2)
 2003d78:	e0bfff03 	ldbu	r2,-4(fp)
 2003d7c:	10800098 	cmpnei	r2,r2,2
 2003d80:	10001e1e 	bne	r2,zero,2003dfc <refreshSaveLoadMenuPage+0x124>
	{
		KPLED_All_Off();
 2003d84:	2000f400 	call	2000f40 <KPLED_All_Off>
		KPLED_Enter(3);
 2003d88:	010000c4 	movi	r4,3
 2003d8c:	20012440 	call	2001244 <KPLED_Enter>
		KPLED_LeftArrow(3);
 2003d90:	010000c4 	movi	r4,3
 2003d94:	20010ac0 	call	20010ac <KPLED_LeftArrow>
		KPLED_Menu(3);
 2003d98:	010000c4 	movi	r4,3
 2003d9c:	20011340 	call	2001134 <KPLED_Menu>
		KPLED_Enable(1);
 2003da0:	01000044 	movi	r4,1
 2003da4:	20012cc0 	call	20012cc <KPLED_Enable>

		DisClear();
 2003da8:	20006780 	call	2000678 <DisClear>
		DisShowCur(0);
 2003dac:	0009883a 	mov	r4,zero
 2003db0:	20004fc0 	call	20004fc <DisShowCur>
		DisCurPos(1,1);
 2003db4:	01000044 	movi	r4,1
 2003db8:	01400044 	movi	r5,1
 2003dbc:	20005400 	call	2000540 <DisCurPos>
		DisWrStr("     Load/Save      ");
 2003dc0:	01008074 	movhi	r4,513
 2003dc4:	211a6504 	addi	r4,r4,27028
 2003dc8:	20006000 	call	2000600 <DisWrStr>
		DisCurPos(2,1);
 2003dcc:	01000084 	movi	r4,2
 2003dd0:	01400044 	movi	r5,1
 2003dd4:	20005400 	call	2000540 <DisCurPos>
		DisWrStr("Save Settings");
 2003dd8:	01008074 	movhi	r4,513
 2003ddc:	211a7504 	addi	r4,r4,27092
 2003de0:	20006000 	call	2000600 <DisWrStr>

		DisCurPos(4,1);
 2003de4:	01000104 	movi	r4,4
 2003de8:	01400044 	movi	r5,1
 2003dec:	20005400 	call	2000540 <DisCurPos>
		DisWrStr("<Prev   Enter       ");
 2003df0:	01008074 	movhi	r4,513
 2003df4:	211a7904 	addi	r4,r4,27108
 2003df8:	20006000 	call	2000600 <DisWrStr>
	}
}
 2003dfc:	e037883a 	mov	sp,fp
 2003e00:	dfc00117 	ldw	ra,4(sp)
 2003e04:	df000017 	ldw	fp,0(sp)
 2003e08:	dec00204 	addi	sp,sp,8
 2003e0c:	f800283a 	ret

02003e10 <enterSaveLoadMenuPage>:

void enterSaveLoadMenuPage(unsigned char curr_state)
{
 2003e10:	defffc04 	addi	sp,sp,-16
 2003e14:	dfc00315 	stw	ra,12(sp)
 2003e18:	df000215 	stw	fp,8(sp)
 2003e1c:	df000204 	addi	fp,sp,8
 2003e20:	2005883a 	mov	r2,r4
 2003e24:	e0bfff05 	stb	r2,-4(fp)
	if(curr_state == 1)
 2003e28:	e0bfff03 	ldbu	r2,-4(fp)
 2003e2c:	10800058 	cmpnei	r2,r2,1
 2003e30:	1000531e 	bne	r2,zero,2003f80 <enterSaveLoadMenuPage+0x170>
	{
		KPLED_All_Off();
 2003e34:	2000f400 	call	2000f40 <KPLED_All_Off>
		KPLED_Enter(3);
 2003e38:	010000c4 	movi	r4,3
 2003e3c:	20012440 	call	2001244 <KPLED_Enter>
		KPLED_Menu(3);
 2003e40:	010000c4 	movi	r4,3
 2003e44:	20011340 	call	2001134 <KPLED_Menu>

		DisClear();
 2003e48:	20006780 	call	2000678 <DisClear>
		DisShowCur(0);
 2003e4c:	0009883a 	mov	r4,zero
 2003e50:	20004fc0 	call	20004fc <DisShowCur>
		DisCurPos(1,1);
 2003e54:	01000044 	movi	r4,1
 2003e58:	01400044 	movi	r5,1
 2003e5c:	20005400 	call	2000540 <DisCurPos>
		DisWrStr("Confirm to Load?");
 2003e60:	01008074 	movhi	r4,513
 2003e64:	211a7f04 	addi	r4,r4,27132
 2003e68:	20006000 	call	2000600 <DisWrStr>
		DisCurPos(2,1);
 2003e6c:	01000084 	movi	r4,2
 2003e70:	01400044 	movi	r5,1
 2003e74:	20005400 	call	2000540 <DisCurPos>
		DisWrStr("   Yes: Press ENTER");
 2003e78:	01008074 	movhi	r4,513
 2003e7c:	211a8404 	addi	r4,r4,27152
 2003e80:	20006000 	call	2000600 <DisWrStr>
		DisCurPos(3,1);
 2003e84:	010000c4 	movi	r4,3
 2003e88:	01400044 	movi	r5,1
 2003e8c:	20005400 	call	2000540 <DisCurPos>
		DisWrStr("   No:  Press MENU");
 2003e90:	01008074 	movhi	r4,513
 2003e94:	211a8904 	addi	r4,r4,27172
 2003e98:	20006000 	call	2000600 <DisWrStr>
 2003e9c:	00000106 	br	2003ea4 <enterSaveLoadMenuPage+0x94>
						return;
					}
				}
				while(keyFlag);
			}
		}
 2003ea0:	0001883a 	nop
		DisWrStr("   No:  Press MENU");

		unsigned char keyVal_latch;
		while(1)
		{
			if(keyFlag)
 2003ea4:	00810034 	movhi	r2,1024
 2003ea8:	10889804 	addi	r2,r2,8800
 2003eac:	10800003 	ldbu	r2,0(r2)
 2003eb0:	10803fcc 	andi	r2,r2,255
 2003eb4:	103ffa26 	beq	r2,zero,2003ea0 <enterSaveLoadMenuPage+0x90>
			{
				delay(100);
 2003eb8:	01001904 	movi	r4,100
 2003ebc:	20019dc0 	call	20019dc <delay>
				if(keyFlag)
 2003ec0:	00810034 	movhi	r2,1024
 2003ec4:	10889804 	addi	r2,r2,8800
 2003ec8:	10800003 	ldbu	r2,0(r2)
 2003ecc:	10803fcc 	andi	r2,r2,255
 2003ed0:	10002426 	beq	r2,zero,2003f64 <enterSaveLoadMenuPage+0x154>
				{
					keyVal_latch = keyVal;
 2003ed4:	00810034 	movhi	r2,1024
 2003ed8:	10889404 	addi	r2,r2,8784
 2003edc:	10800003 	ldbu	r2,0(r2)
 2003ee0:	e0bffe05 	stb	r2,-8(fp)
					if(keyVal_latch == KEY_MENU)
 2003ee4:	e0bffe03 	ldbu	r2,-8(fp)
 2003ee8:	10800318 	cmpnei	r2,r2,12
 2003eec:	10006926 	beq	r2,zero,2004094 <enterSaveLoadMenuPage+0x284>
					{
						return;
					}
					else if(keyVal_latch == KEY_ENTER)
 2003ef0:	e0bffe03 	ldbu	r2,-8(fp)
 2003ef4:	10800398 	cmpnei	r2,r2,14
 2003ef8:	10001a1e 	bne	r2,zero,2003f64 <enterSaveLoadMenuPage+0x154>
					{
						while(keyFlag);
 2003efc:	0001883a 	nop
 2003f00:	00810034 	movhi	r2,1024
 2003f04:	10889804 	addi	r2,r2,8800
 2003f08:	10800003 	ldbu	r2,0(r2)
 2003f0c:	10803fcc 	andi	r2,r2,255
 2003f10:	103ffb1e 	bne	r2,zero,2003f00 <enterSaveLoadMenuPage+0xf0>
						DisClear();
 2003f14:	20006780 	call	2000678 <DisClear>
						DisShowCur(0);
 2003f18:	0009883a 	mov	r4,zero
 2003f1c:	20004fc0 	call	20004fc <DisShowCur>
						DisCurPos(2,1);
 2003f20:	01000084 	movi	r4,2
 2003f24:	01400044 	movi	r5,1
 2003f28:	20005400 	call	2000540 <DisCurPos>
						DisWrStr("      Loading...    ");
 2003f2c:	01008074 	movhi	r4,513
 2003f30:	211a8e04 	addi	r4,r4,27192
 2003f34:	20006000 	call	2000600 <DisWrStr>
						ResetRAMFromEEPROM();
 2003f38:	20018880 	call	2001888 <ResetRAMFromEEPROM>
						refreshErrFlags();
 2003f3c:	2007bf80 	call	2007bf8 <refreshErrFlags>
						DisCurPos(3,1);
 2003f40:	010000c4 	movi	r4,3
 2003f44:	01400044 	movi	r5,1
 2003f48:	20005400 	call	2000540 <DisCurPos>
						DisWrStr("        Done!       ");
 2003f4c:	01008074 	movhi	r4,513
 2003f50:	211a5f04 	addi	r4,r4,27004
 2003f54:	20006000 	call	2000600 <DisWrStr>
						delay(MSG_DELAY);
 2003f58:	01271014 	movui	r4,40000
 2003f5c:	20019dc0 	call	20019dc <delay>
						return;
 2003f60:	00004f06 	br	20040a0 <enterSaveLoadMenuPage+0x290>
					}
				}
				while(keyFlag);
 2003f64:	0001883a 	nop
 2003f68:	00810034 	movhi	r2,1024
 2003f6c:	10889804 	addi	r2,r2,8800
 2003f70:	10800003 	ldbu	r2,0(r2)
 2003f74:	10803fcc 	andi	r2,r2,255
 2003f78:	103ffb1e 	bne	r2,zero,2003f68 <enterSaveLoadMenuPage+0x158>
			}
		}
 2003f7c:	003fc806 	br	2003ea0 <enterSaveLoadMenuPage+0x90>
	}
	else if(curr_state == 2)
 2003f80:	e0bfff03 	ldbu	r2,-4(fp)
 2003f84:	10800098 	cmpnei	r2,r2,2
 2003f88:	1000451e 	bne	r2,zero,20040a0 <enterSaveLoadMenuPage+0x290>
	{
		KPLED_All_Off();
 2003f8c:	2000f400 	call	2000f40 <KPLED_All_Off>
		KPLED_Enter(3);
 2003f90:	010000c4 	movi	r4,3
 2003f94:	20012440 	call	2001244 <KPLED_Enter>
		KPLED_Menu(3);
 2003f98:	010000c4 	movi	r4,3
 2003f9c:	20011340 	call	2001134 <KPLED_Menu>

		DisClear();
 2003fa0:	20006780 	call	2000678 <DisClear>
		DisShowCur(0);
 2003fa4:	0009883a 	mov	r4,zero
 2003fa8:	20004fc0 	call	20004fc <DisShowCur>
		DisCurPos(1,1);
 2003fac:	01000044 	movi	r4,1
 2003fb0:	01400044 	movi	r5,1
 2003fb4:	20005400 	call	2000540 <DisCurPos>
		DisWrStr("Confirm to Save?");
 2003fb8:	01008074 	movhi	r4,513
 2003fbc:	211a9404 	addi	r4,r4,27216
 2003fc0:	20006000 	call	2000600 <DisWrStr>
		DisCurPos(2,1);
 2003fc4:	01000084 	movi	r4,2
 2003fc8:	01400044 	movi	r5,1
 2003fcc:	20005400 	call	2000540 <DisCurPos>
		DisWrStr("   Yes: Press ENTER");
 2003fd0:	01008074 	movhi	r4,513
 2003fd4:	211a8404 	addi	r4,r4,27152
 2003fd8:	20006000 	call	2000600 <DisWrStr>
		DisCurPos(3,1);
 2003fdc:	010000c4 	movi	r4,3
 2003fe0:	01400044 	movi	r5,1
 2003fe4:	20005400 	call	2000540 <DisCurPos>
		DisWrStr("   No:  Press MENU");
 2003fe8:	01008074 	movhi	r4,513
 2003fec:	211a8904 	addi	r4,r4,27172
 2003ff0:	20006000 	call	2000600 <DisWrStr>
 2003ff4:	00000106 	br	2003ffc <enterSaveLoadMenuPage+0x1ec>
						return;
					}
				}
				while(keyFlag);
			}
		}
 2003ff8:	0001883a 	nop
		DisWrStr("   No:  Press MENU");

		unsigned char keyVal_latch;
		while(1)
		{
			if(keyFlag)
 2003ffc:	00810034 	movhi	r2,1024
 2004000:	10889804 	addi	r2,r2,8800
 2004004:	10800003 	ldbu	r2,0(r2)
 2004008:	10803fcc 	andi	r2,r2,255
 200400c:	103ffa26 	beq	r2,zero,2003ff8 <enterSaveLoadMenuPage+0x1e8>
			{
				delay(100);
 2004010:	01001904 	movi	r4,100
 2004014:	20019dc0 	call	20019dc <delay>
				if(keyFlag)
 2004018:	00810034 	movhi	r2,1024
 200401c:	10889804 	addi	r2,r2,8800
 2004020:	10800003 	ldbu	r2,0(r2)
 2004024:	10803fcc 	andi	r2,r2,255
 2004028:	10001326 	beq	r2,zero,2004078 <enterSaveLoadMenuPage+0x268>
				{
					keyVal_latch = keyVal;
 200402c:	00810034 	movhi	r2,1024
 2004030:	10889404 	addi	r2,r2,8784
 2004034:	10800003 	ldbu	r2,0(r2)
 2004038:	e0bffe45 	stb	r2,-7(fp)
					if(keyVal_latch == KEY_MENU)
 200403c:	e0bffe43 	ldbu	r2,-7(fp)
 2004040:	10800318 	cmpnei	r2,r2,12
 2004044:	10001526 	beq	r2,zero,200409c <enterSaveLoadMenuPage+0x28c>
					{
						return;
					}
					else if(keyVal_latch == KEY_ENTER)
 2004048:	e0bffe43 	ldbu	r2,-7(fp)
 200404c:	10800398 	cmpnei	r2,r2,14
 2004050:	1000091e 	bne	r2,zero,2004078 <enterSaveLoadMenuPage+0x268>
					{
						while(keyFlag);
 2004054:	0001883a 	nop
 2004058:	00810034 	movhi	r2,1024
 200405c:	10889804 	addi	r2,r2,8800
 2004060:	10800003 	ldbu	r2,0(r2)
 2004064:	10803fcc 	andi	r2,r2,255
 2004068:	103ffb1e 	bne	r2,zero,2004058 <enterSaveLoadMenuPage+0x248>
						SaveToEEPROM();
 200406c:	2003bcc0 	call	2003bcc <SaveToEEPROM>

						return;
 2004070:	0001883a 	nop
 2004074:	00000a06 	br	20040a0 <enterSaveLoadMenuPage+0x290>
					}
				}
				while(keyFlag);
 2004078:	0001883a 	nop
 200407c:	00810034 	movhi	r2,1024
 2004080:	10889804 	addi	r2,r2,8800
 2004084:	10800003 	ldbu	r2,0(r2)
 2004088:	10803fcc 	andi	r2,r2,255
 200408c:	103ffb1e 	bne	r2,zero,200407c <enterSaveLoadMenuPage+0x26c>
			}
		}
 2004090:	003fd906 	br	2003ff8 <enterSaveLoadMenuPage+0x1e8>
				if(keyFlag)
				{
					keyVal_latch = keyVal;
					if(keyVal_latch == KEY_MENU)
					{
						return;
 2004094:	0001883a 	nop
 2004098:	00000106 	br	20040a0 <enterSaveLoadMenuPage+0x290>
				if(keyFlag)
				{
					keyVal_latch = keyVal;
					if(keyVal_latch == KEY_MENU)
					{
						return;
 200409c:	0001883a 	nop
				}
				while(keyFlag);
			}
		}
	}
}
 20040a0:	e037883a 	mov	sp,fp
 20040a4:	dfc00117 	ldw	ra,4(sp)
 20040a8:	df000017 	ldw	fp,0(sp)
 20040ac:	dec00204 	addi	sp,sp,8
 20040b0:	f800283a 	ret

020040b4 <enterSaveLoadMenu>:

void enterSaveLoadMenu()
{
 20040b4:	defffd04 	addi	sp,sp,-12
 20040b8:	dfc00215 	stw	ra,8(sp)
 20040bc:	df000115 	stw	fp,4(sp)
 20040c0:	df000104 	addi	fp,sp,4
	unsigned char curr_state = 1;
 20040c4:	00800044 	movi	r2,1
 20040c8:	e0bfff05 	stb	r2,-4(fp)

	refreshSaveLoadMenuPage(curr_state);
 20040cc:	e0bfff03 	ldbu	r2,-4(fp)
 20040d0:	1009883a 	mov	r4,r2
 20040d4:	2003cd80 	call	2003cd8 <refreshSaveLoadMenuPage>
 20040d8:	00000106 	br	20040e0 <enterSaveLoadMenu+0x2c>
						refreshSaveLoadMenuPage(curr_state);
					}
				}
				while(keyFlag);
			}
		}
 20040dc:	0001883a 	nop
	refreshSaveLoadMenuPage(curr_state);
	unsigned char keyVal_latch;

	while(1)
		{
			if(keyFlag)
 20040e0:	00810034 	movhi	r2,1024
 20040e4:	10889804 	addi	r2,r2,8800
 20040e8:	10800003 	ldbu	r2,0(r2)
 20040ec:	10803fcc 	andi	r2,r2,255
 20040f0:	103ffa26 	beq	r2,zero,20040dc <enterSaveLoadMenu+0x28>
			{
				delay(100);
 20040f4:	01001904 	movi	r4,100
 20040f8:	20019dc0 	call	20019dc <delay>
				if(keyFlag)
 20040fc:	00810034 	movhi	r2,1024
 2004100:	10889804 	addi	r2,r2,8800
 2004104:	10800003 	ldbu	r2,0(r2)
 2004108:	10803fcc 	andi	r2,r2,255
 200410c:	10003e26 	beq	r2,zero,2004208 <enterSaveLoadMenu+0x154>
				{
					keyVal_latch = keyVal;
 2004110:	00810034 	movhi	r2,1024
 2004114:	10889404 	addi	r2,r2,8784
 2004118:	10800003 	ldbu	r2,0(r2)
 200411c:	e0bfff45 	stb	r2,-3(fp)
					if(keyVal_latch == KEY_LEFT)
 2004120:	e0bfff43 	ldbu	r2,-3(fp)
 2004124:	10800298 	cmpnei	r2,r2,10
 2004128:	10000a1e 	bne	r2,zero,2004154 <enterSaveLoadMenu+0xa0>
					{
						if(curr_state > 1)
 200412c:	e0bfff03 	ldbu	r2,-4(fp)
 2004130:	108000b0 	cmpltui	r2,r2,2
 2004134:	1000341e 	bne	r2,zero,2004208 <enterSaveLoadMenu+0x154>
						{
							curr_state--;
 2004138:	e0bfff03 	ldbu	r2,-4(fp)
 200413c:	10bfffc4 	addi	r2,r2,-1
 2004140:	e0bfff05 	stb	r2,-4(fp)
							refreshSaveLoadMenuPage(curr_state);
 2004144:	e0bfff03 	ldbu	r2,-4(fp)
 2004148:	1009883a 	mov	r4,r2
 200414c:	2003cd80 	call	2003cd8 <refreshSaveLoadMenuPage>
						while(keyFlag);
						enterFireMenu();
						refreshSaveLoadMenuPage(curr_state);
					}
				}
				while(keyFlag);
 2004150:	00002d06 	br	2004208 <enterSaveLoadMenu+0x154>
						{
							curr_state--;
							refreshSaveLoadMenuPage(curr_state);
						}
					}
					else if(keyVal_latch == KEY_RIGHT)
 2004154:	e0bfff43 	ldbu	r2,-3(fp)
 2004158:	108002d8 	cmpnei	r2,r2,11
 200415c:	10000a1e 	bne	r2,zero,2004188 <enterSaveLoadMenu+0xd4>
					{
						if(curr_state < 2)
 2004160:	e0bfff03 	ldbu	r2,-4(fp)
 2004164:	108000a8 	cmpgeui	r2,r2,2
 2004168:	1000271e 	bne	r2,zero,2004208 <enterSaveLoadMenu+0x154>
						{
							curr_state++;
 200416c:	e0bfff03 	ldbu	r2,-4(fp)
 2004170:	10800044 	addi	r2,r2,1
 2004174:	e0bfff05 	stb	r2,-4(fp)
							refreshSaveLoadMenuPage(curr_state);
 2004178:	e0bfff03 	ldbu	r2,-4(fp)
 200417c:	1009883a 	mov	r4,r2
 2004180:	2003cd80 	call	2003cd8 <refreshSaveLoadMenuPage>
						while(keyFlag);
						enterFireMenu();
						refreshSaveLoadMenuPage(curr_state);
					}
				}
				while(keyFlag);
 2004184:	00002006 	br	2004208 <enterSaveLoadMenu+0x154>
						{
							curr_state++;
							refreshSaveLoadMenuPage(curr_state);
						}
					}
					else if(keyVal_latch == KEY_ENTER)
 2004188:	e0bfff43 	ldbu	r2,-3(fp)
 200418c:	10800398 	cmpnei	r2,r2,14
 2004190:	10000d1e 	bne	r2,zero,20041c8 <enterSaveLoadMenu+0x114>
					{
						while(keyFlag);
 2004194:	0001883a 	nop
 2004198:	00810034 	movhi	r2,1024
 200419c:	10889804 	addi	r2,r2,8800
 20041a0:	10800003 	ldbu	r2,0(r2)
 20041a4:	10803fcc 	andi	r2,r2,255
 20041a8:	103ffb1e 	bne	r2,zero,2004198 <enterSaveLoadMenu+0xe4>
						enterSaveLoadMenuPage(curr_state);
 20041ac:	e0bfff03 	ldbu	r2,-4(fp)
 20041b0:	1009883a 	mov	r4,r2
 20041b4:	2003e100 	call	2003e10 <enterSaveLoadMenuPage>
						refreshSaveLoadMenuPage(curr_state);
 20041b8:	e0bfff03 	ldbu	r2,-4(fp)
 20041bc:	1009883a 	mov	r4,r2
 20041c0:	2003cd80 	call	2003cd8 <refreshSaveLoadMenuPage>
						while(keyFlag);
						enterFireMenu();
						refreshSaveLoadMenuPage(curr_state);
					}
				}
				while(keyFlag);
 20041c4:	00001006 	br	2004208 <enterSaveLoadMenu+0x154>
					{
						while(keyFlag);
						enterSaveLoadMenuPage(curr_state);
						refreshSaveLoadMenuPage(curr_state);
					}
					else if(keyVal_latch == KEY_MENU)
 20041c8:	e0bfff43 	ldbu	r2,-3(fp)
 20041cc:	10800318 	cmpnei	r2,r2,12
 20041d0:	10001426 	beq	r2,zero,2004224 <enterSaveLoadMenu+0x170>
					{
						return;
					}
					else if(keyVal_latch == KEY_ENA)
 20041d4:	e0bfff43 	ldbu	r2,-3(fp)
 20041d8:	108003d8 	cmpnei	r2,r2,15
 20041dc:	10000a1e 	bne	r2,zero,2004208 <enterSaveLoadMenu+0x154>
					{
						while(keyFlag);
 20041e0:	0001883a 	nop
 20041e4:	00810034 	movhi	r2,1024
 20041e8:	10889804 	addi	r2,r2,8800
 20041ec:	10800003 	ldbu	r2,0(r2)
 20041f0:	10803fcc 	andi	r2,r2,255
 20041f4:	103ffb1e 	bne	r2,zero,20041e4 <enterSaveLoadMenu+0x130>
						enterFireMenu();
 20041f8:	20031c00 	call	20031c0 <enterFireMenu>
						refreshSaveLoadMenuPage(curr_state);
 20041fc:	e0bfff03 	ldbu	r2,-4(fp)
 2004200:	1009883a 	mov	r4,r2
 2004204:	2003cd80 	call	2003cd8 <refreshSaveLoadMenuPage>
					}
				}
				while(keyFlag);
 2004208:	0001883a 	nop
 200420c:	00810034 	movhi	r2,1024
 2004210:	10889804 	addi	r2,r2,8800
 2004214:	10800003 	ldbu	r2,0(r2)
 2004218:	10803fcc 	andi	r2,r2,255
 200421c:	103ffb1e 	bne	r2,zero,200420c <enterSaveLoadMenu+0x158>
			}
		}
 2004220:	003fae06 	br	20040dc <enterSaveLoadMenu+0x28>
						enterSaveLoadMenuPage(curr_state);
						refreshSaveLoadMenuPage(curr_state);
					}
					else if(keyVal_latch == KEY_MENU)
					{
						return;
 2004224:	0001883a 	nop
					}
				}
				while(keyFlag);
			}
		}
}
 2004228:	e037883a 	mov	sp,fp
 200422c:	dfc00117 	ldw	ra,4(sp)
 2004230:	df000017 	ldw	fp,0(sp)
 2004234:	dec00204 	addi	sp,sp,8
 2004238:	f800283a 	ret

0200423c <entryShotCountersMenu>:
#include "..\inc\KPLED.h"
#include "..\inc\editNum10.h"
#include "..\inc\Counter.h"

void entryShotCountersMenu(unsigned char number)
{
 200423c:	defffd04 	addi	sp,sp,-12
 2004240:	dfc00215 	stw	ra,8(sp)
 2004244:	df000115 	stw	fp,4(sp)
 2004248:	df000104 	addi	fp,sp,4
 200424c:	2005883a 	mov	r2,r4
 2004250:	e0bfff05 	stb	r2,-4(fp)
	KPLED_All_Off();
 2004254:	2000f400 	call	2000f40 <KPLED_All_Off>
	KPLED_Enter(3);
 2004258:	010000c4 	movi	r4,3
 200425c:	20012440 	call	2001244 <KPLED_Enter>
	KPLED_Enable(1);
 2004260:	01000044 	movi	r4,1
 2004264:	20012cc0 	call	20012cc <KPLED_Enable>
	KPLED_LeftArrow(3);
 2004268:	010000c4 	movi	r4,3
 200426c:	20010ac0 	call	20010ac <KPLED_LeftArrow>

	DisClear();
 2004270:	20006780 	call	2000678 <DisClear>
	DisShowCur(0);
 2004274:	0009883a 	mov	r4,zero
 2004278:	20004fc0 	call	20004fc <DisShowCur>
	DisCurPos(1,1);
 200427c:	01000044 	movi	r4,1
 2004280:	01400044 	movi	r5,1
 2004284:	20005400 	call	2000540 <DisCurPos>
	DisWrStr("       MENU         ");
 2004288:	01008074 	movhi	r4,513
 200428c:	211a9904 	addi	r4,r4,27236
 2004290:	20006000 	call	2000600 <DisWrStr>
	DisCurPos(2,1);
 2004294:	01000084 	movi	r4,2
 2004298:	01400044 	movi	r5,1
 200429c:	20005400 	call	2000540 <DisCurPos>
	DisWrStr(Num2toStr2(number));
 20042a0:	e0bfff03 	ldbu	r2,-4(fp)
 20042a4:	1009883a 	mov	r4,r2
 20042a8:	20062640 	call	2006264 <Num2toStr2>
 20042ac:	1009883a 	mov	r4,r2
 20042b0:	20006000 	call	2000600 <DisWrStr>
	DisWrStr(".Shot Counters");
 20042b4:	01008074 	movhi	r4,513
 20042b8:	211a9f04 	addi	r4,r4,27260
 20042bc:	20006000 	call	2000600 <DisWrStr>

	DisCurPos(4,1);
 20042c0:	01000104 	movi	r4,4
 20042c4:	01400044 	movi	r5,1
 20042c8:	20005400 	call	2000540 <DisCurPos>
	DisWrStr("<Prev   Enter       ");
 20042cc:	01008074 	movhi	r4,513
 20042d0:	211aa304 	addi	r4,r4,27276
 20042d4:	20006000 	call	2000600 <DisWrStr>
}
 20042d8:	e037883a 	mov	sp,fp
 20042dc:	dfc00117 	ldw	ra,4(sp)
 20042e0:	df000017 	ldw	fp,0(sp)
 20042e4:	dec00204 	addi	sp,sp,8
 20042e8:	f800283a 	ret

020042ec <refreshShotCountersMenuPage>:

void refreshShotCountersMenuPage(unsigned char curr_state)
{
 20042ec:	defffd04 	addi	sp,sp,-12
 20042f0:	dfc00215 	stw	ra,8(sp)
 20042f4:	df000115 	stw	fp,4(sp)
 20042f8:	df000104 	addi	fp,sp,4
 20042fc:	2005883a 	mov	r2,r4
 2004300:	e0bfff05 	stb	r2,-4(fp)
	if(curr_state == 1)
 2004304:	e0bfff03 	ldbu	r2,-4(fp)
 2004308:	10800058 	cmpnei	r2,r2,1
 200430c:	1000281e 	bne	r2,zero,20043b0 <refreshShotCountersMenuPage+0xc4>
	{
		KPLED_All_Off();
 2004310:	2000f400 	call	2000f40 <KPLED_All_Off>
		KPLED_RightArrow(3);
 2004314:	010000c4 	movi	r4,3
 2004318:	20010200 	call	2001020 <KPLED_RightArrow>
		KPLED_Menu(3);
 200431c:	010000c4 	movi	r4,3
 2004320:	20011340 	call	2001134 <KPLED_Menu>
		KPLED_Enable(1);
 2004324:	01000044 	movi	r4,1
 2004328:	20012cc0 	call	20012cc <KPLED_Enable>

		DisClear();
 200432c:	20006780 	call	2000678 <DisClear>
		DisShowCur(0);
 2004330:	0009883a 	mov	r4,zero
 2004334:	20004fc0 	call	20004fc <DisShowCur>
		DisCurPos(1,1);
 2004338:	01000044 	movi	r4,1
 200433c:	01400044 	movi	r5,1
 2004340:	20005400 	call	2000540 <DisCurPos>
		DisWrStr("   Shot Counters    ");
 2004344:	01008074 	movhi	r4,513
 2004348:	211aa904 	addi	r4,r4,27300
 200434c:	20006000 	call	2000600 <DisWrStr>
		DisCurPos(2,1);
 2004350:	01000084 	movi	r4,2
 2004354:	01400044 	movi	r5,1
 2004358:	20005400 	call	2000540 <DisCurPos>
		DisWrStr("System Counter:");
 200435c:	01008074 	movhi	r4,513
 2004360:	211aaf04 	addi	r4,r4,27324
 2004364:	20006000 	call	2000600 <DisWrStr>
		DisCurPos(3,5);
 2004368:	010000c4 	movi	r4,3
 200436c:	01400144 	movi	r5,5
 2004370:	20005400 	call	2000540 <DisCurPos>
		DisWrStr(Num10toStr10(getCounter0Val()));
 2004374:	200026c0 	call	200026c <getCounter0Val>
 2004378:	1009883a 	mov	r4,r2
 200437c:	20054500 	call	2005450 <Num10toStr10>
 2004380:	1009883a 	mov	r4,r2
 2004384:	20006000 	call	2000600 <DisWrStr>
		DisWrStr(" Shots");
 2004388:	01008074 	movhi	r4,513
 200438c:	211ab304 	addi	r4,r4,27340
 2004390:	20006000 	call	2000600 <DisWrStr>
		DisCurPos(4,1);
 2004394:	01000104 	movi	r4,4
 2004398:	01400044 	movi	r5,1
 200439c:	20005400 	call	2000540 <DisCurPos>
		DisWrStr("               Next>");
 20043a0:	01008074 	movhi	r4,513
 20043a4:	211ab504 	addi	r4,r4,27348
 20043a8:	20006000 	call	2000600 <DisWrStr>
 20043ac:	00002e06 	br	2004468 <refreshShotCountersMenuPage+0x17c>
	}
	else if(curr_state == 2)
