Archive member included because of file (symbol)

c:/altera/13.1/nios2eds/bin/gnu/h-i686-mingw32/bin/../lib/gcc/nios2-elf/4.7.3/mno-hw-mul\libgcc.a(_fixunsdfsi.o)
                              obj/default/driver/uart.o (__fixunsdfsi)
c:/altera/13.1/nios2eds/bin/gnu/h-i686-mingw32/bin/../lib/gcc/nios2-elf/4.7.3/mno-hw-mul\libgcc.a(_addsub_df.o)
                              obj/default/driver/uart.o (__adddf3)
c:/altera/13.1/nios2eds/bin/gnu/h-i686-mingw32/bin/../lib/gcc/nios2-elf/4.7.3/mno-hw-mul\libgcc.a(_ge_df.o)
                              c:/altera/13.1/nios2eds/bin/gnu/h-i686-mingw32/bin/../lib/gcc/nios2-elf/4.7.3/mno-hw-mul\libgcc.a(_fixunsdfsi.o) (__gedf2)
c:/altera/13.1/nios2eds/bin/gnu/h-i686-mingw32/bin/../lib/gcc/nios2-elf/4.7.3/mno-hw-mul\libgcc.a(_df_to_si.o)
                              c:/altera/13.1/nios2eds/bin/gnu/h-i686-mingw32/bin/../lib/gcc/nios2-elf/4.7.3/mno-hw-mul\libgcc.a(_fixunsdfsi.o) (__fixdfsi)
c:/altera/13.1/nios2eds/bin/gnu/h-i686-mingw32/bin/../lib/gcc/nios2-elf/4.7.3/mno-hw-mul\libgcc.a(_thenan_df.o)
                              c:/altera/13.1/nios2eds/bin/gnu/h-i686-mingw32/bin/../lib/gcc/nios2-elf/4.7.3/mno-hw-mul\libgcc.a(_addsub_df.o) (__thenan_df)
c:/altera/13.1/nios2eds/bin/gnu/h-i686-mingw32/bin/../lib/gcc/nios2-elf/4.7.3/mno-hw-mul\libgcc.a(_usi_to_df.o)
                              obj/default/driver/uart.o (__floatunsidf)
c:/altera/13.1/nios2eds/bin/gnu/h-i686-mingw32/bin/../lib/gcc/nios2-elf/4.7.3/mno-hw-mul\libgcc.a(lib2-divmod.o)
                              obj/default/driver/uart.o (__udivsi3)
c:/altera/13.1/nios2eds/bin/gnu/h-i686-mingw32/bin/../lib/gcc/nios2-elf/4.7.3/mno-hw-mul\libgcc.a(lib2-mul.o)
                              obj/default/menuComponent/editNum10.o (__mulsi3)
c:/altera/13.1/nios2eds/bin/gnu/h-i686-mingw32/bin/../lib/gcc/nios2-elf/4.7.3/mno-hw-mul\libgcc.a(_clzsi2.o)
                              c:/altera/13.1/nios2eds/bin/gnu/h-i686-mingw32/bin/../lib/gcc/nios2-elf/4.7.3/mno-hw-mul\libgcc.a(_usi_to_df.o) (__clzsi2)
c:/altera/13.1/nios2eds/bin/gnu/h-i686-mingw32/bin/../lib/gcc/nios2-elf/4.7.3/mno-hw-mul\libgcc.a(_pack_df.o)
                              c:/altera/13.1/nios2eds/bin/gnu/h-i686-mingw32/bin/../lib/gcc/nios2-elf/4.7.3/mno-hw-mul\libgcc.a(_addsub_df.o) (__pack_d)
c:/altera/13.1/nios2eds/bin/gnu/h-i686-mingw32/bin/../lib/gcc/nios2-elf/4.7.3/mno-hw-mul\libgcc.a(_unpack_df.o)
                              c:/altera/13.1/nios2eds/bin/gnu/h-i686-mingw32/bin/../lib/gcc/nios2-elf/4.7.3/mno-hw-mul\libgcc.a(_addsub_df.o) (__unpack_d)
c:/altera/13.1/nios2eds/bin/gnu/h-i686-mingw32/bin/../lib/gcc/nios2-elf/4.7.3/mno-hw-mul\libgcc.a(_fpcmp_parts_df.o)
                              c:/altera/13.1/nios2eds/bin/gnu/h-i686-mingw32/bin/../lib/gcc/nios2-elf/4.7.3/mno-hw-mul\libgcc.a(_ge_df.o) (__fpcmp_parts_d)
c:/altera/13.1/nios2eds/bin/gnu/h-i686-mingw32/bin/../lib/gcc/nios2-elf/4.7.3/mno-hw-mul\libgcc.a(_lshrdi3.o)
                              c:/altera/13.1/nios2eds/bin/gnu/h-i686-mingw32/bin/../lib/gcc/nios2-elf/4.7.3/mno-hw-mul\libgcc.a(_pack_df.o) (__lshrdi3)
c:/altera/13.1/nios2eds/bin/gnu/h-i686-mingw32/bin/../lib/gcc/nios2-elf/4.7.3/mno-hw-mul\libgcc.a(_ashldi3.o)
                              c:/altera/13.1/nios2eds/bin/gnu/h-i686-mingw32/bin/../lib/gcc/nios2-elf/4.7.3/mno-hw-mul\libgcc.a(_pack_df.o) (__ashldi3)
c:/altera/13.1/nios2eds/bin/gnu/h-i686-mingw32/bin/../lib/gcc/nios2-elf/4.7.3/mno-hw-mul\libgcc.a(_clz.o)
                              c:/altera/13.1/nios2eds/bin/gnu/h-i686-mingw32/bin/../lib/gcc/nios2-elf/4.7.3/mno-hw-mul\libgcc.a(_clzsi2.o) (__clz_tab)
c:/altera/13.1/nios2eds/bin/gnu/h-i686-mingw32/bin/../lib/gcc/nios2-elf/4.7.3/../../../../../H-i686-mingw32/nios2-elf/lib/mno-hw-mul\libc.a(lib_a-printf.o)
                              obj/default/driver/FRAM.o (printf)
c:/altera/13.1/nios2eds/bin/gnu/h-i686-mingw32/bin/../lib/gcc/nios2-elf/4.7.3/../../../../../H-i686-mingw32/nios2-elf/lib/mno-hw-mul\libc.a(lib_a-puts.o)
                              obj/default/main/TopMenu.o (puts)
c:/altera/13.1/nios2eds/bin/gnu/h-i686-mingw32/bin/../lib/gcc/nios2-elf/4.7.3/../../../../../H-i686-mingw32/nios2-elf/lib/mno-hw-mul\libc.a(lib_a-sprintf.o)
                              obj/default/menuComponent/timingPage.o (sprintf)
c:/altera/13.1/nios2eds/bin/gnu/h-i686-mingw32/bin/../lib/gcc/nios2-elf/4.7.3/../../../../../H-i686-mingw32/nios2-elf/lib/mno-hw-mul\libc.a(lib_a-strlen.o)
                              c:/altera/13.1/nios2eds/bin/gnu/h-i686-mingw32/bin/../lib/gcc/nios2-elf/4.7.3/../../../../../H-i686-mingw32/nios2-elf/lib/mno-hw-mul\libc.a(lib_a-puts.o) (strlen)
c:/altera/13.1/nios2eds/bin/gnu/h-i686-mingw32/bin/../lib/gcc/nios2-elf/4.7.3/../../../../../H-i686-mingw32/nios2-elf/lib/mno-hw-mul\libc.a(lib_a-vfprintf.o)
                              c:/altera/13.1/nios2eds/bin/gnu/h-i686-mingw32/bin/../lib/gcc/nios2-elf/4.7.3/../../../../../H-i686-mingw32/nios2-elf/lib/mno-hw-mul\libc.a(lib_a-printf.o) (___vfprintf_internal_r)
c:/altera/13.1/nios2eds/bin/gnu/h-i686-mingw32/bin/../lib/gcc/nios2-elf/4.7.3/../../../../../H-i686-mingw32/nios2-elf/lib/mno-hw-mul\libc.a(lib_a-wsetup.o)
                              c:/altera/13.1/nios2eds/bin/gnu/h-i686-mingw32/bin/../lib/gcc/nios2-elf/4.7.3/../../../../../H-i686-mingw32/nios2-elf/lib/mno-hw-mul\libc.a(lib_a-vfprintf.o) (__swsetup_r)
c:/altera/13.1/nios2eds/bin/gnu/h-i686-mingw32/bin/../lib/gcc/nios2-elf/4.7.3/../../../../../H-i686-mingw32/nios2-elf/lib/mno-hw-mul\libc.a(lib_a-dtoa.o)
                              c:/altera/13.1/nios2eds/bin/gnu/h-i686-mingw32/bin/../lib/gcc/nios2-elf/4.7.3/../../../../../H-i686-mingw32/nios2-elf/lib/mno-hw-mul\libc.a(lib_a-vfprintf.o) (_dtoa_r)
c:/altera/13.1/nios2eds/bin/gnu/h-i686-mingw32/bin/../lib/gcc/nios2-elf/4.7.3/../../../../../H-i686-mingw32/nios2-elf/lib/mno-hw-mul\libc.a(lib_a-fflush.o)
                              c:/altera/13.1/nios2eds/bin/gnu/h-i686-mingw32/bin/../lib/gcc/nios2-elf/4.7.3/../../../../../H-i686-mingw32/nios2-elf/lib/mno-hw-mul\libc.a(lib_a-vfprintf.o) (_fflush_r)
c:/altera/13.1/nios2eds/bin/gnu/h-i686-mingw32/bin/../lib/gcc/nios2-elf/4.7.3/../../../../../H-i686-mingw32/nios2-elf/lib/mno-hw-mul\libc.a(lib_a-findfp.o)
                              c:/altera/13.1/nios2eds/bin/gnu/h-i686-mingw32/bin/../lib/gcc/nios2-elf/4.7.3/../../../../../H-i686-mingw32/nios2-elf/lib/mno-hw-mul\libc.a(lib_a-vfprintf.o) (__sinit)
c:/altera/13.1/nios2eds/bin/gnu/h-i686-mingw32/bin/../lib/gcc/nios2-elf/4.7.3/../../../../../H-i686-mingw32/nios2-elf/lib/mno-hw-mul\libc.a(lib_a-freer.o)
                              c:/altera/13.1/nios2eds/bin/gnu/h-i686-mingw32/bin/../lib/gcc/nios2-elf/4.7.3/../../../../../H-i686-mingw32/nios2-elf/lib/mno-hw-mul\libc.a(lib_a-wsetup.o) (_free_r)
c:/altera/13.1/nios2eds/bin/gnu/h-i686-mingw32/bin/../lib/gcc/nios2-elf/4.7.3/../../../../../H-i686-mingw32/nios2-elf/lib/mno-hw-mul\libc.a(lib_a-fvwrite.o)
                              c:/altera/13.1/nios2eds/bin/gnu/h-i686-mingw32/bin/../lib/gcc/nios2-elf/4.7.3/../../../../../H-i686-mingw32/nios2-elf/lib/mno-hw-mul\libc.a(lib_a-puts.o) (__sfvwrite_r)
c:/altera/13.1/nios2eds/bin/gnu/h-i686-mingw32/bin/../lib/gcc/nios2-elf/4.7.3/../../../../../H-i686-mingw32/nios2-elf/lib/mno-hw-mul\libc.a(lib_a-fwalk.o)
                              c:/altera/13.1/nios2eds/bin/gnu/h-i686-mingw32/bin/../lib/gcc/nios2-elf/4.7.3/../../../../../H-i686-mingw32/nios2-elf/lib/mno-hw-mul\libc.a(lib_a-findfp.o) (_fwalk)
c:/altera/13.1/nios2eds/bin/gnu/h-i686-mingw32/bin/../lib/gcc/nios2-elf/4.7.3/../../../../../H-i686-mingw32/nios2-elf/lib/mno-hw-mul\libc.a(lib_a-impure.o)
                              c:/altera/13.1/nios2eds/bin/gnu/h-i686-mingw32/bin/../lib/gcc/nios2-elf/4.7.3/../../../../../H-i686-mingw32/nios2-elf/lib/mno-hw-mul\libc.a(lib_a-fflush.o) (_global_impure_ptr)
c:/altera/13.1/nios2eds/bin/gnu/h-i686-mingw32/bin/../lib/gcc/nios2-elf/4.7.3/../../../../../H-i686-mingw32/nios2-elf/lib/mno-hw-mul\libc.a(lib_a-locale.o)
                              c:/altera/13.1/nios2eds/bin/gnu/h-i686-mingw32/bin/../lib/gcc/nios2-elf/4.7.3/../../../../../H-i686-mingw32/nios2-elf/lib/mno-hw-mul\libc.a(lib_a-vfprintf.o) (_localeconv_r)
c:/altera/13.1/nios2eds/bin/gnu/h-i686-mingw32/bin/../lib/gcc/nios2-elf/4.7.3/../../../../../H-i686-mingw32/nios2-elf/lib/mno-hw-mul\libc.a(lib_a-makebuf.o)
                              c:/altera/13.1/nios2eds/bin/gnu/h-i686-mingw32/bin/../lib/gcc/nios2-elf/4.7.3/../../../../../H-i686-mingw32/nios2-elf/lib/mno-hw-mul\libc.a(lib_a-wsetup.o) (__smakebuf_r)
c:/altera/13.1/nios2eds/bin/gnu/h-i686-mingw32/bin/../lib/gcc/nios2-elf/4.7.3/../../../../../H-i686-mingw32/nios2-elf/lib/mno-hw-mul\libc.a(lib_a-mallocr.o)
                              c:/altera/13.1/nios2eds/bin/gnu/h-i686-mingw32/bin/../lib/gcc/nios2-elf/4.7.3/../../../../../H-i686-mingw32/nios2-elf/lib/mno-hw-mul\libc.a(lib_a-findfp.o) (_malloc_r)
c:/altera/13.1/nios2eds/bin/gnu/h-i686-mingw32/bin/../lib/gcc/nios2-elf/4.7.3/../../../../../H-i686-mingw32/nios2-elf/lib/mno-hw-mul\libc.a(lib_a-memchr.o)
                              c:/altera/13.1/nios2eds/bin/gnu/h-i686-mingw32/bin/../lib/gcc/nios2-elf/4.7.3/../../../../../H-i686-mingw32/nios2-elf/lib/mno-hw-mul\libc.a(lib_a-vfprintf.o) (memchr)
c:/altera/13.1/nios2eds/bin/gnu/h-i686-mingw32/bin/../lib/gcc/nios2-elf/4.7.3/../../../../../H-i686-mingw32/nios2-elf/lib/mno-hw-mul\libc.a(lib_a-memcpy.o)
                              c:/altera/13.1/nios2eds/bin/gnu/h-i686-mingw32/bin/../lib/gcc/nios2-elf/4.7.3/../../../../../H-i686-mingw32/nios2-elf/lib/mno-hw-mul\libc.a(lib_a-dtoa.o) (memcpy)
c:/altera/13.1/nios2eds/bin/gnu/h-i686-mingw32/bin/../lib/gcc/nios2-elf/4.7.3/../../../../../H-i686-mingw32/nios2-elf/lib/mno-hw-mul\libc.a(lib_a-memmove.o)
                              c:/altera/13.1/nios2eds/bin/gnu/h-i686-mingw32/bin/../lib/gcc/nios2-elf/4.7.3/../../../../../H-i686-mingw32/nios2-elf/lib/mno-hw-mul\libc.a(lib_a-fvwrite.o) (memmove)
c:/altera/13.1/nios2eds/bin/gnu/h-i686-mingw32/bin/../lib/gcc/nios2-elf/4.7.3/../../../../../H-i686-mingw32/nios2-elf/lib/mno-hw-mul\libc.a(lib_a-memset.o)
                              c:/altera/13.1/nios2eds/bin/gnu/h-i686-mingw32/bin/../lib/gcc/nios2-elf/4.7.3/../../../../../H-i686-mingw32/nios2-elf/lib/mno-hw-mul\libc.a(lib_a-findfp.o) (memset)
c:/altera/13.1/nios2eds/bin/gnu/h-i686-mingw32/bin/../lib/gcc/nios2-elf/4.7.3/../../../../../H-i686-mingw32/nios2-elf/lib/mno-hw-mul\libc.a(lib_a-mprec.o)
                              c:/altera/13.1/nios2eds/bin/gnu/h-i686-mingw32/bin/../lib/gcc/nios2-elf/4.7.3/../../../../../H-i686-mingw32/nios2-elf/lib/mno-hw-mul\libc.a(lib_a-dtoa.o) (_Balloc)
c:/altera/13.1/nios2eds/bin/gnu/h-i686-mingw32/bin/../lib/gcc/nios2-elf/4.7.3/../../../../../H-i686-mingw32/nios2-elf/lib/mno-hw-mul\libc.a(lib_a-reallocr.o)
                              c:/altera/13.1/nios2eds/bin/gnu/h-i686-mingw32/bin/../lib/gcc/nios2-elf/4.7.3/../../../../../H-i686-mingw32/nios2-elf/lib/mno-hw-mul\libc.a(lib_a-fvwrite.o) (_realloc_r)
c:/altera/13.1/nios2eds/bin/gnu/h-i686-mingw32/bin/../lib/gcc/nios2-elf/4.7.3/../../../../../H-i686-mingw32/nios2-elf/lib/mno-hw-mul\libc.a(lib_a-s_isinfd.o)
                              c:/altera/13.1/nios2eds/bin/gnu/h-i686-mingw32/bin/../lib/gcc/nios2-elf/4.7.3/../../../../../H-i686-mingw32/nios2-elf/lib/mno-hw-mul\libc.a(lib_a-vfprintf.o) (__isinfd)
c:/altera/13.1/nios2eds/bin/gnu/h-i686-mingw32/bin/../lib/gcc/nios2-elf/4.7.3/../../../../../H-i686-mingw32/nios2-elf/lib/mno-hw-mul\libc.a(lib_a-s_isnand.o)
                              c:/altera/13.1/nios2eds/bin/gnu/h-i686-mingw32/bin/../lib/gcc/nios2-elf/4.7.3/../../../../../H-i686-mingw32/nios2-elf/lib/mno-hw-mul\libc.a(lib_a-vfprintf.o) (__isnand)
c:/altera/13.1/nios2eds/bin/gnu/h-i686-mingw32/bin/../lib/gcc/nios2-elf/4.7.3/../../../../../H-i686-mingw32/nios2-elf/lib/mno-hw-mul\libc.a(lib_a-sbrkr.o)
                              c:/altera/13.1/nios2eds/bin/gnu/h-i686-mingw32/bin/../lib/gcc/nios2-elf/4.7.3/../../../../../H-i686-mingw32/nios2-elf/lib/mno-hw-mul\libc.a(lib_a-freer.o) (_sbrk_r)
c:/altera/13.1/nios2eds/bin/gnu/h-i686-mingw32/bin/../lib/gcc/nios2-elf/4.7.3/../../../../../H-i686-mingw32/nios2-elf/lib/mno-hw-mul\libc.a(lib_a-stdio.o)
                              c:/altera/13.1/nios2eds/bin/gnu/h-i686-mingw32/bin/../lib/gcc/nios2-elf/4.7.3/../../../../../H-i686-mingw32/nios2-elf/lib/mno-hw-mul\libc.a(lib_a-findfp.o) (__sread)
c:/altera/13.1/nios2eds/bin/gnu/h-i686-mingw32/bin/../lib/gcc/nios2-elf/4.7.3/../../../../../H-i686-mingw32/nios2-elf/lib/mno-hw-mul\libc.a(lib_a-strcmp.o)
                              c:/altera/13.1/nios2eds/bin/gnu/h-i686-mingw32/bin/../lib/gcc/nios2-elf/4.7.3/../../../../../H-i686-mingw32/nios2-elf/lib/mno-hw-mul\libc.a(lib_a-locale.o) (strcmp)
c:/altera/13.1/nios2eds/bin/gnu/h-i686-mingw32/bin/../lib/gcc/nios2-elf/4.7.3/../../../../../H-i686-mingw32/nios2-elf/lib/mno-hw-mul\libc.a(lib_a-writer.o)
                              c:/altera/13.1/nios2eds/bin/gnu/h-i686-mingw32/bin/../lib/gcc/nios2-elf/4.7.3/../../../../../H-i686-mingw32/nios2-elf/lib/mno-hw-mul\libc.a(lib_a-stdio.o) (_write_r)
c:/altera/13.1/nios2eds/bin/gnu/h-i686-mingw32/bin/../lib/gcc/nios2-elf/4.7.3/../../../../../H-i686-mingw32/nios2-elf/lib/mno-hw-mul\libc.a(lib_a-callocr.o)
                              c:/altera/13.1/nios2eds/bin/gnu/h-i686-mingw32/bin/../lib/gcc/nios2-elf/4.7.3/../../../../../H-i686-mingw32/nios2-elf/lib/mno-hw-mul\libc.a(lib_a-mprec.o) (_calloc_r)
c:/altera/13.1/nios2eds/bin/gnu/h-i686-mingw32/bin/../lib/gcc/nios2-elf/4.7.3/../../../../../H-i686-mingw32/nios2-elf/lib/mno-hw-mul\libc.a(lib_a-closer.o)
                              c:/altera/13.1/nios2eds/bin/gnu/h-i686-mingw32/bin/../lib/gcc/nios2-elf/4.7.3/../../../../../H-i686-mingw32/nios2-elf/lib/mno-hw-mul\libc.a(lib_a-stdio.o) (_close_r)
c:/altera/13.1/nios2eds/bin/gnu/h-i686-mingw32/bin/../lib/gcc/nios2-elf/4.7.3/../../../../../H-i686-mingw32/nios2-elf/lib/mno-hw-mul\libc.a(lib_a-fclose.o)
                              c:/altera/13.1/nios2eds/bin/gnu/h-i686-mingw32/bin/../lib/gcc/nios2-elf/4.7.3/../../../../../H-i686-mingw32/nios2-elf/lib/mno-hw-mul\libc.a(lib_a-findfp.o) (fclose)
c:/altera/13.1/nios2eds/bin/gnu/h-i686-mingw32/bin/../lib/gcc/nios2-elf/4.7.3/../../../../../H-i686-mingw32/nios2-elf/lib/mno-hw-mul\libc.a(lib_a-fstatr.o)
                              c:/altera/13.1/nios2eds/bin/gnu/h-i686-mingw32/bin/../lib/gcc/nios2-elf/4.7.3/../../../../../H-i686-mingw32/nios2-elf/lib/mno-hw-mul\libc.a(lib_a-makebuf.o) (_fstat_r)
c:/altera/13.1/nios2eds/bin/gnu/h-i686-mingw32/bin/../lib/gcc/nios2-elf/4.7.3/../../../../../H-i686-mingw32/nios2-elf/lib/mno-hw-mul\libc.a(lib_a-int_errno.o)
                              c:/altera/13.1/nios2eds/bin/gnu/h-i686-mingw32/bin/../lib/gcc/nios2-elf/4.7.3/../../../../../H-i686-mingw32/nios2-elf/lib/mno-hw-mul\libc.a(lib_a-sbrkr.o) (errno)
c:/altera/13.1/nios2eds/bin/gnu/h-i686-mingw32/bin/../lib/gcc/nios2-elf/4.7.3/../../../../../H-i686-mingw32/nios2-elf/lib/mno-hw-mul\libc.a(lib_a-isattyr.o)
                              c:/altera/13.1/nios2eds/bin/gnu/h-i686-mingw32/bin/../lib/gcc/nios2-elf/4.7.3/../../../../../H-i686-mingw32/nios2-elf/lib/mno-hw-mul\libc.a(lib_a-makebuf.o) (_isatty_r)
c:/altera/13.1/nios2eds/bin/gnu/h-i686-mingw32/bin/../lib/gcc/nios2-elf/4.7.3/../../../../../H-i686-mingw32/nios2-elf/lib/mno-hw-mul\libc.a(lib_a-lseekr.o)
                              c:/altera/13.1/nios2eds/bin/gnu/h-i686-mingw32/bin/../lib/gcc/nios2-elf/4.7.3/../../../../../H-i686-mingw32/nios2-elf/lib/mno-hw-mul\libc.a(lib_a-stdio.o) (_lseek_r)
c:/altera/13.1/nios2eds/bin/gnu/h-i686-mingw32/bin/../lib/gcc/nios2-elf/4.7.3/../../../../../H-i686-mingw32/nios2-elf/lib/mno-hw-mul\libc.a(lib_a-readr.o)
                              c:/altera/13.1/nios2eds/bin/gnu/h-i686-mingw32/bin/../lib/gcc/nios2-elf/4.7.3/../../../../../H-i686-mingw32/nios2-elf/lib/mno-hw-mul\libc.a(lib_a-stdio.o) (_read_r)
c:/altera/13.1/nios2eds/bin/gnu/h-i686-mingw32/bin/../lib/gcc/nios2-elf/4.7.3/mno-hw-mul\libgcc.a(_udivdi3.o)
                              c:/altera/13.1/nios2eds/bin/gnu/h-i686-mingw32/bin/../lib/gcc/nios2-elf/4.7.3/../../../../../H-i686-mingw32/nios2-elf/lib/mno-hw-mul\libc.a(lib_a-vfprintf.o) (__udivdi3)
c:/altera/13.1/nios2eds/bin/gnu/h-i686-mingw32/bin/../lib/gcc/nios2-elf/4.7.3/mno-hw-mul\libgcc.a(_umoddi3.o)
                              c:/altera/13.1/nios2eds/bin/gnu/h-i686-mingw32/bin/../lib/gcc/nios2-elf/4.7.3/../../../../../H-i686-mingw32/nios2-elf/lib/mno-hw-mul\libc.a(lib_a-vfprintf.o) (__umoddi3)
c:/altera/13.1/nios2eds/bin/gnu/h-i686-mingw32/bin/../lib/gcc/nios2-elf/4.7.3/mno-hw-mul\libgcc.a(_mul_df.o)
                              c:/altera/13.1/nios2eds/bin/gnu/h-i686-mingw32/bin/../lib/gcc/nios2-elf/4.7.3/../../../../../H-i686-mingw32/nios2-elf/lib/mno-hw-mul\libc.a(lib_a-dtoa.o) (__muldf3)
c:/altera/13.1/nios2eds/bin/gnu/h-i686-mingw32/bin/../lib/gcc/nios2-elf/4.7.3/mno-hw-mul\libgcc.a(_div_df.o)
                              c:/altera/13.1/nios2eds/bin/gnu/h-i686-mingw32/bin/../lib/gcc/nios2-elf/4.7.3/../../../../../H-i686-mingw32/nios2-elf/lib/mno-hw-mul\libc.a(lib_a-dtoa.o) (__divdf3)
c:/altera/13.1/nios2eds/bin/gnu/h-i686-mingw32/bin/../lib/gcc/nios2-elf/4.7.3/mno-hw-mul\libgcc.a(_eq_df.o)
                              c:/altera/13.1/nios2eds/bin/gnu/h-i686-mingw32/bin/../lib/gcc/nios2-elf/4.7.3/../../../../../H-i686-mingw32/nios2-elf/lib/mno-hw-mul\libc.a(lib_a-vfprintf.o) (__eqdf2)
c:/altera/13.1/nios2eds/bin/gnu/h-i686-mingw32/bin/../lib/gcc/nios2-elf/4.7.3/mno-hw-mul\libgcc.a(_ne_df.o)
                              c:/altera/13.1/nios2eds/bin/gnu/h-i686-mingw32/bin/../lib/gcc/nios2-elf/4.7.3/../../../../../H-i686-mingw32/nios2-elf/lib/mno-hw-mul\libc.a(lib_a-vfprintf.o) (__nedf2)
c:/altera/13.1/nios2eds/bin/gnu/h-i686-mingw32/bin/../lib/gcc/nios2-elf/4.7.3/mno-hw-mul\libgcc.a(_gt_df.o)
                              c:/altera/13.1/nios2eds/bin/gnu/h-i686-mingw32/bin/../lib/gcc/nios2-elf/4.7.3/../../../../../H-i686-mingw32/nios2-elf/lib/mno-hw-mul\libc.a(lib_a-dtoa.o) (__gtdf2)
c:/altera/13.1/nios2eds/bin/gnu/h-i686-mingw32/bin/../lib/gcc/nios2-elf/4.7.3/mno-hw-mul\libgcc.a(_lt_df.o)
                              c:/altera/13.1/nios2eds/bin/gnu/h-i686-mingw32/bin/../lib/gcc/nios2-elf/4.7.3/../../../../../H-i686-mingw32/nios2-elf/lib/mno-hw-mul\libc.a(lib_a-vfprintf.o) (__ltdf2)
c:/altera/13.1/nios2eds/bin/gnu/h-i686-mingw32/bin/../lib/gcc/nios2-elf/4.7.3/mno-hw-mul\libgcc.a(_si_to_df.o)
                              c:/altera/13.1/nios2eds/bin/gnu/h-i686-mingw32/bin/../lib/gcc/nios2-elf/4.7.3/../../../../../H-i686-mingw32/nios2-elf/lib/mno-hw-mul\libc.a(lib_a-dtoa.o) (__floatsidf)
c:/altera/13.1/nios2eds/bin/gnu/h-i686-mingw32/bin/../lib/gcc/nios2-elf/4.7.3/mno-hw-mul\libgcc.a(_muldi3.o)
                              c:/altera/13.1/nios2eds/bin/gnu/h-i686-mingw32/bin/../lib/gcc/nios2-elf/4.7.3/mno-hw-mul\libgcc.a(_mul_df.o) (__muldi3)
../Controller_sw_bsp/\libhal_bsp.a(alt_close.o)
                              c:/altera/13.1/nios2eds/bin/gnu/h-i686-mingw32/bin/../lib/gcc/nios2-elf/4.7.3/../../../../../H-i686-mingw32/nios2-elf/lib/mno-hw-mul\libc.a(lib_a-closer.o) (close)
../Controller_sw_bsp/\libhal_bsp.a(alt_dev.o)
                              ../Controller_sw_bsp/\libhal_bsp.a(alt_close.o) (alt_fd_list)
../Controller_sw_bsp/\libhal_bsp.a(alt_errno.o)
                              ../Controller_sw_bsp/\libhal_bsp.a(alt_close.o) (alt_errno)
../Controller_sw_bsp/\libhal_bsp.a(alt_fstat.o)
                              c:/altera/13.1/nios2eds/bin/gnu/h-i686-mingw32/bin/../lib/gcc/nios2-elf/4.7.3/../../../../../H-i686-mingw32/nios2-elf/lib/mno-hw-mul\libc.a(lib_a-fstatr.o) (fstat)
../Controller_sw_bsp/\libhal_bsp.a(alt_iic.o)
                              obj/default/driver/powerFailure.o (alt_ic_isr_register)
../Controller_sw_bsp/\libhal_bsp.a(alt_iic_isr_register.o)
                              ../Controller_sw_bsp/\libhal_bsp.a(alt_iic.o) (alt_iic_isr_register)
../Controller_sw_bsp/\libhal_bsp.a(alt_irq_entry.o)
                              ../Controller_sw_bsp/\libhal_bsp.a(alt_iic_isr_register.o) (alt_irq_entry)
../Controller_sw_bsp/\libhal_bsp.a(alt_irq_handler.o)
                              ../Controller_sw_bsp/\libhal_bsp.a(alt_iic_isr_register.o) (alt_irq)
../Controller_sw_bsp/\libhal_bsp.a(alt_irq_vars.o)
                              ../Controller_sw_bsp/\libhal_bsp.a(alt_iic.o) (alt_irq_active)
../Controller_sw_bsp/\libhal_bsp.a(alt_isatty.o)
                              c:/altera/13.1/nios2eds/bin/gnu/h-i686-mingw32/bin/../lib/gcc/nios2-elf/4.7.3/../../../../../H-i686-mingw32/nios2-elf/lib/mno-hw-mul\libc.a(lib_a-isattyr.o) (isatty)
../Controller_sw_bsp/\libhal_bsp.a(alt_lseek.o)
                              c:/altera/13.1/nios2eds/bin/gnu/h-i686-mingw32/bin/../lib/gcc/nios2-elf/4.7.3/../../../../../H-i686-mingw32/nios2-elf/lib/mno-hw-mul\libc.a(lib_a-lseekr.o) (lseek)
../Controller_sw_bsp/\libhal_bsp.a(alt_main.o)
                              ../Controller_sw_bsp//obj/HAL/src/crt0.o (alt_main)
../Controller_sw_bsp/\libhal_bsp.a(alt_malloc_lock.o)
                              c:/altera/13.1/nios2eds/bin/gnu/h-i686-mingw32/bin/../lib/gcc/nios2-elf/4.7.3/../../../../../H-i686-mingw32/nios2-elf/lib/mno-hw-mul\libc.a(lib_a-freer.o) (__malloc_lock)
../Controller_sw_bsp/\libhal_bsp.a(alt_read.o)
                              c:/altera/13.1/nios2eds/bin/gnu/h-i686-mingw32/bin/../lib/gcc/nios2-elf/4.7.3/../../../../../H-i686-mingw32/nios2-elf/lib/mno-hw-mul\libc.a(lib_a-readr.o) (read)
../Controller_sw_bsp/\libhal_bsp.a(alt_release_fd.o)
                              ../Controller_sw_bsp/\libhal_bsp.a(alt_close.o) (alt_release_fd)
../Controller_sw_bsp/\libhal_bsp.a(alt_sbrk.o)
                              c:/altera/13.1/nios2eds/bin/gnu/h-i686-mingw32/bin/../lib/gcc/nios2-elf/4.7.3/../../../../../H-i686-mingw32/nios2-elf/lib/mno-hw-mul\libc.a(lib_a-sbrkr.o) (sbrk)
../Controller_sw_bsp/\libhal_bsp.a(alt_write.o)
                              c:/altera/13.1/nios2eds/bin/gnu/h-i686-mingw32/bin/../lib/gcc/nios2-elf/4.7.3/../../../../../H-i686-mingw32/nios2-elf/lib/mno-hw-mul\libc.a(lib_a-writer.o) (write)
../Controller_sw_bsp/\libhal_bsp.a(alt_sys_init.o)
                              ../Controller_sw_bsp/\libhal_bsp.a(alt_main.o) (alt_irq_init)
../Controller_sw_bsp/\libhal_bsp.a(altera_avalon_epcs_flash_controller.o)
                              ../Controller_sw_bsp/\libhal_bsp.a(alt_sys_init.o) (alt_epcs_flash_init)
../Controller_sw_bsp/\libhal_bsp.a(altera_avalon_jtag_uart_fd.o)
                              ../Controller_sw_bsp/\libhal_bsp.a(alt_sys_init.o) (altera_avalon_jtag_uart_read_fd)
../Controller_sw_bsp/\libhal_bsp.a(altera_avalon_jtag_uart_init.o)
                              ../Controller_sw_bsp/\libhal_bsp.a(alt_sys_init.o) (altera_avalon_jtag_uart_init)
../Controller_sw_bsp/\libhal_bsp.a(altera_avalon_jtag_uart_ioctl.o)
                              ../Controller_sw_bsp/\libhal_bsp.a(altera_avalon_jtag_uart_fd.o) (altera_avalon_jtag_uart_ioctl)
../Controller_sw_bsp/\libhal_bsp.a(altera_avalon_jtag_uart_read.o)
                              ../Controller_sw_bsp/\libhal_bsp.a(altera_avalon_jtag_uart_fd.o) (altera_avalon_jtag_uart_read)
../Controller_sw_bsp/\libhal_bsp.a(altera_avalon_jtag_uart_write.o)
                              ../Controller_sw_bsp/\libhal_bsp.a(altera_avalon_jtag_uart_fd.o) (altera_avalon_jtag_uart_write)
../Controller_sw_bsp/\libhal_bsp.a(altera_avalon_uart_fd.o)
                              ../Controller_sw_bsp/\libhal_bsp.a(alt_sys_init.o) (altera_avalon_uart_read_fd)
../Controller_sw_bsp/\libhal_bsp.a(altera_avalon_uart_init.o)
                              ../Controller_sw_bsp/\libhal_bsp.a(alt_sys_init.o) (altera_avalon_uart_init)
../Controller_sw_bsp/\libhal_bsp.a(altera_avalon_uart_read.o)
                              ../Controller_sw_bsp/\libhal_bsp.a(altera_avalon_uart_fd.o) (altera_avalon_uart_read)
../Controller_sw_bsp/\libhal_bsp.a(altera_avalon_uart_write.o)
                              ../Controller_sw_bsp/\libhal_bsp.a(altera_avalon_uart_fd.o) (altera_avalon_uart_write)
../Controller_sw_bsp/\libhal_bsp.a(epcs_commands.o)
                              ../Controller_sw_bsp/\libhal_bsp.a(altera_avalon_epcs_flash_controller.o) (epcs_sector_erase)
../Controller_sw_bsp/\libhal_bsp.a(alt_alarm_start.o)
                              ../Controller_sw_bsp/\libhal_bsp.a(altera_avalon_jtag_uart_init.o) (alt_alarm_start)
../Controller_sw_bsp/\libhal_bsp.a(alt_dev_llist_insert.o)
                              ../Controller_sw_bsp/\libhal_bsp.a(alt_sys_init.o) (alt_dev_llist_insert)
../Controller_sw_bsp/\libhal_bsp.a(alt_do_ctors.o)
                              ../Controller_sw_bsp/\libhal_bsp.a(alt_main.o) (_do_ctors)
../Controller_sw_bsp/\libhal_bsp.a(alt_do_dtors.o)
                              ../Controller_sw_bsp/\libhal_bsp.a(alt_main.o) (_do_dtors)
../Controller_sw_bsp/\libhal_bsp.a(alt_exception_entry.o)
                              ../Controller_sw_bsp/\libhal_bsp.a(alt_irq_entry.o) (alt_exception)
../Controller_sw_bsp/\libhal_bsp.a(alt_flash_dev.o)
                              ../Controller_sw_bsp/\libhal_bsp.a(altera_avalon_epcs_flash_controller.o) (alt_flash_dev_list)
../Controller_sw_bsp/\libhal_bsp.a(alt_io_redirect.o)
                              ../Controller_sw_bsp/\libhal_bsp.a(alt_main.o) (alt_io_redirect)
../Controller_sw_bsp/\libhal_bsp.a(alt_open.o)
                              ../Controller_sw_bsp/\libhal_bsp.a(alt_io_redirect.o) (open)
../Controller_sw_bsp/\libhal_bsp.a(alt_tick.o)
                              ../Controller_sw_bsp/\libhal_bsp.a(altera_avalon_jtag_uart_init.o) (_alt_tick_rate)
../Controller_sw_bsp/\libhal_bsp.a(altera_nios2_qsys_irq.o)
                              ../Controller_sw_bsp/\libhal_bsp.a(alt_sys_init.o) (altera_nios2_qsys_irq_init)
../Controller_sw_bsp/\libhal_bsp.a(altera_avalon_spi.o)
                              ../Controller_sw_bsp/\libhal_bsp.a(epcs_commands.o) (alt_avalon_spi_command)
../Controller_sw_bsp/\libhal_bsp.a(alt_find_dev.o)
                              ../Controller_sw_bsp/\libhal_bsp.a(alt_flash_dev.o) (alt_find_dev)
../Controller_sw_bsp/\libhal_bsp.a(alt_find_file.o)
                              ../Controller_sw_bsp/\libhal_bsp.a(alt_open.o) (alt_find_file)
../Controller_sw_bsp/\libhal_bsp.a(alt_get_fd.o)
                              ../Controller_sw_bsp/\libhal_bsp.a(alt_open.o) (alt_get_fd)
c:/altera/13.1/nios2eds/bin/gnu/h-i686-mingw32/bin/../lib/gcc/nios2-elf/4.7.3/../../../../../H-i686-mingw32/nios2-elf/lib/mno-hw-mul\libc.a(lib_a-atexit.o)
                              ../Controller_sw_bsp/\libhal_bsp.a(alt_main.o) (atexit)
c:/altera/13.1/nios2eds/bin/gnu/h-i686-mingw32/bin/../lib/gcc/nios2-elf/4.7.3/../../../../../H-i686-mingw32/nios2-elf/lib/mno-hw-mul\libc.a(lib_a-exit.o)
                              ../Controller_sw_bsp/\libhal_bsp.a(alt_main.o) (exit)
c:/altera/13.1/nios2eds/bin/gnu/h-i686-mingw32/bin/../lib/gcc/nios2-elf/4.7.3/../../../../../H-i686-mingw32/nios2-elf/lib/mno-hw-mul\libc.a(lib_a-memcmp.o)
                              ../Controller_sw_bsp/\libhal_bsp.a(altera_avalon_epcs_flash_controller.o) (memcmp)
c:/altera/13.1/nios2eds/bin/gnu/h-i686-mingw32/bin/../lib/gcc/nios2-elf/4.7.3/../../../../../H-i686-mingw32/nios2-elf/lib/mno-hw-mul\libc.a(lib_a-__atexit.o)
                              c:/altera/13.1/nios2eds/bin/gnu/h-i686-mingw32/bin/../lib/gcc/nios2-elf/4.7.3/../../../../../H-i686-mingw32/nios2-elf/lib/mno-hw-mul\libc.a(lib_a-atexit.o) (__register_exitproc)
c:/altera/13.1/nios2eds/bin/gnu/h-i686-mingw32/bin/../lib/gcc/nios2-elf/4.7.3/../../../../../H-i686-mingw32/nios2-elf/lib/mno-hw-mul\libc.a(lib_a-__call_atexit.o)
                              c:/altera/13.1/nios2eds/bin/gnu/h-i686-mingw32/bin/../lib/gcc/nios2-elf/4.7.3/../../../../../H-i686-mingw32/nios2-elf/lib/mno-hw-mul\libc.a(lib_a-exit.o) (__call_exitprocs)
../Controller_sw_bsp/\libhal_bsp.a(alt_exit.o)
                              c:/altera/13.1/nios2eds/bin/gnu/h-i686-mingw32/bin/../lib/gcc/nios2-elf/4.7.3/../../../../../H-i686-mingw32/nios2-elf/lib/mno-hw-mul\libc.a(lib_a-exit.o) (_exit)

Allocating common symbols
Common symbol       size              file

alt_irq             0x100             ../Controller_sw_bsp/\libhal_bsp.a(alt_irq_handler.o)
errno               0x4               c:/altera/13.1/nios2eds/bin/gnu/h-i686-mingw32/bin/../lib/gcc/nios2-elf/4.7.3/../../../../../H-i686-mingw32/nios2-elf/lib/mno-hw-mul\libc.a(lib_a-int_errno.o)
_atexit0            0x190             c:/altera/13.1/nios2eds/bin/gnu/h-i686-mingw32/bin/../lib/gcc/nios2-elf/4.7.3/../../../../../H-i686-mingw32/nios2-elf/lib/mno-hw-mul\libc.a(lib_a-atexit.o)

Memory Configuration

Name             Origin             Length             Attributes
sdram_BEFORE_EXCEPTION 0x02000000         0x00000020
sdram            0x02000020         0x01ffffe0
reset            0x04001000         0x00000020
epcs             0x04001020         0x000007e0
*default*        0x00000000         0xffffffff

Linker script and memory map

LOAD ../Controller_sw_bsp//obj/HAL/src/crt0.o
LOAD obj/default/driver/Counter.o
LOAD obj/default/driver/DisDriver.o
LOAD obj/default/driver/FRAM.o
LOAD obj/default/driver/KPLED.o
LOAD obj/default/driver/comInterface.o
LOAD obj/default/driver/coverPage.o
LOAD obj/default/driver/delay.o
LOAD obj/default/driver/loadWriteData.o
LOAD obj/default/driver/powerFailure.o
LOAD obj/default/driver/uart.o
LOAD obj/default/main/TopMenu.o
LOAD obj/default/main/main.o
LOAD obj/default/menuComponent/FireMenu.o
LOAD obj/default/menuComponent/HeaterWarmingUp.o
LOAD obj/default/menuComponent/ParameterMenu.o
LOAD obj/default/menuComponent/RemoteMenu.o
LOAD obj/default/menuComponent/SaveLoadMenu.o
LOAD obj/default/menuComponent/ShotCountersMenu.o
LOAD obj/default/menuComponent/ShutdownMenu.o
LOAD obj/default/menuComponent/StartupMenu.o
LOAD obj/default/menuComponent/editNum10.o
LOAD obj/default/menuComponent/editNum2.o
LOAD obj/default/menuComponent/editNum5.o
LOAD obj/default/menuComponent/enterPWD.o
LOAD obj/default/menuComponent/errorCheck.o
LOAD obj/default/menuComponent/pwdPage.o
LOAD obj/default/menuComponent/repPage.o
LOAD obj/default/menuComponent/shotPage.o
LOAD obj/default/menuComponent/timingPage.o
LOAD c:/altera/13.1/nios2eds/bin/gnu/h-i686-mingw32/bin/../lib/gcc/nios2-elf/4.7.3/../../../../../H-i686-mingw32/nios2-elf/lib/mno-hw-mul\libstdc++.a
LOAD c:/altera/13.1/nios2eds/bin/gnu/h-i686-mingw32/bin/../lib/gcc/nios2-elf/4.7.3/../../../../../H-i686-mingw32/nios2-elf/lib/mno-hw-mul\libm.a
LOAD c:/altera/13.1/nios2eds/bin/gnu/h-i686-mingw32/bin/../lib/gcc/nios2-elf/4.7.3/mno-hw-mul\libgcc.a
START GROUP
LOAD c:/altera/13.1/nios2eds/bin/gnu/h-i686-mingw32/bin/../lib/gcc/nios2-elf/4.7.3/../../../../../H-i686-mingw32/nios2-elf/lib/mno-hw-mul\libc.a
LOAD c:/altera/13.1/nios2eds/bin/gnu/h-i686-mingw32/bin/../lib/gcc/nios2-elf/4.7.3/mno-hw-mul\libgcc.a
LOAD ../Controller_sw_bsp/\libhal_bsp.a
END GROUP
LOAD c:/altera/13.1/nios2eds/bin/gnu/h-i686-mingw32/bin/../lib/gcc/nios2-elf/4.7.3/mno-hw-mul\libgcc.a
                0x02000000                __alt_mem_sdram = 0x2000000
                0x04001000                __alt_mem_epcs = 0x4001000

.entry          0x04001000        0x0
 *(.entry)
 .entry         0x04001000        0x0 ../Controller_sw_bsp//obj/HAL/src/crt0.o
                0x04001000                __reset

.exceptions     0x02000020      0x198
                0x02000020                PROVIDE (__ram_exceptions_start, ABSOLUTE (.))
                0x02000020                . = ALIGN (0x20)
 *(.irq)
 *(.exceptions.entry.label)
 .exceptions.entry.label
                0x02000020        0x0 ../Controller_sw_bsp/\libhal_bsp.a(alt_irq_entry.o)
                0x02000020                alt_irq_entry
 .exceptions.entry.label
                0x02000020        0x0 ../Controller_sw_bsp/\libhal_bsp.a(alt_exception_entry.o)
                0x02000020                alt_exception
 *(.exceptions.entry.user)
 *(.exceptions.entry.ecc_fatal)
 *(.exceptions.entry)
 .exceptions.entry
                0x02000020       0x54 ../Controller_sw_bsp/\libhal_bsp.a(alt_exception_entry.o)
 *(.exceptions.irqtest.user)
 *(.exceptions.irqtest)
 .exceptions.irqtest
                0x02000074       0x10 ../Controller_sw_bsp/\libhal_bsp.a(alt_irq_entry.o)
 *(.exceptions.irqhandler.user)
 *(.exceptions.irqhandler)
 .exceptions.irqhandler
                0x02000084        0x4 ../Controller_sw_bsp/\libhal_bsp.a(alt_irq_entry.o)
 *(.exceptions.irqreturn.user)
 *(.exceptions.irqreturn)
 .exceptions.irqreturn
                0x02000088        0x4 ../Controller_sw_bsp/\libhal_bsp.a(alt_irq_entry.o)
 *(.exceptions.notirq.label)
 .exceptions.notirq.label
                0x0200008c        0x0 ../Controller_sw_bsp/\libhal_bsp.a(alt_irq_entry.o)
 *(.exceptions.notirq.user)
 *(.exceptions.notirq)
 .exceptions.notirq
                0x0200008c        0x8 ../Controller_sw_bsp/\libhal_bsp.a(alt_exception_entry.o)
 *(.exceptions.soft.user)
 *(.exceptions.soft)
 *(.exceptions.unknown.user)
 *(.exceptions.unknown)
 .exceptions.unknown
                0x02000094        0x4 ../Controller_sw_bsp/\libhal_bsp.a(alt_exception_entry.o)
 *(.exceptions.exit.label)
 .exceptions.exit.label
                0x02000098        0x0 ../Controller_sw_bsp/\libhal_bsp.a(alt_irq_entry.o)
 .exceptions.exit.label
                0x02000098        0x0 ../Controller_sw_bsp/\libhal_bsp.a(alt_exception_entry.o)
 *(.exceptions.exit.user)
 *(.exceptions.exit)
 .exceptions.exit
                0x02000098       0x54 ../Controller_sw_bsp/\libhal_bsp.a(alt_exception_entry.o)
 *(.exceptions)
 .exceptions    0x020000ec       0xcc ../Controller_sw_bsp/\libhal_bsp.a(alt_irq_handler.o)
                0x020000ec                alt_irq_handler
                0x020001b8                PROVIDE (__ram_exceptions_end, ABSOLUTE (.))
                0x02000020                PROVIDE (__flash_exceptions_start, LOADADDR (.exceptions))

.text           0x020001b8    0x16364
                0x020001b8                PROVIDE (stext, ABSOLUTE (.))
 *(.interp)
 *(.hash)
 *(.dynsym)
 *(.dynstr)
 *(.gnu.version)
 *(.gnu.version_d)
 *(.gnu.version_r)
 *(.rel.init)
 *(.rela.init)
 *(.rel.text .rel.text.* .rel.gnu.linkonce.t.*)
 *(.rela.text .rela.text.* .rela.gnu.linkonce.t.*)
 *(.rel.fini)
 *(.rela.fini)
 *(.rel.rodata .rel.rodata.* .rel.gnu.linkonce.r.*)
 *(.rela.rodata .rela.rodata.* .rela.gnu.linkonce.r.*)
 *(.rel.data .rel.data.* .rel.gnu.linkonce.d.*)
 *(.rela.data .rela.data.* .rela.gnu.linkonce.d.*)
 *(.rel.tdata .rel.tdata.* .rel.gnu.linkonce.td.*)
 *(.rela.tdata .rela.tdata.* .rela.gnu.linkonce.td.*)
 *(.rel.tbss .rel.tbss.* .rel.gnu.linkonce.tb.*)
 *(.rela.tbss .rela.tbss.* .rela.gnu.linkonce.tb.*)
 *(.rel.ctors)
 *(.rela.ctors)
 *(.rel.dtors)
 *(.rela.dtors)
 *(.rel.got)
 *(.rela.got)
 *(.rel.sdata .rel.sdata.* .rel.gnu.linkonce.s.*)
 *(.rela.sdata .rela.sdata.* .rela.gnu.linkonce.s.*)
 *(.rel.sbss .rel.sbss.* .rel.gnu.linkonce.sb.*)
 *(.rela.sbss .rela.sbss.* .rela.gnu.linkonce.sb.*)
 *(.rel.sdata2 .rel.sdata2.* .rel.gnu.linkonce.s2.*)
 *(.rela.sdata2 .rela.sdata2.* .rela.gnu.linkonce.s2.*)
 *(.rel.sbss2 .rel.sbss2.* .rel.gnu.linkonce.sb2.*)
 *(.rela.sbss2 .rela.sbss2.* .rela.gnu.linkonce.sb2.*)
 *(.rel.bss .rel.bss.* .rel.gnu.linkonce.b.*)
 *(.rela.bss .rela.bss.* .rela.gnu.linkonce.b.*)
 *(.rel.plt)
 *(.rela.plt)
 *(.rel.dyn)
 *(.init)
 *(.plt)
 *(.text .stub .text.* .gnu.linkonce.t.*)
 .text          0x020001b8       0x38 ../Controller_sw_bsp//obj/HAL/src/crt0.o
                0x020001b8                _start
 .text          0x020001f0      0x1b0 obj/default/driver/Counter.o
                0x020001f0                CounterInit
                0x0200026c                getCounter0Val
                0x0200029c                getCounter1Val
                0x020002cc                SaveCounterToFRAM
                0x02000328                resetCounter1
 .text          0x020003a0      0x380 obj/default/driver/DisDriver.o
                0x020003a0                DisWrData
                0x02000418                DisWrInst
                0x0200048c                DisInit
                0x020004fc                DisShowCur
                0x02000540                DisCurPos
                0x02000600                DisWrStr
                0x02000678                DisClear
                0x020006ac                DisClearRow
                0x020006f4                DisOff
 .text          0x02000720      0x6e4 obj/default/driver/FRAM.o
                0x02000720                FRAM_SendByte
                0x02000938                FRAM_ReadByte
                0x02000b5c                FRAM_Write32Bits
                0x02000c88                FRAM_Read32Bits
                0x02000d90                FRAM_test
 .text          0x02000e04      0x5d0 obj/default/driver/KPLED.o
                0x02000e04                KPLED_getStatus
                0x02000e24                KPLED_setStatus
                0x02000e88                KPLED_All_Bright
                0x02000ee4                KPLED_All_Dim
                0x02000f40                KPLED_All_Off
                0x02000f9c                KPLED_Numbers
                0x02001020                KPLED_RightArrow
                0x020010ac                KPLED_LeftArrow
                0x02001134                KPLED_Menu
                0x020011bc                KPLED_Edit
                0x02001244                KPLED_Enter
                0x020012cc                KPLED_Enable
                0x02001354                KPLED_Fire
 .text          0x020013d4      0x504 obj/default/driver/comInterface.o
                0x020013d4                UartInit
                0x02001408                WriteRAM32Bits
                0x020014e0                ReadRAM32Bits
                0x020016ac                WriteEEPROM8Bits
                0x02001724                WriteEEPROM32Bits
                0x020017f8                Fire
                0x02001840                Stop
                0x02001888                ResetRAMFromEEPROM
 .text          0x020018d8      0x104 obj/default/driver/coverPage.o
                0x020018d8                showCoverPage
 .text          0x020019dc       0x60 obj/default/driver/delay.o
                0x020019dc                delay
 .text          0x02001a3c      0x300 obj/default/driver/loadWriteData.o
                0x02001a3c                loadData
                0x02001a68                LoadRAMRepRate
                0x02001a94                LoadRAMShots
                0x02001ac0                LoadRAMStartTime
                0x02001b00                LoadRAMEndTime
                0x02001b40                LoadCounter0Init
                0x02001b6c                LoadCounter1Init
                0x02001b98                WriteRAMRepRate
                0x02001bcc                WriteRAMShots
                0x02001c00                WriteRAMStartTime
                0x02001c4c                WriteRAMEndTime
                0x02001c98                reloadRegisters
 .text          0x02001d3c      0x1a0 obj/default/driver/powerFailure.o
                0x02001e7c                PowerFailure_Init
 .text          0x02001edc      0x25c obj/default/driver/uart.o
 .text          0x02002138      0x438 obj/default/main/TopMenu.o
                0x02002138                initController
                0x0200223c                refreshTopMenuEntry
                0x02002328                enterTopMenuPage
                0x020023e0                TopMenu
 .text          0x02002570       0x2c obj/default/main/main.o
                0x02002570                main
 .text          0x0200259c      0xe88 obj/default/menuComponent/FireMenu.o
                0x0200259c                entryFireMenu
                0x02002654                PreFiringErrChk
                0x020028bc                showFiringInformation
                0x02002974                PreionFaultHandler
                0x02002a00                PauseSequence
                0x02002d64                StopFiring
                0x02002e30                StartFiring
                0x020031c0                enterFireMenu
                0x02003370                ShowInterlockMessage
 .text          0x02003424       0xa8 obj/default/menuComponent/HeaterWarmingUp.o
                0x02003424                printTime
                0x020034ac                checkHeater
 .text          0x020034cc      0x338 obj/default/menuComponent/ParameterMenu.o
                0x020034cc                entryParameterMenu
                0x020035a0                refreshParameterMenuEntry
                0x02003608                editParameter
                0x02003670                enterParameterMenu
 .text          0x02003804      0x310 obj/default/menuComponent/RemoteMenu.o
                0x02003804                StartRemoteCtrl
                0x0200392c                entryRemoteMenu
                0x020039e4                enterRemoteMenu
 .text          0x02003b14      0x728 obj/default/menuComponent/SaveLoadMenu.o
                0x02003b14                entrySaveLoadMenu
                0x02003bcc                SaveToEEPROM
                0x02003cd8                refreshSaveLoadMenuPage
                0x02003e10                enterSaveLoadMenuPage
                0x020040b4                enterSaveLoadMenu
 .text          0x0200423c      0x570 obj/default/menuComponent/ShotCountersMenu.o
                0x0200423c                entryShotCountersMenu
                0x020042ec                refreshShotCountersMenuPage
                0x0200447c                editShotCountersMenuPage
                0x02004624                enterShotCountersMenu
 .text          0x020047ac      0x6ec obj/default/menuComponent/ShutdownMenu.o
                0x020047ac                getShutdownInst
                0x02004924                entryShutdownMenu
                0x020049dc                confirmShutdown
                0x02004b30                refreshShutdownMenuPage
                0x02004c4c                enterShutdownMenu
 .text          0x02004e98      0x5b8 obj/default/menuComponent/StartupMenu.o
                0x02004e98                getStartupInst
                0x02005088                startupAction
                0x0200512c                entryStartupMenu
                0x020051e4                refreshStartupMenuPage
                0x02005300                enterStartupMenu
 .text          0x02005450      0xe14 obj/default/menuComponent/editNum10.o
                0x02005450                Num10toStr10
                0x020056a0                Str10toDis10
                0x020057a4                Num10Check
                0x02005ab4                Dis10toNum10
                0x02005d34                refreshButtonBarNum10
                0x02005e00                editNum10
 .text          0x02006264      0x534 obj/default/menuComponent/editNum2.o
                0x02006264                Num2toStr2
                0x020062f8                Str2toNum2
                0x02006384                refreshButtonBarNum2
                0x02006450                editNum2
 .text          0x02006798      0x694 obj/default/menuComponent/editNum5.o
                0x02006798                Num5toStr5
                0x020068d4                Str5toNum5
                0x02006a18                refreshButtonBarNum5
                0x02006ae4                editNum5
 .text          0x02006e2c      0x634 obj/default/menuComponent/enterPWD.o
                0x02006e2c                checkPWD
                0x02006f2c                refreshButtonBarPWD
                0x02006ff8                enterPWD
 .text          0x02007460      0xa80 obj/default/menuComponent/errorCheck.o
                0x02007460                getErrFlag
                0x02007500                chkEditedParameter
                0x02007574                chkSingleTiming
                0x02007bf8                refreshErrFlags
                0x02007cdc                chkAllTiming
                0x02007d7c                chkLeftTiming
                0x02007e28                chkRightTiming
 .text          0x02007ee0       0xcc obj/default/menuComponent/pwdPage.o
                0x02007ee0                enterPWDPage
 .text          0x02007fac      0x1ac obj/default/menuComponent/repPage.o
                0x02007fac                entryParameterRepRate
                0x02008088                editParameterRepRate
 .text          0x02008158      0x18c obj/default/menuComponent/shotPage.o
                0x02008158                entryParameterNumOfShots
                0x02008238                editParameterNumOfShot
 .text          0x020082e4      0x8c4 obj/default/menuComponent/timingPage.o
                0x020082e4                convertChnlTitle
                0x020083cc                entryParameterTiming
                0x02008604                editParamterTiming
 .text          0x02008ba8       0x84 c:/altera/13.1/nios2eds/bin/gnu/h-i686-mingw32/bin/../lib/gcc/nios2-elf/4.7.3/mno-hw-mul\libgcc.a(_fixunsdfsi.o)
                0x02008ba8                __fixunsdfsi
 .text          0x02008c2c      0x408 c:/altera/13.1/nios2eds/bin/gnu/h-i686-mingw32/bin/../lib/gcc/nios2-elf/4.7.3/mno-hw-mul\libgcc.a(_addsub_df.o)
                0x02008f80                __adddf3
                0x02008fd4                __subdf3
 .text          0x02009034       0x64 c:/altera/13.1/nios2eds/bin/gnu/h-i686-mingw32/bin/../lib/gcc/nios2-elf/4.7.3/mno-hw-mul\libgcc.a(_ge_df.o)
                0x02009034                __gedf2
 .text          0x02009098       0xd4 c:/altera/13.1/nios2eds/bin/gnu/h-i686-mingw32/bin/../lib/gcc/nios2-elf/4.7.3/mno-hw-mul\libgcc.a(_df_to_si.o)
                0x02009098                __fixdfsi
 .text          0x0200916c        0x0 c:/altera/13.1/nios2eds/bin/gnu/h-i686-mingw32/bin/../lib/gcc/nios2-elf/4.7.3/mno-hw-mul\libgcc.a(_thenan_df.o)
 .text          0x0200916c      0x11c c:/altera/13.1/nios2eds/bin/gnu/h-i686-mingw32/bin/../lib/gcc/nios2-elf/4.7.3/mno-hw-mul\libgcc.a(_usi_to_df.o)
                0x0200916c                __floatunsidf
 .text          0x02009288      0x130 c:/altera/13.1/nios2eds/bin/gnu/h-i686-mingw32/bin/../lib/gcc/nios2-elf/4.7.3/mno-hw-mul\libgcc.a(lib2-divmod.o)
                0x020092fc                __divsi3
                0x0200934c                __modsi3
                0x020093a8                __udivsi3
                0x020093b0                __umodsi3
 .text          0x020093b8       0x28 c:/altera/13.1/nios2eds/bin/gnu/h-i686-mingw32/bin/../lib/gcc/nios2-elf/4.7.3/mno-hw-mul\libgcc.a(lib2-mul.o)
                0x020093b8                __mulsi3
 .text          0x020093e0       0xac c:/altera/13.1/nios2eds/bin/gnu/h-i686-mingw32/bin/../lib/gcc/nios2-elf/4.7.3/mno-hw-mul\libgcc.a(_clzsi2.o)
                0x020093e0                __clzsi2
 .text          0x0200948c      0x224 c:/altera/13.1/nios2eds/bin/gnu/h-i686-mingw32/bin/../lib/gcc/nios2-elf/4.7.3/mno-hw-mul\libgcc.a(_pack_df.o)
                0x0200948c                __pack_d
 .text          0x020096b0      0x104 c:/altera/13.1/nios2eds/bin/gnu/h-i686-mingw32/bin/../lib/gcc/nios2-elf/4.7.3/mno-hw-mul\libgcc.a(_unpack_df.o)
                0x020096b0                __unpack_d
 .text          0x020097b4       0xd0 c:/altera/13.1/nios2eds/bin/gnu/h-i686-mingw32/bin/../lib/gcc/nios2-elf/4.7.3/mno-hw-mul\libgcc.a(_fpcmp_parts_df.o)
                0x020097b4                __fpcmp_parts_d
 .text          0x02009884       0x44 c:/altera/13.1/nios2eds/bin/gnu/h-i686-mingw32/bin/../lib/gcc/nios2-elf/4.7.3/mno-hw-mul\libgcc.a(_lshrdi3.o)
                0x02009884                __lshrdi3
 .text          0x020098c8       0x44 c:/altera/13.1/nios2eds/bin/gnu/h-i686-mingw32/bin/../lib/gcc/nios2-elf/4.7.3/mno-hw-mul\libgcc.a(_ashldi3.o)
                0x020098c8                __ashldi3
 .text          0x0200990c        0x0 c:/altera/13.1/nios2eds/bin/gnu/h-i686-mingw32/bin/../lib/gcc/nios2-elf/4.7.3/mno-hw-mul\libgcc.a(_clz.o)
 .text          0x0200990c       0x68 c:/altera/13.1/nios2eds/bin/gnu/h-i686-mingw32/bin/../lib/gcc/nios2-elf/4.7.3/../../../../../H-i686-mingw32/nios2-elf/lib/mno-hw-mul\libc.a(lib_a-printf.o)
                0x0200990c                _printf_r
                0x02009938                printf
 .text          0x02009974       0x98 c:/altera/13.1/nios2eds/bin/gnu/h-i686-mingw32/bin/../lib/gcc/nios2-elf/4.7.3/../../../../../H-i686-mingw32/nios2-elf/lib/mno-hw-mul\libc.a(lib_a-puts.o)
                0x02009974                _puts_r
                0x020099f8                puts
 .text          0x02009a0c       0xc4 c:/altera/13.1/nios2eds/bin/gnu/h-i686-mingw32/bin/../lib/gcc/nios2-elf/4.7.3/../../../../../H-i686-mingw32/nios2-elf/lib/mno-hw-mul\libc.a(lib_a-sprintf.o)
                0x02009a0c                _sprintf_r
                0x02009a64                sprintf
 .text          0x02009ad0       0x8c c:/altera/13.1/nios2eds/bin/gnu/h-i686-mingw32/bin/../lib/gcc/nios2-elf/4.7.3/../../../../../H-i686-mingw32/nios2-elf/lib/mno-hw-mul\libc.a(lib_a-strlen.o)
                0x02009ad0                strlen
 .text          0x02009b5c     0x1ed4 c:/altera/13.1/nios2eds/bin/gnu/h-i686-mingw32/bin/../lib/gcc/nios2-elf/4.7.3/../../../../../H-i686-mingw32/nios2-elf/lib/mno-hw-mul\libc.a(lib_a-vfprintf.o)
                0x02009b90                ___vfprintf_internal_r
                0x0200ba0c                __vfprintf_internal
 .text          0x0200ba30      0x174 c:/altera/13.1/nios2eds/bin/gnu/h-i686-mingw32/bin/../lib/gcc/nios2-elf/4.7.3/../../../../../H-i686-mingw32/nios2-elf/lib/mno-hw-mul\libc.a(lib_a-wsetup.o)
                0x0200ba30                __swsetup_r
 .text          0x0200bba4     0x1858 c:/altera/13.1/nios2eds/bin/gnu/h-i686-mingw32/bin/../lib/gcc/nios2-elf/4.7.3/../../../../../H-i686-mingw32/nios2-elf/lib/mno-hw-mul\libc.a(lib_a-dtoa.o)
                0x0200bde0                _dtoa_r
 .text          0x0200d3fc      0x218 c:/altera/13.1/nios2eds/bin/gnu/h-i686-mingw32/bin/../lib/gcc/nios2-elf/4.7.3/../../../../../H-i686-mingw32/nios2-elf/lib/mno-hw-mul\libc.a(lib_a-fflush.o)
                0x0200d3fc                _fflush_r
                0x0200d5e4                fflush
 .text          0x0200d614      0x2ec c:/altera/13.1/nios2eds/bin/gnu/h-i686-mingw32/bin/../lib/gcc/nios2-elf/4.7.3/../../../../../H-i686-mingw32/nios2-elf/lib/mno-hw-mul\libc.a(lib_a-findfp.o)
                0x0200d624                _cleanup_r
                0x0200d630                __sfmoreglue
                0x0200d6a8                _cleanup
                0x0200d6b8                __sinit
                0x0200d7c4                __sfp
                0x0200d8c0                __sfp_lock_acquire
                0x0200d8c4                __sfp_lock_release
                0x0200d8c8                __sinit_lock_acquire
                0x0200d8cc                __sinit_lock_release
                0x0200d8d0                __fp_lock_all
                0x0200d8e8                __fp_unlock_all
 .text          0x0200d900      0x40c c:/altera/13.1/nios2eds/bin/gnu/h-i686-mingw32/bin/../lib/gcc/nios2-elf/4.7.3/../../../../../H-i686-mingw32/nios2-elf/lib/mno-hw-mul\libc.a(lib_a-freer.o)
                0x0200d900                _malloc_trim_r
                0x0200da3c                _free_r
 .text          0x0200dd0c      0x4e4 c:/altera/13.1/nios2eds/bin/gnu/h-i686-mingw32/bin/../lib/gcc/nios2-elf/4.7.3/../../../../../H-i686-mingw32/nios2-elf/lib/mno-hw-mul\libc.a(lib_a-fvwrite.o)
                0x0200dd0c                __sfvwrite_r
 .text          0x0200e1f0      0x160 c:/altera/13.1/nios2eds/bin/gnu/h-i686-mingw32/bin/../lib/gcc/nios2-elf/4.7.3/../../../../../H-i686-mingw32/nios2-elf/lib/mno-hw-mul\libc.a(lib_a-fwalk.o)
                0x0200e1f0                _fwalk
                0x0200e298                _fwalk_reent
 .text          0x0200e350        0x0 c:/altera/13.1/nios2eds/bin/gnu/h-i686-mingw32/bin/../lib/gcc/nios2-elf/4.7.3/../../../../../H-i686-mingw32/nios2-elf/lib/mno-hw-mul\libc.a(lib_a-impure.o)
 .text          0x0200e350       0xdc c:/altera/13.1/nios2eds/bin/gnu/h-i686-mingw32/bin/../lib/gcc/nios2-elf/4.7.3/../../../../../H-i686-mingw32/nios2-elf/lib/mno-hw-mul\libc.a(lib_a-locale.o)
                0x0200e350                _setlocale_r
                0x0200e3ec                __locale_charset
                0x0200e3f8                _localeconv_r
                0x0200e404                setlocale
                0x0200e420                localeconv
 .text          0x0200e42c      0x1a8 c:/altera/13.1/nios2eds/bin/gnu/h-i686-mingw32/bin/../lib/gcc/nios2-elf/4.7.3/../../../../../H-i686-mingw32/nios2-elf/lib/mno-hw-mul\libc.a(lib_a-makebuf.o)
                0x0200e42c                __smakebuf_r
 .text          0x0200e5d4      0x784 c:/altera/13.1/nios2eds/bin/gnu/h-i686-mingw32/bin/../lib/gcc/nios2-elf/4.7.3/../../../../../H-i686-mingw32/nios2-elf/lib/mno-hw-mul\libc.a(lib_a-mallocr.o)
                0x0200e5d4                _malloc_r
 .text          0x0200ed58       0xf8 c:/altera/13.1/nios2eds/bin/gnu/h-i686-mingw32/bin/../lib/gcc/nios2-elf/4.7.3/../../../../../H-i686-mingw32/nios2-elf/lib/mno-hw-mul\libc.a(lib_a-memchr.o)
                0x0200ed58                memchr
 .text          0x0200ee50      0x140 c:/altera/13.1/nios2eds/bin/gnu/h-i686-mingw32/bin/../lib/gcc/nios2-elf/4.7.3/../../../../../H-i686-mingw32/nios2-elf/lib/mno-hw-mul\libc.a(lib_a-memcpy.o)
                0x0200ee50                memcpy
 .text          0x0200ef90      0x18c c:/altera/13.1/nios2eds/bin/gnu/h-i686-mingw32/bin/../lib/gcc/nios2-elf/4.7.3/../../../../../H-i686-mingw32/nios2-elf/lib/mno-hw-mul\libc.a(lib_a-memmove.o)
                0x0200ef90                memmove
 .text          0x0200f11c       0xdc c:/altera/13.1/nios2eds/bin/gnu/h-i686-mingw32/bin/../lib/gcc/nios2-elf/4.7.3/../../../../../H-i686-mingw32/nios2-elf/lib/mno-hw-mul\libc.a(lib_a-memset.o)
                0x0200f11c                memset
 .text          0x0200f1f8     0x1050 c:/altera/13.1/nios2eds/bin/gnu/h-i686-mingw32/bin/../lib/gcc/nios2-elf/4.7.3/../../../../../H-i686-mingw32/nios2-elf/lib/mno-hw-mul\libc.a(lib_a-mprec.o)
                0x0200f1f8                _Balloc
                0x0200f2a0                _Bfree
                0x0200f2c8                __multadd
                0x0200f40c                __s2b
                0x0200f510                __hi0bits
                0x0200f578                __lo0bits
                0x0200f628                __i2b
                0x0200f664                __multiply
                0x0200f8bc                __pow5mult
                0x0200f9e8                __lshift
                0x0200fb44                __mcmp
                0x0200fb9c                __mdiff
                0x0200fd44                __ulp
                0x0200fda4                __b2d
                0x0200feec                __d2b
                0x02010030                __ratio
                0x020100d4                _mprec_log10
                0x02010148                __copybits
                0x020101c4                __any_on
 .text          0x02010248      0x5fc c:/altera/13.1/nios2eds/bin/gnu/h-i686-mingw32/bin/../lib/gcc/nios2-elf/4.7.3/../../../../../H-i686-mingw32/nios2-elf/lib/mno-hw-mul\libc.a(lib_a-reallocr.o)
                0x02010248                _realloc_r
 .text          0x02010844       0x38 c:/altera/13.1/nios2eds/bin/gnu/h-i686-mingw32/bin/../lib/gcc/nios2-elf/4.7.3/../../../../../H-i686-mingw32/nios2-elf/lib/mno-hw-mul\libc.a(lib_a-s_isinfd.o)
                0x02010844                __isinfd
 .text          0x0201087c       0x2c c:/altera/13.1/nios2eds/bin/gnu/h-i686-mingw32/bin/../lib/gcc/nios2-elf/4.7.3/../../../../../H-i686-mingw32/nios2-elf/lib/mno-hw-mul\libc.a(lib_a-s_isnand.o)
                0x0201087c                __isnand
 .text          0x020108a8       0x64 c:/altera/13.1/nios2eds/bin/gnu/h-i686-mingw32/bin/../lib/gcc/nios2-elf/4.7.3/../../../../../H-i686-mingw32/nios2-elf/lib/mno-hw-mul\libc.a(lib_a-sbrkr.o)
                0x020108a8                _sbrk_r
 .text          0x0201090c      0x140 c:/altera/13.1/nios2eds/bin/gnu/h-i686-mingw32/bin/../lib/gcc/nios2-elf/4.7.3/../../../../../H-i686-mingw32/nios2-elf/lib/mno-hw-mul\libc.a(lib_a-stdio.o)
                0x0201090c                __sread
                0x02010960                __swrite
                0x020109e8                __sseek
                0x02010a44                __sclose
 .text          0x02010a4c       0xa4 c:/altera/13.1/nios2eds/bin/gnu/h-i686-mingw32/bin/../lib/gcc/nios2-elf/4.7.3/../../../../../H-i686-mingw32/nios2-elf/lib/mno-hw-mul\libc.a(lib_a-strcmp.o)
                0x02010a4c                strcmp
 .text          0x02010af0       0x6c c:/altera/13.1/nios2eds/bin/gnu/h-i686-mingw32/bin/../lib/gcc/nios2-elf/4.7.3/../../../../../H-i686-mingw32/nios2-elf/lib/mno-hw-mul\libc.a(lib_a-writer.o)
                0x02010af0                _write_r
 .text          0x02010b5c       0xcc c:/altera/13.1/nios2eds/bin/gnu/h-i686-mingw32/bin/../lib/gcc/nios2-elf/4.7.3/../../../../../H-i686-mingw32/nios2-elf/lib/mno-hw-mul\libc.a(lib_a-callocr.o)
                0x02010b5c                _calloc_r
 .text          0x02010c28       0x64 c:/altera/13.1/nios2eds/bin/gnu/h-i686-mingw32/bin/../lib/gcc/nios2-elf/4.7.3/../../../../../H-i686-mingw32/nios2-elf/lib/mno-hw-mul\libc.a(lib_a-closer.o)
                0x02010c28                _close_r
 .text          0x02010c8c      0x150 c:/altera/13.1/nios2eds/bin/gnu/h-i686-mingw32/bin/../lib/gcc/nios2-elf/4.7.3/../../../../../H-i686-mingw32/nios2-elf/lib/mno-hw-mul\libc.a(lib_a-fclose.o)
                0x02010c8c                _fclose_r
                0x02010dc8                fclose
 .text          0x02010ddc       0x68 c:/altera/13.1/nios2eds/bin/gnu/h-i686-mingw32/bin/../lib/gcc/nios2-elf/4.7.3/../../../../../H-i686-mingw32/nios2-elf/lib/mno-hw-mul\libc.a(lib_a-fstatr.o)
                0x02010ddc                _fstat_r
 .text          0x02010e44        0x0 c:/altera/13.1/nios2eds/bin/gnu/h-i686-mingw32/bin/../lib/gcc/nios2-elf/4.7.3/../../../../../H-i686-mingw32/nios2-elf/lib/mno-hw-mul\libc.a(lib_a-int_errno.o)
 .text          0x02010e44       0x64 c:/altera/13.1/nios2eds/bin/gnu/h-i686-mingw32/bin/../lib/gcc/nios2-elf/4.7.3/../../../../../H-i686-mingw32/nios2-elf/lib/mno-hw-mul\libc.a(lib_a-isattyr.o)
                0x02010e44                _isatty_r
 .text          0x02010ea8       0x6c c:/altera/13.1/nios2eds/bin/gnu/h-i686-mingw32/bin/../lib/gcc/nios2-elf/4.7.3/../../../../../H-i686-mingw32/nios2-elf/lib/mno-hw-mul\libc.a(lib_a-lseekr.o)
                0x02010ea8                _lseek_r
 .text          0x02010f14       0x6c c:/altera/13.1/nios2eds/bin/gnu/h-i686-mingw32/bin/../lib/gcc/nios2-elf/4.7.3/../../../../../H-i686-mingw32/nios2-elf/lib/mno-hw-mul\libc.a(lib_a-readr.o)
                0x02010f14                _read_r
 .text          0x02010f80      0x650 c:/altera/13.1/nios2eds/bin/gnu/h-i686-mingw32/bin/../lib/gcc/nios2-elf/4.7.3/mno-hw-mul\libgcc.a(_udivdi3.o)
                0x02010f80                __udivdi3
 .text          0x020115d0      0x628 c:/altera/13.1/nios2eds/bin/gnu/h-i686-mingw32/bin/../lib/gcc/nios2-elf/4.7.3/mno-hw-mul\libgcc.a(_umoddi3.o)
                0x020115d0                __umoddi3
 .text          0x02011bf8      0x2e4 c:/altera/13.1/nios2eds/bin/gnu/h-i686-mingw32/bin/../lib/gcc/nios2-elf/4.7.3/mno-hw-mul\libgcc.a(_mul_df.o)
                0x02011bf8                __muldf3
 .text          0x02011edc      0x1b4 c:/altera/13.1/nios2eds/bin/gnu/h-i686-mingw32/bin/../lib/gcc/nios2-elf/4.7.3/mno-hw-mul\libgcc.a(_div_df.o)
                0x02011edc                __divdf3
 .text          0x02012090       0x5c c:/altera/13.1/nios2eds/bin/gnu/h-i686-mingw32/bin/../lib/gcc/nios2-elf/4.7.3/mno-hw-mul\libgcc.a(_eq_df.o)
                0x02012090                __eqdf2
 .text          0x020120ec       0x5c c:/altera/13.1/nios2eds/bin/gnu/h-i686-mingw32/bin/../lib/gcc/nios2-elf/4.7.3/mno-hw-mul\libgcc.a(_ne_df.o)
                0x020120ec                __nedf2
 .text          0x02012148       0x64 c:/altera/13.1/nios2eds/bin/gnu/h-i686-mingw32/bin/../lib/gcc/nios2-elf/4.7.3/mno-hw-mul\libgcc.a(_gt_df.o)
                0x02012148                __gtdf2
 .text          0x020121ac       0x5c c:/altera/13.1/nios2eds/bin/gnu/h-i686-mingw32/bin/../lib/gcc/nios2-elf/4.7.3/mno-hw-mul\libgcc.a(_lt_df.o)
                0x020121ac                __ltdf2
 .text          0x02012208       0xd4 c:/altera/13.1/nios2eds/bin/gnu/h-i686-mingw32/bin/../lib/gcc/nios2-elf/4.7.3/mno-hw-mul\libgcc.a(_si_to_df.o)
                0x02012208                __floatsidf
 .text          0x020122dc      0x110 c:/altera/13.1/nios2eds/bin/gnu/h-i686-mingw32/bin/../lib/gcc/nios2-elf/4.7.3/mno-hw-mul\libgcc.a(_muldi3.o)
                0x020122dc                __muldi3
 .text          0x020123ec      0x11c ../Controller_sw_bsp/\libhal_bsp.a(alt_close.o)
                0x0201243c                close
 .text          0x02012508       0x2c ../Controller_sw_bsp/\libhal_bsp.a(alt_dev.o)
 .text          0x02012534        0x0 ../Controller_sw_bsp/\libhal_bsp.a(alt_errno.o)
 .text          0x02012534      0x100 ../Controller_sw_bsp/\libhal_bsp.a(alt_fstat.o)
                0x02012584                fstat
 .text          0x02012634      0x1d8 ../Controller_sw_bsp/\libhal_bsp.a(alt_iic.o)
                0x02012634                alt_ic_isr_register
                0x02012684                alt_ic_irq_enable
                0x02012720                alt_ic_irq_disable
                0x020127c0                alt_ic_irq_enabled
 .text          0x0201280c       0xf0 ../Controller_sw_bsp/\libhal_bsp.a(alt_iic_isr_register.o)
                0x0201280c                alt_iic_isr_register
 .text          0x020128fc        0x0 ../Controller_sw_bsp/\libhal_bsp.a(alt_irq_entry.o)
 .text          0x020128fc        0x0 ../Controller_sw_bsp/\libhal_bsp.a(alt_irq_handler.o)
 .text          0x020128fc        0x0 ../Controller_sw_bsp/\libhal_bsp.a(alt_irq_vars.o)
 .text          0x020128fc       0xf4 ../Controller_sw_bsp/\libhal_bsp.a(alt_isatty.o)
                0x0201294c                isatty
 .text          0x020129f0      0x124 ../Controller_sw_bsp/\libhal_bsp.a(alt_lseek.o)
                0x02012a40                lseek
 .text          0x02012b14       0x78 ../Controller_sw_bsp/\libhal_bsp.a(alt_main.o)
                0x02012b14                alt_main
 .text          0x02012b8c       0x40 ../Controller_sw_bsp/\libhal_bsp.a(alt_malloc_lock.o)
                0x02012b8c                __malloc_lock
                0x02012bac                __malloc_unlock
 .text          0x02012bcc      0x144 ../Controller_sw_bsp/\libhal_bsp.a(alt_read.o)
                0x02012c1c                read
 .text          0x02012d10       0x80 ../Controller_sw_bsp/\libhal_bsp.a(alt_release_fd.o)
                0x02012d10                alt_release_fd
 .text          0x02012d90       0xb0 ../Controller_sw_bsp/\libhal_bsp.a(alt_sbrk.o)
                0x02012d90                sbrk
 .text          0x02012e40      0x140 ../Controller_sw_bsp/\libhal_bsp.a(alt_write.o)
                0x02012e90                write
 .text          0x02012f80       0xe0 ../Controller_sw_bsp/\libhal_bsp.a(alt_sys_init.o)
                0x02012fb8                alt_irq_init
                0x02012fec                alt_sys_init
 .text          0x02013060      0x990 ../Controller_sw_bsp/\libhal_bsp.a(altera_avalon_epcs_flash_controller.o)
                0x02013098                alt_epcs_flash_init
                0x02013460                alt_epcs_flash_write
                0x020136c0                alt_epcs_flash_get_info
                0x020137e0                alt_epcs_flash_erase_block
                0x02013854                alt_epcs_flash_write_block
                0x02013958                alt_epcs_flash_read
 .text          0x020139f0      0x164 ../Controller_sw_bsp/\libhal_bsp.a(altera_avalon_jtag_uart_fd.o)
                0x020139f0                altera_avalon_jtag_uart_read_fd
                0x02013a50                altera_avalon_jtag_uart_write_fd
                0x02013ab0                altera_avalon_jtag_uart_close_fd
                0x02013b00                altera_avalon_jtag_uart_ioctl_fd
 .text          0x02013b54      0x3d0 ../Controller_sw_bsp/\libhal_bsp.a(altera_avalon_jtag_uart_init.o)
                0x02013b54                altera_avalon_jtag_uart_init
                0x02013ebc                altera_avalon_jtag_uart_close
 .text          0x02013f24       0xf4 ../Controller_sw_bsp/\libhal_bsp.a(altera_avalon_jtag_uart_ioctl.o)
                0x02013f24                altera_avalon_jtag_uart_ioctl
 .text          0x02014018      0x218 ../Controller_sw_bsp/\libhal_bsp.a(altera_avalon_jtag_uart_read.o)
                0x02014018                altera_avalon_jtag_uart_read
 .text          0x02014230      0x224 ../Controller_sw_bsp/\libhal_bsp.a(altera_avalon_jtag_uart_write.o)
                0x02014230                altera_avalon_jtag_uart_write
 .text          0x02014454      0x110 ../Controller_sw_bsp/\libhal_bsp.a(altera_avalon_uart_fd.o)
                0x02014454                altera_avalon_uart_read_fd
                0x020144b4                altera_avalon_uart_write_fd
                0x02014514                altera_avalon_uart_close_fd
 .text          0x02014564      0x3a8 ../Controller_sw_bsp/\libhal_bsp.a(altera_avalon_uart_init.o)
                0x02014564                altera_avalon_uart_init
                0x020148b8                altera_avalon_uart_close
 .text          0x0201490c      0x254 ../Controller_sw_bsp/\libhal_bsp.a(altera_avalon_uart_read.o)
                0x0201495c                altera_avalon_uart_read
 .text          0x02014b60      0x1f8 ../Controller_sw_bsp/\libhal_bsp.a(altera_avalon_uart_write.o)
                0x02014bb0                altera_avalon_uart_write
 .text          0x02014d58      0x624 ../Controller_sw_bsp/\libhal_bsp.a(epcs_commands.o)
                0x02014d58                epcs_read_status_register
                0x02014e24                epcs_sector_erase
                0x02014f1c                epcs_read_buffer
                0x02015010                epcs_write_enable
                0x02015060                epcs_write_status_register
                0x020150c8                epcs_write_buffer
                0x020151e4                epcs_read_electronic_signature
                0x0201524c                epcs_read_device_id
                0x020152cc                epcs_enter_4_bytes_mode
                0x02015324                epcs_exit_4_bytes_mode
 .text          0x0201537c      0x140 ../Controller_sw_bsp/\libhal_bsp.a(alt_alarm_start.o)
                0x0201537c                alt_alarm_start
 .text          0x020154bc       0xf0 ../Controller_sw_bsp/\libhal_bsp.a(alt_dev_llist_insert.o)
                0x0201550c                alt_dev_llist_insert
 .text          0x020155ac       0x5c ../Controller_sw_bsp/\libhal_bsp.a(alt_do_ctors.o)
                0x020155ac                _do_ctors
 .text          0x02015608       0x5c ../Controller_sw_bsp/\libhal_bsp.a(alt_do_dtors.o)
                0x02015608                _do_dtors
 .text          0x02015664        0x0 ../Controller_sw_bsp/\libhal_bsp.a(alt_exception_entry.o)
 .text          0x02015664       0xb8 ../Controller_sw_bsp/\libhal_bsp.a(alt_flash_dev.o)
                0x02015664                alt_flash_open_dev
                0x020156cc                alt_flash_close_dev
 .text          0x0201571c      0x158 ../Controller_sw_bsp/\libhal_bsp.a(alt_io_redirect.o)
                0x020157fc                alt_io_redirect
 .text          0x02015874      0x298 ../Controller_sw_bsp/\libhal_bsp.a(alt_open.o)
                0x020159b4                open
 .text          0x02015b0c      0x19c ../Controller_sw_bsp/\libhal_bsp.a(alt_tick.o)
                0x02015b0c                alt_alarm_stop
                0x02015ba4                alt_tick
 .text          0x02015ca8       0x20 ../Controller_sw_bsp/\libhal_bsp.a(altera_nios2_qsys_irq.o)
                0x02015ca8                altera_nios2_qsys_irq_init
 .text          0x02015cc8      0x208 ../Controller_sw_bsp/\libhal_bsp.a(altera_avalon_spi.o)
                0x02015cc8                alt_avalon_spi_command
 .text          0x02015ed0       0x90 ../Controller_sw_bsp/\libhal_bsp.a(alt_find_dev.o)
                0x02015ed0                alt_find_dev
 .text          0x02015f60      0x114 ../Controller_sw_bsp/\libhal_bsp.a(alt_find_file.o)
                0x02015f60                alt_find_file
 .text          0x02016074       0xd4 ../Controller_sw_bsp/\libhal_bsp.a(alt_get_fd.o)
                0x02016074                alt_get_fd
 .text          0x02016148       0x14 c:/altera/13.1/nios2eds/bin/gnu/h-i686-mingw32/bin/../lib/gcc/nios2-elf/4.7.3/../../../../../H-i686-mingw32/nios2-elf/lib/mno-hw-mul\libc.a(lib_a-atexit.o)
                0x02016148                atexit
 .text          0x0201615c       0x38 c:/altera/13.1/nios2eds/bin/gnu/h-i686-mingw32/bin/../lib/gcc/nios2-elf/4.7.3/../../../../../H-i686-mingw32/nios2-elf/lib/mno-hw-mul\libc.a(lib_a-exit.o)
                0x0201615c                exit
 .text          0x02016194       0x7c c:/altera/13.1/nios2eds/bin/gnu/h-i686-mingw32/bin/../lib/gcc/nios2-elf/4.7.3/../../../../../H-i686-mingw32/nios2-elf/lib/mno-hw-mul\libc.a(lib_a-memcmp.o)
                0x02016194                memcmp
 .text          0x02016210      0x130 c:/altera/13.1/nios2eds/bin/gnu/h-i686-mingw32/bin/../lib/gcc/nios2-elf/4.7.3/../../../../../H-i686-mingw32/nios2-elf/lib/mno-hw-mul\libc.a(lib_a-__atexit.o)
                0x02016210                __register_exitproc
 .text          0x02016340      0x1a0 c:/altera/13.1/nios2eds/bin/gnu/h-i686-mingw32/bin/../lib/gcc/nios2-elf/4.7.3/../../../../../H-i686-mingw32/nios2-elf/lib/mno-hw-mul\libc.a(lib_a-__call_atexit.o)
                0x02016340                __call_exitprocs
 .text          0x020164e0       0x3c ../Controller_sw_bsp/\libhal_bsp.a(alt_exit.o)
                0x020164e0                _exit
 *(.gnu.warning.*)
 *(.fini)
                0x0201651c                PROVIDE (__etext, ABSOLUTE (.))
                0x0201651c                PROVIDE (_etext, ABSOLUTE (.))
                0x0201651c                PROVIDE (etext, ABSOLUTE (.))
 *(.eh_frame_hdr)
                0x0201651c                . = ALIGN (0x4)
                0x0201651c                PROVIDE (__preinit_array_start, ABSOLUTE (.))
 *(.preinit_array)
                0x0201651c                PROVIDE (__preinit_array_end, ABSOLUTE (.))
                0x0201651c                PROVIDE (__init_array_start, ABSOLUTE (.))
 *(.init_array)
                0x0201651c                PROVIDE (__init_array_end, ABSOLUTE (.))
                0x0201651c                PROVIDE (__fini_array_start, ABSOLUTE (.))
 *(.fini_array)
                0x0201651c                PROVIDE (__fini_array_end, ABSOLUTE (.))
 *(.eh_frame)
 *(.gcc_except_table .gcc_except_table.*)
 *(.dynamic)
                0x0201651c                PROVIDE (__CTOR_LIST__, ABSOLUTE (.))
 *(.ctors)
 *(SORT(.ctors.*))
                0x0201651c                PROVIDE (__CTOR_END__, ABSOLUTE (.))
                0x0201651c                PROVIDE (__DTOR_LIST__, ABSOLUTE (.))
 *(.dtors)
 *(SORT(.dtors.*))
                0x0201651c                PROVIDE (__DTOR_END__, ABSOLUTE (.))
 *(.jcr)
                0x0201651c                . = ALIGN (0x4)

.rodata         0x0201651c     0x11fc
                0x0201651c                PROVIDE (__ram_rodata_start, ABSOLUTE (.))
                0x0201651c                . = ALIGN (0x4)
 *(.rodata .rodata.* .gnu.linkonce.r.*)
 .rodata        0x0201651c       0x18 obj/default/driver/DisDriver.o
 .rodata        0x02016534        0x4 obj/default/driver/FRAM.o
 .rodata        0x02016538       0x50 obj/default/driver/comInterface.o
 .rodata        0x02016588       0x50 obj/default/driver/coverPage.o
 .rodata        0x020165d8       0x30 obj/default/driver/powerFailure.o
 .rodata        0x02016608       0x2c obj/default/main/TopMenu.o
 .rodata        0x02016634      0x1f0 obj/default/menuComponent/FireMenu.o
 .rodata        0x02016824        0x4 obj/default/menuComponent/HeaterWarmingUp.o
 .rodata        0x02016828       0x40 obj/default/menuComponent/ParameterMenu.o
 .rodata        0x02016868       0xb8 obj/default/menuComponent/RemoteMenu.o
 .rodata        0x02016920      0x144 obj/default/menuComponent/SaveLoadMenu.o
 .rodata        0x02016a64      0x138 obj/default/menuComponent/ShotCountersMenu.o
 .rodata        0x02016b9c      0x1e0 obj/default/menuComponent/ShutdownMenu.o
 .rodata        0x02016d7c      0x1d0 obj/default/menuComponent/StartupMenu.o
 .rodata        0x02016f4c       0xa0 obj/default/menuComponent/editNum10.o
 .rodata        0x02016fec       0x68 obj/default/menuComponent/editNum2.o
 .rodata        0x02017054       0x6c obj/default/menuComponent/editNum5.o
 .rodata        0x020170c0       0x84 obj/default/menuComponent/enterPWD.o
 .rodata        0x02017144       0x30 obj/default/menuComponent/pwdPage.o
 .rodata        0x02017174       0x7c obj/default/menuComponent/repPage.o
 .rodata        0x020171f0       0x68 obj/default/menuComponent/shotPage.o
 .rodata        0x02017258      0x188 obj/default/menuComponent/timingPage.o
 .rodata        0x020173e0       0x14 c:/altera/13.1/nios2eds/bin/gnu/h-i686-mingw32/bin/../lib/gcc/nios2-elf/4.7.3/mno-hw-mul\libgcc.a(_thenan_df.o)
                0x020173e0                __thenan_df
 .rodata        0x020173f4      0x100 c:/altera/13.1/nios2eds/bin/gnu/h-i686-mingw32/bin/../lib/gcc/nios2-elf/4.7.3/mno-hw-mul\libgcc.a(_clz.o)
                0x020173f4                __clz_tab
 .rodata.str1.4
                0x020174f4        0x2 c:/altera/13.1/nios2eds/bin/gnu/h-i686-mingw32/bin/../lib/gcc/nios2-elf/4.7.3/../../../../../H-i686-mingw32/nios2-elf/lib/mno-hw-mul\libc.a(lib_a-puts.o)
                                  0x4 (size before relaxing)
 *fill*         0x020174f6        0x2 
 .rodata.str1.4
                0x020174f8       0x42 c:/altera/13.1/nios2eds/bin/gnu/h-i686-mingw32/bin/../lib/gcc/nios2-elf/4.7.3/../../../../../H-i686-mingw32/nios2-elf/lib/mno-hw-mul\libc.a(lib_a-vfprintf.o)
                                 0x44 (size before relaxing)
 .rodata        0x0201753a       0x20 c:/altera/13.1/nios2eds/bin/gnu/h-i686-mingw32/bin/../lib/gcc/nios2-elf/4.7.3/../../../../../H-i686-mingw32/nios2-elf/lib/mno-hw-mul\libc.a(lib_a-vfprintf.o)
 *fill*         0x0201755a        0x2 
 .rodata.str1.4
                0x0201755c       0x10 c:/altera/13.1/nios2eds/bin/gnu/h-i686-mingw32/bin/../lib/gcc/nios2-elf/4.7.3/../../../../../H-i686-mingw32/nios2-elf/lib/mno-hw-mul\libc.a(lib_a-dtoa.o)
                                 0x14 (size before relaxing)
 .rodata.str1.4
                0x0201756c        0x2 c:/altera/13.1/nios2eds/bin/gnu/h-i686-mingw32/bin/../lib/gcc/nios2-elf/4.7.3/../../../../../H-i686-mingw32/nios2-elf/lib/mno-hw-mul\libc.a(lib_a-impure.o)
                                  0x4 (size before relaxing)
 *fill*         0x0201756e        0x2 
 .rodata.str1.4
                0x02017570       0x10 c:/altera/13.1/nios2eds/bin/gnu/h-i686-mingw32/bin/../lib/gcc/nios2-elf/4.7.3/../../../../../H-i686-mingw32/nios2-elf/lib/mno-hw-mul\libc.a(lib_a-locale.o)
                                 0x18 (size before relaxing)
 .rodata        0x02017580       0x30 c:/altera/13.1/nios2eds/bin/gnu/h-i686-mingw32/bin/../lib/gcc/nios2-elf/4.7.3/../../../../../H-i686-mingw32/nios2-elf/lib/mno-hw-mul\libc.a(lib_a-locale.o)
 .rodata        0x020175b0      0x124 c:/altera/13.1/nios2eds/bin/gnu/h-i686-mingw32/bin/../lib/gcc/nios2-elf/4.7.3/../../../../../H-i686-mingw32/nios2-elf/lib/mno-hw-mul\libc.a(lib_a-mprec.o)
                0x020175b0                __mprec_tinytens
                0x020175d8                __mprec_bigtens
                0x02017600                __mprec_tens
 .rodata        0x020176d4        0xc ../Controller_sw_bsp/\libhal_bsp.a(alt_dev.o)
 .rodata        0x020176e0       0x10 ../Controller_sw_bsp/\libhal_bsp.a(alt_main.o)
 .rodata        0x020176f0       0x28 ../Controller_sw_bsp/\libhal_bsp.a(alt_sys_init.o)
 *(.rodata1)
                0x02017718                . = ALIGN (0x4)
                0x02017718                PROVIDE (__ram_rodata_end, ABSOLUTE (.))
                0x0201651c                PROVIDE (__flash_rodata_start, LOADADDR (.rodata))

.rwdata         0x02017718     0x1ce0
                0x02017718                PROVIDE (__ram_rwdata_start, ABSOLUTE (.))
                0x02017718                . = ALIGN (0x4)
 *(.got.plt)
 *(.got)
 *(.data1)
 *(.data .data.* .gnu.linkonce.d.*)
 .data          0x02017718        0x0 ../Controller_sw_bsp//obj/HAL/src/crt0.o
 .data          0x02017718        0x0 obj/default/driver/Counter.o
 .data          0x02017718        0x0 obj/default/driver/DisDriver.o
 .data          0x02017718        0x0 obj/default/driver/FRAM.o
 .data          0x02017718        0x0 obj/default/driver/KPLED.o
 .data          0x02017718        0x0 obj/default/driver/comInterface.o
 .data          0x02017718        0x0 obj/default/driver/coverPage.o
 .data          0x02017718        0x0 obj/default/driver/delay.o
 .data          0x02017718        0x0 obj/default/driver/loadWriteData.o
 .data          0x02017718        0x0 obj/default/driver/powerFailure.o
 .data          0x02017718       0xe0 obj/default/driver/uart.o
                0x02017718                uart
 .data          0x020177f8        0x0 obj/default/main/TopMenu.o
 .data          0x020177f8        0x0 obj/default/main/main.o
 .data          0x020177f8       0x14 obj/default/menuComponent/FireMenu.o
                0x020177f8                interlockNames
 .data          0x0201780c        0x0 obj/default/menuComponent/HeaterWarmingUp.o
 .data          0x0201780c        0x0 obj/default/menuComponent/ParameterMenu.o
 .data          0x0201780c        0x0 obj/default/menuComponent/RemoteMenu.o
 .data          0x0201780c        0x0 obj/default/menuComponent/SaveLoadMenu.o
 .data          0x0201780c        0x0 obj/default/menuComponent/ShotCountersMenu.o
 .data          0x0201780c        0x0 obj/default/menuComponent/ShutdownMenu.o
 .data          0x0201780c        0x0 obj/default/menuComponent/StartupMenu.o
 .data          0x0201780c        0x0 obj/default/menuComponent/editNum10.o
 .data          0x0201780c        0x0 obj/default/menuComponent/editNum2.o
 .data          0x0201780c        0x0 obj/default/menuComponent/editNum5.o
 .data          0x0201780c        0x0 obj/default/menuComponent/enterPWD.o
 .data          0x0201780c        0x0 obj/default/menuComponent/errorCheck.o
 .data          0x0201780c        0x0 obj/default/menuComponent/pwdPage.o
 .data          0x0201780c        0x0 obj/default/menuComponent/repPage.o
 .data          0x0201780c        0x0 obj/default/menuComponent/shotPage.o
 .data          0x0201780c        0x0 obj/default/menuComponent/timingPage.o
 .data          0x0201780c        0x0 c:/altera/13.1/nios2eds/bin/gnu/h-i686-mingw32/bin/../lib/gcc/nios2-elf/4.7.3/mno-hw-mul\libgcc.a(_fixunsdfsi.o)
 .data          0x0201780c        0x0 c:/altera/13.1/nios2eds/bin/gnu/h-i686-mingw32/bin/../lib/gcc/nios2-elf/4.7.3/mno-hw-mul\libgcc.a(_addsub_df.o)
 .data          0x0201780c        0x0 c:/altera/13.1/nios2eds/bin/gnu/h-i686-mingw32/bin/../lib/gcc/nios2-elf/4.7.3/mno-hw-mul\libgcc.a(_ge_df.o)
 .data          0x0201780c        0x0 c:/altera/13.1/nios2eds/bin/gnu/h-i686-mingw32/bin/../lib/gcc/nios2-elf/4.7.3/mno-hw-mul\libgcc.a(_df_to_si.o)
 .data          0x0201780c        0x0 c:/altera/13.1/nios2eds/bin/gnu/h-i686-mingw32/bin/../lib/gcc/nios2-elf/4.7.3/mno-hw-mul\libgcc.a(_thenan_df.o)
 .data          0x0201780c        0x0 c:/altera/13.1/nios2eds/bin/gnu/h-i686-mingw32/bin/../lib/gcc/nios2-elf/4.7.3/mno-hw-mul\libgcc.a(_usi_to_df.o)
 .data          0x0201780c        0x0 c:/altera/13.1/nios2eds/bin/gnu/h-i686-mingw32/bin/../lib/gcc/nios2-elf/4.7.3/mno-hw-mul\libgcc.a(lib2-divmod.o)
 .data          0x0201780c        0x0 c:/altera/13.1/nios2eds/bin/gnu/h-i686-mingw32/bin/../lib/gcc/nios2-elf/4.7.3/mno-hw-mul\libgcc.a(lib2-mul.o)
 .data          0x0201780c        0x0 c:/altera/13.1/nios2eds/bin/gnu/h-i686-mingw32/bin/../lib/gcc/nios2-elf/4.7.3/mno-hw-mul\libgcc.a(_clzsi2.o)
 .data          0x0201780c        0x0 c:/altera/13.1/nios2eds/bin/gnu/h-i686-mingw32/bin/../lib/gcc/nios2-elf/4.7.3/mno-hw-mul\libgcc.a(_pack_df.o)
 .data          0x0201780c        0x0 c:/altera/13.1/nios2eds/bin/gnu/h-i686-mingw32/bin/../lib/gcc/nios2-elf/4.7.3/mno-hw-mul\libgcc.a(_unpack_df.o)
 .data          0x0201780c        0x0 c:/altera/13.1/nios2eds/bin/gnu/h-i686-mingw32/bin/../lib/gcc/nios2-elf/4.7.3/mno-hw-mul\libgcc.a(_fpcmp_parts_df.o)
 .data          0x0201780c        0x0 c:/altera/13.1/nios2eds/bin/gnu/h-i686-mingw32/bin/../lib/gcc/nios2-elf/4.7.3/mno-hw-mul\libgcc.a(_lshrdi3.o)
 .data          0x0201780c        0x0 c:/altera/13.1/nios2eds/bin/gnu/h-i686-mingw32/bin/../lib/gcc/nios2-elf/4.7.3/mno-hw-mul\libgcc.a(_ashldi3.o)
 .data          0x0201780c        0x0 c:/altera/13.1/nios2eds/bin/gnu/h-i686-mingw32/bin/../lib/gcc/nios2-elf/4.7.3/mno-hw-mul\libgcc.a(_clz.o)
 .data          0x0201780c        0x0 c:/altera/13.1/nios2eds/bin/gnu/h-i686-mingw32/bin/../lib/gcc/nios2-elf/4.7.3/../../../../../H-i686-mingw32/nios2-elf/lib/mno-hw-mul\libc.a(lib_a-printf.o)
 .data          0x0201780c        0x0 c:/altera/13.1/nios2eds/bin/gnu/h-i686-mingw32/bin/../lib/gcc/nios2-elf/4.7.3/../../../../../H-i686-mingw32/nios2-elf/lib/mno-hw-mul\libc.a(lib_a-puts.o)
 .data          0x0201780c        0x0 c:/altera/13.1/nios2eds/bin/gnu/h-i686-mingw32/bin/../lib/gcc/nios2-elf/4.7.3/../../../../../H-i686-mingw32/nios2-elf/lib/mno-hw-mul\libc.a(lib_a-sprintf.o)
 .data          0x0201780c        0x0 c:/altera/13.1/nios2eds/bin/gnu/h-i686-mingw32/bin/../lib/gcc/nios2-elf/4.7.3/../../../../../H-i686-mingw32/nios2-elf/lib/mno-hw-mul\libc.a(lib_a-strlen.o)
 .data          0x0201780c        0x0 c:/altera/13.1/nios2eds/bin/gnu/h-i686-mingw32/bin/../lib/gcc/nios2-elf/4.7.3/../../../../../H-i686-mingw32/nios2-elf/lib/mno-hw-mul\libc.a(lib_a-vfprintf.o)
 .data          0x0201780c        0x0 c:/altera/13.1/nios2eds/bin/gnu/h-i686-mingw32/bin/../lib/gcc/nios2-elf/4.7.3/../../../../../H-i686-mingw32/nios2-elf/lib/mno-hw-mul\libc.a(lib_a-wsetup.o)
 .data          0x0201780c        0x0 c:/altera/13.1/nios2eds/bin/gnu/h-i686-mingw32/bin/../lib/gcc/nios2-elf/4.7.3/../../../../../H-i686-mingw32/nios2-elf/lib/mno-hw-mul\libc.a(lib_a-dtoa.o)
 .data          0x0201780c        0x0 c:/altera/13.1/nios2eds/bin/gnu/h-i686-mingw32/bin/../lib/gcc/nios2-elf/4.7.3/../../../../../H-i686-mingw32/nios2-elf/lib/mno-hw-mul\libc.a(lib_a-fflush.o)
 .data          0x0201780c        0x0 c:/altera/13.1/nios2eds/bin/gnu/h-i686-mingw32/bin/../lib/gcc/nios2-elf/4.7.3/../../../../../H-i686-mingw32/nios2-elf/lib/mno-hw-mul\libc.a(lib_a-findfp.o)
 .data          0x0201780c        0x0 c:/altera/13.1/nios2eds/bin/gnu/h-i686-mingw32/bin/../lib/gcc/nios2-elf/4.7.3/../../../../../H-i686-mingw32/nios2-elf/lib/mno-hw-mul\libc.a(lib_a-freer.o)
 .data          0x0201780c        0x0 c:/altera/13.1/nios2eds/bin/gnu/h-i686-mingw32/bin/../lib/gcc/nios2-elf/4.7.3/../../../../../H-i686-mingw32/nios2-elf/lib/mno-hw-mul\libc.a(lib_a-fvwrite.o)
 .data          0x0201780c        0x0 c:/altera/13.1/nios2eds/bin/gnu/h-i686-mingw32/bin/../lib/gcc/nios2-elf/4.7.3/../../../../../H-i686-mingw32/nios2-elf/lib/mno-hw-mul\libc.a(lib_a-fwalk.o)
 .data          0x0201780c      0x400 c:/altera/13.1/nios2eds/bin/gnu/h-i686-mingw32/bin/../lib/gcc/nios2-elf/4.7.3/../../../../../H-i686-mingw32/nios2-elf/lib/mno-hw-mul\libc.a(lib_a-impure.o)
 .data          0x02017c0c        0xc c:/altera/13.1/nios2eds/bin/gnu/h-i686-mingw32/bin/../lib/gcc/nios2-elf/4.7.3/../../../../../H-i686-mingw32/nios2-elf/lib/mno-hw-mul\libc.a(lib_a-locale.o)
                0x02017c0c                __lc_ctype
 .data          0x02017c18        0x0 c:/altera/13.1/nios2eds/bin/gnu/h-i686-mingw32/bin/../lib/gcc/nios2-elf/4.7.3/../../../../../H-i686-mingw32/nios2-elf/lib/mno-hw-mul\libc.a(lib_a-makebuf.o)
 .data          0x02017c18      0x408 c:/altera/13.1/nios2eds/bin/gnu/h-i686-mingw32/bin/../lib/gcc/nios2-elf/4.7.3/../../../../../H-i686-mingw32/nios2-elf/lib/mno-hw-mul\libc.a(lib_a-mallocr.o)
                0x02017c18                __malloc_av_
 .data          0x02018020        0x0 c:/altera/13.1/nios2eds/bin/gnu/h-i686-mingw32/bin/../lib/gcc/nios2-elf/4.7.3/../../../../../H-i686-mingw32/nios2-elf/lib/mno-hw-mul\libc.a(lib_a-memchr.o)
 .data          0x02018020        0x0 c:/altera/13.1/nios2eds/bin/gnu/h-i686-mingw32/bin/../lib/gcc/nios2-elf/4.7.3/../../../../../H-i686-mingw32/nios2-elf/lib/mno-hw-mul\libc.a(lib_a-memcpy.o)
 .data          0x02018020        0x0 c:/altera/13.1/nios2eds/bin/gnu/h-i686-mingw32/bin/../lib/gcc/nios2-elf/4.7.3/../../../../../H-i686-mingw32/nios2-elf/lib/mno-hw-mul\libc.a(lib_a-memmove.o)
 .data          0x02018020        0x0 c:/altera/13.1/nios2eds/bin/gnu/h-i686-mingw32/bin/../lib/gcc/nios2-elf/4.7.3/../../../../../H-i686-mingw32/nios2-elf/lib/mno-hw-mul\libc.a(lib_a-memset.o)
 .data          0x02018020        0x0 c:/altera/13.1/nios2eds/bin/gnu/h-i686-mingw32/bin/../lib/gcc/nios2-elf/4.7.3/../../../../../H-i686-mingw32/nios2-elf/lib/mno-hw-mul\libc.a(lib_a-mprec.o)
 .data          0x02018020        0x0 c:/altera/13.1/nios2eds/bin/gnu/h-i686-mingw32/bin/../lib/gcc/nios2-elf/4.7.3/../../../../../H-i686-mingw32/nios2-elf/lib/mno-hw-mul\libc.a(lib_a-reallocr.o)
 .data          0x02018020        0x0 c:/altera/13.1/nios2eds/bin/gnu/h-i686-mingw32/bin/../lib/gcc/nios2-elf/4.7.3/../../../../../H-i686-mingw32/nios2-elf/lib/mno-hw-mul\libc.a(lib_a-s_isinfd.o)
 .data          0x02018020        0x0 c:/altera/13.1/nios2eds/bin/gnu/h-i686-mingw32/bin/../lib/gcc/nios2-elf/4.7.3/../../../../../H-i686-mingw32/nios2-elf/lib/mno-hw-mul\libc.a(lib_a-s_isnand.o)
 .data          0x02018020        0x0 c:/altera/13.1/nios2eds/bin/gnu/h-i686-mingw32/bin/../lib/gcc/nios2-elf/4.7.3/../../../../../H-i686-mingw32/nios2-elf/lib/mno-hw-mul\libc.a(lib_a-sbrkr.o)
 .data          0x02018020        0x0 c:/altera/13.1/nios2eds/bin/gnu/h-i686-mingw32/bin/../lib/gcc/nios2-elf/4.7.3/../../../../../H-i686-mingw32/nios2-elf/lib/mno-hw-mul\libc.a(lib_a-stdio.o)
 .data          0x02018020        0x0 c:/altera/13.1/nios2eds/bin/gnu/h-i686-mingw32/bin/../lib/gcc/nios2-elf/4.7.3/../../../../../H-i686-mingw32/nios2-elf/lib/mno-hw-mul\libc.a(lib_a-strcmp.o)
 .data          0x02018020        0x0 c:/altera/13.1/nios2eds/bin/gnu/h-i686-mingw32/bin/../lib/gcc/nios2-elf/4.7.3/../../../../../H-i686-mingw32/nios2-elf/lib/mno-hw-mul\libc.a(lib_a-writer.o)
 .data          0x02018020        0x0 c:/altera/13.1/nios2eds/bin/gnu/h-i686-mingw32/bin/../lib/gcc/nios2-elf/4.7.3/../../../../../H-i686-mingw32/nios2-elf/lib/mno-hw-mul\libc.a(lib_a-callocr.o)
 .data          0x02018020        0x0 c:/altera/13.1/nios2eds/bin/gnu/h-i686-mingw32/bin/../lib/gcc/nios2-elf/4.7.3/../../../../../H-i686-mingw32/nios2-elf/lib/mno-hw-mul\libc.a(lib_a-closer.o)
 .data          0x02018020        0x0 c:/altera/13.1/nios2eds/bin/gnu/h-i686-mingw32/bin/../lib/gcc/nios2-elf/4.7.3/../../../../../H-i686-mingw32/nios2-elf/lib/mno-hw-mul\libc.a(lib_a-fclose.o)
 .data          0x02018020        0x0 c:/altera/13.1/nios2eds/bin/gnu/h-i686-mingw32/bin/../lib/gcc/nios2-elf/4.7.3/../../../../../H-i686-mingw32/nios2-elf/lib/mno-hw-mul\libc.a(lib_a-fstatr.o)
 .data          0x02018020        0x0 c:/altera/13.1/nios2eds/bin/gnu/h-i686-mingw32/bin/../lib/gcc/nios2-elf/4.7.3/../../../../../H-i686-mingw32/nios2-elf/lib/mno-hw-mul\libc.a(lib_a-int_errno.o)
 .data          0x02018020        0x0 c:/altera/13.1/nios2eds/bin/gnu/h-i686-mingw32/bin/../lib/gcc/nios2-elf/4.7.3/../../../../../H-i686-mingw32/nios2-elf/lib/mno-hw-mul\libc.a(lib_a-isattyr.o)
 .data          0x02018020        0x0 c:/altera/13.1/nios2eds/bin/gnu/h-i686-mingw32/bin/../lib/gcc/nios2-elf/4.7.3/../../../../../H-i686-mingw32/nios2-elf/lib/mno-hw-mul\libc.a(lib_a-lseekr.o)
 .data          0x02018020        0x0 c:/altera/13.1/nios2eds/bin/gnu/h-i686-mingw32/bin/../lib/gcc/nios2-elf/4.7.3/../../../../../H-i686-mingw32/nios2-elf/lib/mno-hw-mul\libc.a(lib_a-readr.o)
 .data          0x02018020        0x0 c:/altera/13.1/nios2eds/bin/gnu/h-i686-mingw32/bin/../lib/gcc/nios2-elf/4.7.3/mno-hw-mul\libgcc.a(_udivdi3.o)
 .data          0x02018020        0x0 c:/altera/13.1/nios2eds/bin/gnu/h-i686-mingw32/bin/../lib/gcc/nios2-elf/4.7.3/mno-hw-mul\libgcc.a(_umoddi3.o)
 .data          0x02018020        0x0 c:/altera/13.1/nios2eds/bin/gnu/h-i686-mingw32/bin/../lib/gcc/nios2-elf/4.7.3/mno-hw-mul\libgcc.a(_mul_df.o)
 .data          0x02018020        0x0 c:/altera/13.1/nios2eds/bin/gnu/h-i686-mingw32/bin/../lib/gcc/nios2-elf/4.7.3/mno-hw-mul\libgcc.a(_div_df.o)
 .data          0x02018020        0x0 c:/altera/13.1/nios2eds/bin/gnu/h-i686-mingw32/bin/../lib/gcc/nios2-elf/4.7.3/mno-hw-mul\libgcc.a(_eq_df.o)
 .data          0x02018020        0x0 c:/altera/13.1/nios2eds/bin/gnu/h-i686-mingw32/bin/../lib/gcc/nios2-elf/4.7.3/mno-hw-mul\libgcc.a(_ne_df.o)
 .data          0x02018020        0x0 c:/altera/13.1/nios2eds/bin/gnu/h-i686-mingw32/bin/../lib/gcc/nios2-elf/4.7.3/mno-hw-mul\libgcc.a(_gt_df.o)
 .data          0x02018020        0x0 c:/altera/13.1/nios2eds/bin/gnu/h-i686-mingw32/bin/../lib/gcc/nios2-elf/4.7.3/mno-hw-mul\libgcc.a(_lt_df.o)
 .data          0x02018020        0x0 c:/altera/13.1/nios2eds/bin/gnu/h-i686-mingw32/bin/../lib/gcc/nios2-elf/4.7.3/mno-hw-mul\libgcc.a(_si_to_df.o)
 .data          0x02018020        0x0 c:/altera/13.1/nios2eds/bin/gnu/h-i686-mingw32/bin/../lib/gcc/nios2-elf/4.7.3/mno-hw-mul\libgcc.a(_muldi3.o)
 .data          0x02018020        0x0 ../Controller_sw_bsp/\libhal_bsp.a(alt_close.o)
 .data          0x02018020      0x1a8 ../Controller_sw_bsp/\libhal_bsp.a(alt_dev.o)
                0x02018020                alt_dev_null
                0x02018048                alt_fd_list
 .data          0x020181c8        0x0 ../Controller_sw_bsp/\libhal_bsp.a(alt_errno.o)
 .data          0x020181c8        0x0 ../Controller_sw_bsp/\libhal_bsp.a(alt_fstat.o)
 .data          0x020181c8        0x0 ../Controller_sw_bsp/\libhal_bsp.a(alt_iic.o)
 .data          0x020181c8        0x0 ../Controller_sw_bsp/\libhal_bsp.a(alt_iic_isr_register.o)
 .data          0x020181c8        0x0 ../Controller_sw_bsp/\libhal_bsp.a(alt_irq_entry.o)
 .data          0x020181c8        0x0 ../Controller_sw_bsp/\libhal_bsp.a(alt_irq_handler.o)
 .data          0x020181c8        0x0 ../Controller_sw_bsp/\libhal_bsp.a(alt_irq_vars.o)
 .data          0x020181c8        0x0 ../Controller_sw_bsp/\libhal_bsp.a(alt_isatty.o)
 .data          0x020181c8        0x0 ../Controller_sw_bsp/\libhal_bsp.a(alt_lseek.o)
 .data          0x020181c8        0x0 ../Controller_sw_bsp/\libhal_bsp.a(alt_main.o)
 .data          0x020181c8        0x0 ../Controller_sw_bsp/\libhal_bsp.a(alt_malloc_lock.o)
 .data          0x020181c8        0x0 ../Controller_sw_bsp/\libhal_bsp.a(alt_read.o)
 .data          0x020181c8        0x0 ../Controller_sw_bsp/\libhal_bsp.a(alt_release_fd.o)
 .data          0x020181c8        0x0 ../Controller_sw_bsp/\libhal_bsp.a(alt_sbrk.o)
 .data          0x020181c8        0x0 ../Controller_sw_bsp/\libhal_bsp.a(alt_write.o)
 .data          0x020181c8     0x11ec ../Controller_sw_bsp/\libhal_bsp.a(alt_sys_init.o)
 .data          0x020193b4        0x0 ../Controller_sw_bsp/\libhal_bsp.a(altera_avalon_epcs_flash_controller.o)
 .data          0x020193b4        0x0 ../Controller_sw_bsp/\libhal_bsp.a(altera_avalon_jtag_uart_fd.o)
 .data          0x020193b4        0x0 ../Controller_sw_bsp/\libhal_bsp.a(altera_avalon_jtag_uart_init.o)
 .data          0x020193b4        0x0 ../Controller_sw_bsp/\libhal_bsp.a(altera_avalon_jtag_uart_ioctl.o)
 .data          0x020193b4        0x0 ../Controller_sw_bsp/\libhal_bsp.a(altera_avalon_jtag_uart_read.o)
 .data          0x020193b4        0x0 ../Controller_sw_bsp/\libhal_bsp.a(altera_avalon_jtag_uart_write.o)
 .data          0x020193b4        0x0 ../Controller_sw_bsp/\libhal_bsp.a(altera_avalon_uart_fd.o)
 .data          0x020193b4        0x0 ../Controller_sw_bsp/\libhal_bsp.a(altera_avalon_uart_init.o)
 .data          0x020193b4        0x0 ../Controller_sw_bsp/\libhal_bsp.a(altera_avalon_uart_read.o)
 .data          0x020193b4        0x0 ../Controller_sw_bsp/\libhal_bsp.a(altera_avalon_uart_write.o)
 .data          0x020193b4        0x0 ../Controller_sw_bsp/\libhal_bsp.a(epcs_commands.o)
 .data          0x020193b4        0x0 ../Controller_sw_bsp/\libhal_bsp.a(alt_alarm_start.o)
 .data          0x020193b4        0x0 ../Controller_sw_bsp/\libhal_bsp.a(alt_dev_llist_insert.o)
 .data          0x020193b4        0x0 ../Controller_sw_bsp/\libhal_bsp.a(alt_do_ctors.o)
 .data          0x020193b4        0x0 ../Controller_sw_bsp/\libhal_bsp.a(alt_do_dtors.o)
 .data          0x020193b4        0x0 ../Controller_sw_bsp/\libhal_bsp.a(alt_exception_entry.o)
 .data          0x020193b4        0x0 ../Controller_sw_bsp/\libhal_bsp.a(alt_flash_dev.o)
 .data          0x020193b4        0x0 ../Controller_sw_bsp/\libhal_bsp.a(alt_io_redirect.o)
 .data          0x020193b4        0x0 ../Controller_sw_bsp/\libhal_bsp.a(alt_open.o)
 .data          0x020193b4        0x0 ../Controller_sw_bsp/\libhal_bsp.a(alt_tick.o)
 .data          0x020193b4        0x0 ../Controller_sw_bsp/\libhal_bsp.a(altera_nios2_qsys_irq.o)
 .data          0x020193b4        0x0 ../Controller_sw_bsp/\libhal_bsp.a(altera_avalon_spi.o)
 .data          0x020193b4        0x0 ../Controller_sw_bsp/\libhal_bsp.a(alt_find_dev.o)
 .data          0x020193b4        0x0 ../Controller_sw_bsp/\libhal_bsp.a(alt_find_file.o)
 .data          0x020193b4        0x0 ../Controller_sw_bsp/\libhal_bsp.a(alt_get_fd.o)
 .data          0x020193b4        0x0 c:/altera/13.1/nios2eds/bin/gnu/h-i686-mingw32/bin/../lib/gcc/nios2-elf/4.7.3/../../../../../H-i686-mingw32/nios2-elf/lib/mno-hw-mul\libc.a(lib_a-atexit.o)
 .data          0x020193b4        0x0 c:/altera/13.1/nios2eds/bin/gnu/h-i686-mingw32/bin/../lib/gcc/nios2-elf/4.7.3/../../../../../H-i686-mingw32/nios2-elf/lib/mno-hw-mul\libc.a(lib_a-exit.o)
 .data          0x020193b4        0x0 c:/altera/13.1/nios2eds/bin/gnu/h-i686-mingw32/bin/../lib/gcc/nios2-elf/4.7.3/../../../../../H-i686-mingw32/nios2-elf/lib/mno-hw-mul\libc.a(lib_a-memcmp.o)
 .data          0x020193b4        0x0 c:/altera/13.1/nios2eds/bin/gnu/h-i686-mingw32/bin/../lib/gcc/nios2-elf/4.7.3/../../../../../H-i686-mingw32/nios2-elf/lib/mno-hw-mul\libc.a(lib_a-__atexit.o)
 .data          0x020193b4        0x0 c:/altera/13.1/nios2eds/bin/gnu/h-i686-mingw32/bin/../lib/gcc/nios2-elf/4.7.3/../../../../../H-i686-mingw32/nios2-elf/lib/mno-hw-mul\libc.a(lib_a-__call_atexit.o)
 .data          0x020193b4        0x0 ../Controller_sw_bsp/\libhal_bsp.a(alt_exit.o)
                0x020213b4                _gp = ABSOLUTE ((. + 0x8000))
                0x020213b4                PROVIDE (gp, _gp)
 *(.rwdata .rwdata.*)
 *(.sdata .sdata.* .gnu.linkonce.s.*)
 .sdata         0x020193b4        0x8 c:/altera/13.1/nios2eds/bin/gnu/h-i686-mingw32/bin/../lib/gcc/nios2-elf/4.7.3/../../../../../H-i686-mingw32/nios2-elf/lib/mno-hw-mul\libc.a(lib_a-impure.o)
                0x020193b4                _global_impure_ptr
                0x020193b8                _impure_ptr
 .sdata         0x020193bc        0x4 c:/altera/13.1/nios2eds/bin/gnu/h-i686-mingw32/bin/../lib/gcc/nios2-elf/4.7.3/../../../../../H-i686-mingw32/nios2-elf/lib/mno-hw-mul\libc.a(lib_a-locale.o)
                0x020193bc                __mb_cur_max
 .sdata         0x020193c0        0x8 c:/altera/13.1/nios2eds/bin/gnu/h-i686-mingw32/bin/../lib/gcc/nios2-elf/4.7.3/../../../../../H-i686-mingw32/nios2-elf/lib/mno-hw-mul\libc.a(lib_a-mallocr.o)
                0x020193c0                __malloc_sbrk_base
                0x020193c4                __malloc_trim_threshold
 .sdata         0x020193c8       0x14 ../Controller_sw_bsp/\libhal_bsp.a(alt_dev.o)
                0x020193c8                alt_fs_list
                0x020193d0                alt_dev_list
                0x020193d8                alt_max_fd
 .sdata         0x020193dc        0x4 ../Controller_sw_bsp/\libhal_bsp.a(alt_errno.o)
                0x020193dc                alt_errno
 .sdata         0x020193e0        0x4 ../Controller_sw_bsp/\libhal_bsp.a(alt_irq_vars.o)
                0x020193e0                alt_priority_mask
 .sdata         0x020193e4        0x4 ../Controller_sw_bsp/\libhal_bsp.a(alt_sbrk.o)
 .sdata         0x020193e8        0x8 ../Controller_sw_bsp/\libhal_bsp.a(alt_flash_dev.o)
                0x020193e8                alt_flash_dev_list
 .sdata         0x020193f0        0x8 ../Controller_sw_bsp/\libhal_bsp.a(alt_tick.o)
                0x020193f0                alt_alarm_list
 *(.sdata2 .sdata2.* .gnu.linkonce.s2.*)
                0x020193f8                . = ALIGN (0x4)
                0x020193f8                _edata = ABSOLUTE (.)
                0x020193f8                PROVIDE (edata, ABSOLUTE (.))
                0x020193f8                PROVIDE (__ram_rwdata_end, ABSOLUTE (.))
                0x02017718                PROVIDE (__flash_rwdata_start, LOADADDR (.rwdata))

.bss            0x020193f8      0x304
                0x020193f8                __bss_start = ABSOLUTE (.)
                0x020193f8                PROVIDE (__sbss_start, ABSOLUTE (.))
                0x020193f8                PROVIDE (___sbss_start, ABSOLUTE (.))
 *(.dynsbss)
 *(.sbss .sbss.* .gnu.linkonce.sb.*)
 .sbss          0x020193f8        0x2 obj/default/driver/KPLED.o
 *fill*         0x020193fa        0x2 
 .sbss          0x020193fc        0xc c:/altera/13.1/nios2eds/bin/gnu/h-i686-mingw32/bin/../lib/gcc/nios2-elf/4.7.3/../../../../../H-i686-mingw32/nios2-elf/lib/mno-hw-mul\libc.a(lib_a-locale.o)
                0x020193fc                _PathLocale
                0x02019400                __mlocale_changed
                0x02019404                __nlocale_changed
 .sbss          0x02019408        0xc c:/altera/13.1/nios2eds/bin/gnu/h-i686-mingw32/bin/../lib/gcc/nios2-elf/4.7.3/../../../../../H-i686-mingw32/nios2-elf/lib/mno-hw-mul\libc.a(lib_a-mallocr.o)
                0x02019408                __malloc_max_total_mem
                0x0201940c                __malloc_max_sbrked_mem
                0x02019410                __malloc_top_pad
 .sbss          0x02019414        0x4 c:/altera/13.1/nios2eds/bin/gnu/h-i686-mingw32/bin/../lib/gcc/nios2-elf/4.7.3/../../../../../H-i686-mingw32/nios2-elf/lib/mno-hw-mul\libc.a(lib_a-int_errno.o)
                0x02019414                errno
 .sbss          0x02019418        0x4 ../Controller_sw_bsp/\libhal_bsp.a(alt_irq_vars.o)
                0x02019418                alt_irq_active
 .sbss          0x0201941c        0xc ../Controller_sw_bsp/\libhal_bsp.a(alt_main.o)
                0x0201941c                alt_argc
                0x02019420                alt_argv
                0x02019424                alt_envp
 .sbss          0x02019428        0x8 ../Controller_sw_bsp/\libhal_bsp.a(alt_tick.o)
                0x02019428                _alt_tick_rate
                0x0201942c                _alt_nticks
 *(.sbss2 .sbss2.* .gnu.linkonce.sb2.*)
 *(.scommon)
                0x02019430                PROVIDE (__sbss_end, ABSOLUTE (.))
                0x02019430                PROVIDE (___sbss_end, ABSOLUTE (.))
 *(.dynbss)
 *(.bss .bss.* .gnu.linkonce.b.*)
 .bss           0x02019430        0x0 ../Controller_sw_bsp//obj/HAL/src/crt0.o
 .bss           0x02019430        0x0 obj/default/driver/Counter.o
 .bss           0x02019430        0x0 obj/default/driver/DisDriver.o
 .bss           0x02019430        0x0 obj/default/driver/FRAM.o
 .bss           0x02019430        0x0 obj/default/driver/KPLED.o
 .bss           0x02019430        0x0 obj/default/driver/comInterface.o
 .bss           0x02019430        0x0 obj/default/driver/coverPage.o
 .bss           0x02019430        0x0 obj/default/driver/delay.o
 .bss           0x02019430        0x0 obj/default/driver/loadWriteData.o
 .bss           0x02019430        0x0 obj/default/driver/powerFailure.o
 .bss           0x02019430        0x0 obj/default/driver/uart.o
 .bss           0x02019430        0x0 obj/default/main/TopMenu.o
 .bss           0x02019430        0x0 obj/default/main/main.o
 .bss           0x02019430        0x0 obj/default/menuComponent/FireMenu.o
 .bss           0x02019430        0x0 obj/default/menuComponent/HeaterWarmingUp.o
 .bss           0x02019430        0x0 obj/default/menuComponent/ParameterMenu.o
 .bss           0x02019430        0x0 obj/default/menuComponent/RemoteMenu.o
 .bss           0x02019430        0x0 obj/default/menuComponent/SaveLoadMenu.o
 .bss           0x02019430        0x0 obj/default/menuComponent/ShotCountersMenu.o
 .bss           0x02019430        0x0 obj/default/menuComponent/ShutdownMenu.o
 .bss           0x02019430        0x0 obj/default/menuComponent/StartupMenu.o
 .bss           0x02019430        0x0 obj/default/menuComponent/editNum10.o
 .bss           0x02019430        0x0 obj/default/menuComponent/editNum2.o
 .bss           0x02019430        0x0 obj/default/menuComponent/editNum5.o
 .bss           0x02019430        0x0 obj/default/menuComponent/enterPWD.o
 .bss           0x02019430       0x12 obj/default/menuComponent/errorCheck.o
 .bss           0x02019442        0x0 obj/default/menuComponent/pwdPage.o
 .bss           0x02019442        0x0 obj/default/menuComponent/repPage.o
 .bss           0x02019442        0x0 obj/default/menuComponent/shotPage.o
 .bss           0x02019442        0x0 obj/default/menuComponent/timingPage.o
 .bss           0x02019442        0x0 c:/altera/13.1/nios2eds/bin/gnu/h-i686-mingw32/bin/../lib/gcc/nios2-elf/4.7.3/mno-hw-mul\libgcc.a(_fixunsdfsi.o)
 .bss           0x02019442        0x0 c:/altera/13.1/nios2eds/bin/gnu/h-i686-mingw32/bin/../lib/gcc/nios2-elf/4.7.3/mno-hw-mul\libgcc.a(_addsub_df.o)
 .bss           0x02019442        0x0 c:/altera/13.1/nios2eds/bin/gnu/h-i686-mingw32/bin/../lib/gcc/nios2-elf/4.7.3/mno-hw-mul\libgcc.a(_ge_df.o)
 .bss           0x02019442        0x0 c:/altera/13.1/nios2eds/bin/gnu/h-i686-mingw32/bin/../lib/gcc/nios2-elf/4.7.3/mno-hw-mul\libgcc.a(_df_to_si.o)
 .bss           0x02019442        0x0 c:/altera/13.1/nios2eds/bin/gnu/h-i686-mingw32/bin/../lib/gcc/nios2-elf/4.7.3/mno-hw-mul\libgcc.a(_thenan_df.o)
 .bss           0x02019442        0x0 c:/altera/13.1/nios2eds/bin/gnu/h-i686-mingw32/bin/../lib/gcc/nios2-elf/4.7.3/mno-hw-mul\libgcc.a(_usi_to_df.o)
 .bss           0x02019442        0x0 c:/altera/13.1/nios2eds/bin/gnu/h-i686-mingw32/bin/../lib/gcc/nios2-elf/4.7.3/mno-hw-mul\libgcc.a(lib2-divmod.o)
 .bss           0x02019442        0x0 c:/altera/13.1/nios2eds/bin/gnu/h-i686-mingw32/bin/../lib/gcc/nios2-elf/4.7.3/mno-hw-mul\libgcc.a(lib2-mul.o)
 .bss           0x02019442        0x0 c:/altera/13.1/nios2eds/bin/gnu/h-i686-mingw32/bin/../lib/gcc/nios2-elf/4.7.3/mno-hw-mul\libgcc.a(_clzsi2.o)
 .bss           0x02019442        0x0 c:/altera/13.1/nios2eds/bin/gnu/h-i686-mingw32/bin/../lib/gcc/nios2-elf/4.7.3/mno-hw-mul\libgcc.a(_pack_df.o)
 .bss           0x02019442        0x0 c:/altera/13.1/nios2eds/bin/gnu/h-i686-mingw32/bin/../lib/gcc/nios2-elf/4.7.3/mno-hw-mul\libgcc.a(_unpack_df.o)
 .bss           0x02019442        0x0 c:/altera/13.1/nios2eds/bin/gnu/h-i686-mingw32/bin/../lib/gcc/nios2-elf/4.7.3/mno-hw-mul\libgcc.a(_fpcmp_parts_df.o)
 .bss           0x02019442        0x0 c:/altera/13.1/nios2eds/bin/gnu/h-i686-mingw32/bin/../lib/gcc/nios2-elf/4.7.3/mno-hw-mul\libgcc.a(_lshrdi3.o)
 .bss           0x02019442        0x0 c:/altera/13.1/nios2eds/bin/gnu/h-i686-mingw32/bin/../lib/gcc/nios2-elf/4.7.3/mno-hw-mul\libgcc.a(_ashldi3.o)
 .bss           0x02019442        0x0 c:/altera/13.1/nios2eds/bin/gnu/h-i686-mingw32/bin/../lib/gcc/nios2-elf/4.7.3/mno-hw-mul\libgcc.a(_clz.o)
 .bss           0x02019442        0x0 c:/altera/13.1/nios2eds/bin/gnu/h-i686-mingw32/bin/../lib/gcc/nios2-elf/4.7.3/../../../../../H-i686-mingw32/nios2-elf/lib/mno-hw-mul\libc.a(lib_a-printf.o)
 .bss           0x02019442        0x0 c:/altera/13.1/nios2eds/bin/gnu/h-i686-mingw32/bin/../lib/gcc/nios2-elf/4.7.3/../../../../../H-i686-mingw32/nios2-elf/lib/mno-hw-mul\libc.a(lib_a-puts.o)
 .bss           0x02019442        0x0 c:/altera/13.1/nios2eds/bin/gnu/h-i686-mingw32/bin/../lib/gcc/nios2-elf/4.7.3/../../../../../H-i686-mingw32/nios2-elf/lib/mno-hw-mul\libc.a(lib_a-sprintf.o)
 .bss           0x02019442        0x0 c:/altera/13.1/nios2eds/bin/gnu/h-i686-mingw32/bin/../lib/gcc/nios2-elf/4.7.3/../../../../../H-i686-mingw32/nios2-elf/lib/mno-hw-mul\libc.a(lib_a-strlen.o)
 .bss           0x02019442        0x0 c:/altera/13.1/nios2eds/bin/gnu/h-i686-mingw32/bin/../lib/gcc/nios2-elf/4.7.3/../../../../../H-i686-mingw32/nios2-elf/lib/mno-hw-mul\libc.a(lib_a-vfprintf.o)
 .bss           0x02019442        0x0 c:/altera/13.1/nios2eds/bin/gnu/h-i686-mingw32/bin/../lib/gcc/nios2-elf/4.7.3/../../../../../H-i686-mingw32/nios2-elf/lib/mno-hw-mul\libc.a(lib_a-wsetup.o)
 .bss           0x02019442        0x0 c:/altera/13.1/nios2eds/bin/gnu/h-i686-mingw32/bin/../lib/gcc/nios2-elf/4.7.3/../../../../../H-i686-mingw32/nios2-elf/lib/mno-hw-mul\libc.a(lib_a-dtoa.o)
 .bss           0x02019442        0x0 c:/altera/13.1/nios2eds/bin/gnu/h-i686-mingw32/bin/../lib/gcc/nios2-elf/4.7.3/../../../../../H-i686-mingw32/nios2-elf/lib/mno-hw-mul\libc.a(lib_a-fflush.o)
 .bss           0x02019442        0x0 c:/altera/13.1/nios2eds/bin/gnu/h-i686-mingw32/bin/../lib/gcc/nios2-elf/4.7.3/../../../../../H-i686-mingw32/nios2-elf/lib/mno-hw-mul\libc.a(lib_a-findfp.o)
 .bss           0x02019442        0x0 c:/altera/13.1/nios2eds/bin/gnu/h-i686-mingw32/bin/../lib/gcc/nios2-elf/4.7.3/../../../../../H-i686-mingw32/nios2-elf/lib/mno-hw-mul\libc.a(lib_a-freer.o)
 .bss           0x02019442        0x0 c:/altera/13.1/nios2eds/bin/gnu/h-i686-mingw32/bin/../lib/gcc/nios2-elf/4.7.3/../../../../../H-i686-mingw32/nios2-elf/lib/mno-hw-mul\libc.a(lib_a-fvwrite.o)
 .bss           0x02019442        0x0 c:/altera/13.1/nios2eds/bin/gnu/h-i686-mingw32/bin/../lib/gcc/nios2-elf/4.7.3/../../../../../H-i686-mingw32/nios2-elf/lib/mno-hw-mul\libc.a(lib_a-fwalk.o)
 .bss           0x02019442        0x0 c:/altera/13.1/nios2eds/bin/gnu/h-i686-mingw32/bin/../lib/gcc/nios2-elf/4.7.3/../../../../../H-i686-mingw32/nios2-elf/lib/mno-hw-mul\libc.a(lib_a-impure.o)
 .bss           0x02019442        0x0 c:/altera/13.1/nios2eds/bin/gnu/h-i686-mingw32/bin/../lib/gcc/nios2-elf/4.7.3/../../../../../H-i686-mingw32/nios2-elf/lib/mno-hw-mul\libc.a(lib_a-locale.o)
 .bss           0x02019442        0x0 c:/altera/13.1/nios2eds/bin/gnu/h-i686-mingw32/bin/../lib/gcc/nios2-elf/4.7.3/../../../../../H-i686-mingw32/nios2-elf/lib/mno-hw-mul\libc.a(lib_a-makebuf.o)
 *fill*         0x02019442        0x2 
 .bss           0x02019444       0x28 c:/altera/13.1/nios2eds/bin/gnu/h-i686-mingw32/bin/../lib/gcc/nios2-elf/4.7.3/../../../../../H-i686-mingw32/nios2-elf/lib/mno-hw-mul\libc.a(lib_a-mallocr.o)
                0x02019444                __malloc_current_mallinfo
 .bss           0x0201946c        0x0 c:/altera/13.1/nios2eds/bin/gnu/h-i686-mingw32/bin/../lib/gcc/nios2-elf/4.7.3/../../../../../H-i686-mingw32/nios2-elf/lib/mno-hw-mul\libc.a(lib_a-memchr.o)
 .bss           0x0201946c        0x0 c:/altera/13.1/nios2eds/bin/gnu/h-i686-mingw32/bin/../lib/gcc/nios2-elf/4.7.3/../../../../../H-i686-mingw32/nios2-elf/lib/mno-hw-mul\libc.a(lib_a-memcpy.o)
 .bss           0x0201946c        0x0 c:/altera/13.1/nios2eds/bin/gnu/h-i686-mingw32/bin/../lib/gcc/nios2-elf/4.7.3/../../../../../H-i686-mingw32/nios2-elf/lib/mno-hw-mul\libc.a(lib_a-memmove.o)
 .bss           0x0201946c        0x0 c:/altera/13.1/nios2eds/bin/gnu/h-i686-mingw32/bin/../lib/gcc/nios2-elf/4.7.3/../../../../../H-i686-mingw32/nios2-elf/lib/mno-hw-mul\libc.a(lib_a-memset.o)
 .bss           0x0201946c        0x0 c:/altera/13.1/nios2eds/bin/gnu/h-i686-mingw32/bin/../lib/gcc/nios2-elf/4.7.3/../../../../../H-i686-mingw32/nios2-elf/lib/mno-hw-mul\libc.a(lib_a-mprec.o)
 .bss           0x0201946c        0x0 c:/altera/13.1/nios2eds/bin/gnu/h-i686-mingw32/bin/../lib/gcc/nios2-elf/4.7.3/../../../../../H-i686-mingw32/nios2-elf/lib/mno-hw-mul\libc.a(lib_a-reallocr.o)
 .bss           0x0201946c        0x0 c:/altera/13.1/nios2eds/bin/gnu/h-i686-mingw32/bin/../lib/gcc/nios2-elf/4.7.3/../../../../../H-i686-mingw32/nios2-elf/lib/mno-hw-mul\libc.a(lib_a-s_isinfd.o)
 .bss           0x0201946c        0x0 c:/altera/13.1/nios2eds/bin/gnu/h-i686-mingw32/bin/../lib/gcc/nios2-elf/4.7.3/../../../../../H-i686-mingw32/nios2-elf/lib/mno-hw-mul\libc.a(lib_a-s_isnand.o)
 .bss           0x0201946c        0x0 c:/altera/13.1/nios2eds/bin/gnu/h-i686-mingw32/bin/../lib/gcc/nios2-elf/4.7.3/../../../../../H-i686-mingw32/nios2-elf/lib/mno-hw-mul\libc.a(lib_a-sbrkr.o)
 .bss           0x0201946c        0x0 c:/altera/13.1/nios2eds/bin/gnu/h-i686-mingw32/bin/../lib/gcc/nios2-elf/4.7.3/../../../../../H-i686-mingw32/nios2-elf/lib/mno-hw-mul\libc.a(lib_a-stdio.o)
 .bss           0x0201946c        0x0 c:/altera/13.1/nios2eds/bin/gnu/h-i686-mingw32/bin/../lib/gcc/nios2-elf/4.7.3/../../../../../H-i686-mingw32/nios2-elf/lib/mno-hw-mul\libc.a(lib_a-strcmp.o)
 .bss           0x0201946c        0x0 c:/altera/13.1/nios2eds/bin/gnu/h-i686-mingw32/bin/../lib/gcc/nios2-elf/4.7.3/../../../../../H-i686-mingw32/nios2-elf/lib/mno-hw-mul\libc.a(lib_a-writer.o)
 .bss           0x0201946c        0x0 c:/altera/13.1/nios2eds/bin/gnu/h-i686-mingw32/bin/../lib/gcc/nios2-elf/4.7.3/../../../../../H-i686-mingw32/nios2-elf/lib/mno-hw-mul\libc.a(lib_a-callocr.o)
 .bss           0x0201946c        0x0 c:/altera/13.1/nios2eds/bin/gnu/h-i686-mingw32/bin/../lib/gcc/nios2-elf/4.7.3/../../../../../H-i686-mingw32/nios2-elf/lib/mno-hw-mul\libc.a(lib_a-closer.o)
 .bss           0x0201946c        0x0 c:/altera/13.1/nios2eds/bin/gnu/h-i686-mingw32/bin/../lib/gcc/nios2-elf/4.7.3/../../../../../H-i686-mingw32/nios2-elf/lib/mno-hw-mul\libc.a(lib_a-fclose.o)
 .bss           0x0201946c        0x0 c:/altera/13.1/nios2eds/bin/gnu/h-i686-mingw32/bin/../lib/gcc/nios2-elf/4.7.3/../../../../../H-i686-mingw32/nios2-elf/lib/mno-hw-mul\libc.a(lib_a-fstatr.o)
 .bss           0x0201946c        0x0 c:/altera/13.1/nios2eds/bin/gnu/h-i686-mingw32/bin/../lib/gcc/nios2-elf/4.7.3/../../../../../H-i686-mingw32/nios2-elf/lib/mno-hw-mul\libc.a(lib_a-int_errno.o)
 .bss           0x0201946c        0x0 c:/altera/13.1/nios2eds/bin/gnu/h-i686-mingw32/bin/../lib/gcc/nios2-elf/4.7.3/../../../../../H-i686-mingw32/nios2-elf/lib/mno-hw-mul\libc.a(lib_a-isattyr.o)
 .bss           0x0201946c        0x0 c:/altera/13.1/nios2eds/bin/gnu/h-i686-mingw32/bin/../lib/gcc/nios2-elf/4.7.3/../../../../../H-i686-mingw32/nios2-elf/lib/mno-hw-mul\libc.a(lib_a-lseekr.o)
 .bss           0x0201946c        0x0 c:/altera/13.1/nios2eds/bin/gnu/h-i686-mingw32/bin/../lib/gcc/nios2-elf/4.7.3/../../../../../H-i686-mingw32/nios2-elf/lib/mno-hw-mul\libc.a(lib_a-readr.o)
 .bss           0x0201946c        0x0 c:/altera/13.1/nios2eds/bin/gnu/h-i686-mingw32/bin/../lib/gcc/nios2-elf/4.7.3/mno-hw-mul\libgcc.a(_udivdi3.o)
 .bss           0x0201946c        0x0 c:/altera/13.1/nios2eds/bin/gnu/h-i686-mingw32/bin/../lib/gcc/nios2-elf/4.7.3/mno-hw-mul\libgcc.a(_umoddi3.o)
 .bss           0x0201946c        0x0 c:/altera/13.1/nios2eds/bin/gnu/h-i686-mingw32/bin/../lib/gcc/nios2-elf/4.7.3/mno-hw-mul\libgcc.a(_mul_df.o)
 .bss           0x0201946c        0x0 c:/altera/13.1/nios2eds/bin/gnu/h-i686-mingw32/bin/../lib/gcc/nios2-elf/4.7.3/mno-hw-mul\libgcc.a(_div_df.o)
 .bss           0x0201946c        0x0 c:/altera/13.1/nios2eds/bin/gnu/h-i686-mingw32/bin/../lib/gcc/nios2-elf/4.7.3/mno-hw-mul\libgcc.a(_eq_df.o)
 .bss           0x0201946c        0x0 c:/altera/13.1/nios2eds/bin/gnu/h-i686-mingw32/bin/../lib/gcc/nios2-elf/4.7.3/mno-hw-mul\libgcc.a(_ne_df.o)
 .bss           0x0201946c        0x0 c:/altera/13.1/nios2eds/bin/gnu/h-i686-mingw32/bin/../lib/gcc/nios2-elf/4.7.3/mno-hw-mul\libgcc.a(_gt_df.o)
 .bss           0x0201946c        0x0 c:/altera/13.1/nios2eds/bin/gnu/h-i686-mingw32/bin/../lib/gcc/nios2-elf/4.7.3/mno-hw-mul\libgcc.a(_lt_df.o)
 .bss           0x0201946c        0x0 c:/altera/13.1/nios2eds/bin/gnu/h-i686-mingw32/bin/../lib/gcc/nios2-elf/4.7.3/mno-hw-mul\libgcc.a(_si_to_df.o)
 .bss           0x0201946c        0x0 c:/altera/13.1/nios2eds/bin/gnu/h-i686-mingw32/bin/../lib/gcc/nios2-elf/4.7.3/mno-hw-mul\libgcc.a(_muldi3.o)
 .bss           0x0201946c        0x0 ../Controller_sw_bsp/\libhal_bsp.a(alt_close.o)
 .bss           0x0201946c        0x0 ../Controller_sw_bsp/\libhal_bsp.a(alt_dev.o)
 .bss           0x0201946c        0x0 ../Controller_sw_bsp/\libhal_bsp.a(alt_errno.o)
 .bss           0x0201946c        0x0 ../Controller_sw_bsp/\libhal_bsp.a(alt_fstat.o)
 .bss           0x0201946c        0x0 ../Controller_sw_bsp/\libhal_bsp.a(alt_iic.o)
 .bss           0x0201946c        0x0 ../Controller_sw_bsp/\libhal_bsp.a(alt_iic_isr_register.o)
 .bss           0x0201946c        0x0 ../Controller_sw_bsp/\libhal_bsp.a(alt_irq_entry.o)
 .bss           0x0201946c        0x0 ../Controller_sw_bsp/\libhal_bsp.a(alt_irq_handler.o)
 .bss           0x0201946c        0x0 ../Controller_sw_bsp/\libhal_bsp.a(alt_irq_vars.o)
 .bss           0x0201946c        0x0 ../Controller_sw_bsp/\libhal_bsp.a(alt_isatty.o)
 .bss           0x0201946c        0x0 ../Controller_sw_bsp/\libhal_bsp.a(alt_lseek.o)
 .bss           0x0201946c        0x0 ../Controller_sw_bsp/\libhal_bsp.a(alt_main.o)
 .bss           0x0201946c        0x0 ../Controller_sw_bsp/\libhal_bsp.a(alt_malloc_lock.o)
 .bss           0x0201946c        0x0 ../Controller_sw_bsp/\libhal_bsp.a(alt_read.o)
 .bss           0x0201946c        0x0 ../Controller_sw_bsp/\libhal_bsp.a(alt_release_fd.o)
 .bss           0x0201946c        0x0 ../Controller_sw_bsp/\libhal_bsp.a(alt_sbrk.o)
 .bss           0x0201946c        0x0 ../Controller_sw_bsp/\libhal_bsp.a(alt_write.o)
 .bss           0x0201946c        0x0 ../Controller_sw_bsp/\libhal_bsp.a(alt_sys_init.o)
 .bss           0x0201946c        0x0 ../Controller_sw_bsp/\libhal_bsp.a(altera_avalon_epcs_flash_controller.o)
 .bss           0x0201946c        0x0 ../Controller_sw_bsp/\libhal_bsp.a(altera_avalon_jtag_uart_fd.o)
 .bss           0x0201946c        0x0 ../Controller_sw_bsp/\libhal_bsp.a(altera_avalon_jtag_uart_init.o)
 .bss           0x0201946c        0x0 ../Controller_sw_bsp/\libhal_bsp.a(altera_avalon_jtag_uart_ioctl.o)
 .bss           0x0201946c        0x0 ../Controller_sw_bsp/\libhal_bsp.a(altera_avalon_jtag_uart_read.o)
 .bss           0x0201946c        0x0 ../Controller_sw_bsp/\libhal_bsp.a(altera_avalon_jtag_uart_write.o)
 .bss           0x0201946c        0x0 ../Controller_sw_bsp/\libhal_bsp.a(altera_avalon_uart_fd.o)
 .bss           0x0201946c        0x0 ../Controller_sw_bsp/\libhal_bsp.a(altera_avalon_uart_init.o)
 .bss           0x0201946c        0x0 ../Controller_sw_bsp/\libhal_bsp.a(altera_avalon_uart_read.o)
 .bss           0x0201946c        0x0 ../Controller_sw_bsp/\libhal_bsp.a(altera_avalon_uart_write.o)
 .bss           0x0201946c        0x0 ../Controller_sw_bsp/\libhal_bsp.a(epcs_commands.o)
 .bss           0x0201946c        0x0 ../Controller_sw_bsp/\libhal_bsp.a(alt_alarm_start.o)
 .bss           0x0201946c        0x0 ../Controller_sw_bsp/\libhal_bsp.a(alt_dev_llist_insert.o)
 .bss           0x0201946c        0x0 ../Controller_sw_bsp/\libhal_bsp.a(alt_do_ctors.o)
 .bss           0x0201946c        0x0 ../Controller_sw_bsp/\libhal_bsp.a(alt_do_dtors.o)
 .bss           0x0201946c        0x0 ../Controller_sw_bsp/\libhal_bsp.a(alt_exception_entry.o)
 .bss           0x0201946c        0x0 ../Controller_sw_bsp/\libhal_bsp.a(alt_flash_dev.o)
 .bss           0x0201946c        0x0 ../Controller_sw_bsp/\libhal_bsp.a(alt_io_redirect.o)
 .bss           0x0201946c        0x0 ../Controller_sw_bsp/\libhal_bsp.a(alt_open.o)
 .bss           0x0201946c        0x0 ../Controller_sw_bsp/\libhal_bsp.a(alt_tick.o)
 .bss           0x0201946c        0x0 ../Controller_sw_bsp/\libhal_bsp.a(altera_nios2_qsys_irq.o)
 .bss           0x0201946c        0x0 ../Controller_sw_bsp/\libhal_bsp.a(altera_avalon_spi.o)
 .bss           0x0201946c        0x0 ../Controller_sw_bsp/\libhal_bsp.a(alt_find_dev.o)
 .bss           0x0201946c        0x0 ../Controller_sw_bsp/\libhal_bsp.a(alt_find_file.o)
 .bss           0x0201946c        0x0 ../Controller_sw_bsp/\libhal_bsp.a(alt_get_fd.o)
 .bss           0x0201946c        0x0 c:/altera/13.1/nios2eds/bin/gnu/h-i686-mingw32/bin/../lib/gcc/nios2-elf/4.7.3/../../../../../H-i686-mingw32/nios2-elf/lib/mno-hw-mul\libc.a(lib_a-atexit.o)
 .bss           0x0201946c        0x0 c:/altera/13.1/nios2eds/bin/gnu/h-i686-mingw32/bin/../lib/gcc/nios2-elf/4.7.3/../../../../../H-i686-mingw32/nios2-elf/lib/mno-hw-mul\libc.a(lib_a-exit.o)
 .bss           0x0201946c        0x0 c:/altera/13.1/nios2eds/bin/gnu/h-i686-mingw32/bin/../lib/gcc/nios2-elf/4.7.3/../../../../../H-i686-mingw32/nios2-elf/lib/mno-hw-mul\libc.a(lib_a-memcmp.o)
 .bss           0x0201946c        0x0 c:/altera/13.1/nios2eds/bin/gnu/h-i686-mingw32/bin/../lib/gcc/nios2-elf/4.7.3/../../../../../H-i686-mingw32/nios2-elf/lib/mno-hw-mul\libc.a(lib_a-__atexit.o)
 .bss           0x0201946c        0x0 c:/altera/13.1/nios2eds/bin/gnu/h-i686-mingw32/bin/../lib/gcc/nios2-elf/4.7.3/../../../../../H-i686-mingw32/nios2-elf/lib/mno-hw-mul\libc.a(lib_a-__call_atexit.o)
 .bss           0x0201946c        0x0 ../Controller_sw_bsp/\libhal_bsp.a(alt_exit.o)
 *(COMMON)
 COMMON         0x0201946c      0x100 ../Controller_sw_bsp/\libhal_bsp.a(alt_irq_handler.o)
                0x0201946c                alt_irq
 COMMON         0x0201956c      0x190 c:/altera/13.1/nios2eds/bin/gnu/h-i686-mingw32/bin/../lib/gcc/nios2-elf/4.7.3/../../../../../H-i686-mingw32/nios2-elf/lib/mno-hw-mul\libc.a(lib_a-atexit.o)
                0x0201956c                _atexit0
                0x020196fc                . = ALIGN (0x4)
                0x020196fc                __bss_end = ABSOLUTE (.)

.sdram          0x020196fc        0x0
                0x020196fc                PROVIDE (_alt_partition_sdram_start, ABSOLUTE (.))
 *(.sdram .sdram. sdram.*)
                0x020196fc                . = ALIGN (0x4)
                0x020196fc                PROVIDE (_alt_partition_sdram_end, ABSOLUTE (.))
                0x020196fc                _end = ABSOLUTE (.)
                0x020196fc                end = ABSOLUTE (.)
                0x020196fc                __alt_stack_base = ABSOLUTE (.)
                0x020196fc                PROVIDE (_alt_partition_sdram_load_addr, LOADADDR (.sdram))

.epcs           0x04001020        0x0
                0x04001020                PROVIDE (_alt_partition_epcs_start, ABSOLUTE (.))
 *(.epcs .epcs. epcs.*)
                0x04001020                . = ALIGN (0x4)
                0x04001020                PROVIDE (_alt_partition_epcs_end, ABSOLUTE (.))
                0x04001020                PROVIDE (_alt_partition_epcs_load_addr, LOADADDR (.epcs))

.stab
 *(.stab)

.stabstr
 *(.stabstr)

.stab.excl
 *(.stab.excl)

.stab.exclstr
 *(.stab.exclstr)

.stab.index
 *(.stab.index)

.stab.indexstr
 *(.stab.indexstr)

.comment        0x00000000       0x23
 *(.comment)
 .comment       0x00000000       0x23 obj/default/driver/Counter.o
                                 0x24 (size before relaxing)
 .comment       0x00000000       0x24 obj/default/driver/DisDriver.o
 .comment       0x00000000       0x24 obj/default/driver/FRAM.o
 .comment       0x00000000       0x24 obj/default/driver/KPLED.o
 .comment       0x00000000       0x24 obj/default/driver/comInterface.o
 .comment       0x00000000       0x24 obj/default/driver/coverPage.o
 .comment       0x00000000       0x24 obj/default/driver/delay.o
 .comment       0x00000000       0x24 obj/default/driver/loadWriteData.o
 .comment       0x00000000       0x24 obj/default/driver/powerFailure.o
 .comment       0x00000000       0x24 obj/default/driver/uart.o
 .comment       0x00000000       0x24 obj/default/main/TopMenu.o
 .comment       0x00000000       0x24 obj/default/main/main.o
 .comment       0x00000000       0x24 obj/default/menuComponent/FireMenu.o
 .comment       0x00000000       0x24 obj/default/menuComponent/HeaterWarmingUp.o
 .comment       0x00000000       0x24 obj/default/menuComponent/ParameterMenu.o
 .comment       0x00000000       0x24 obj/default/menuComponent/RemoteMenu.o
 .comment       0x00000000       0x24 obj/default/menuComponent/SaveLoadMenu.o
 .comment       0x00000000       0x24 obj/default/menuComponent/ShotCountersMenu.o
 .comment       0x00000000       0x24 obj/default/menuComponent/ShutdownMenu.o
 .comment       0x00000000       0x24 obj/default/menuComponent/StartupMenu.o
 .comment       0x00000000       0x24 obj/default/menuComponent/editNum10.o
 .comment       0x00000000       0x24 obj/default/menuComponent/editNum2.o
 .comment       0x00000000       0x24 obj/default/menuComponent/editNum5.o
 .comment       0x00000000       0x24 obj/default/menuComponent/enterPWD.o
 .comment       0x00000000       0x24 obj/default/menuComponent/errorCheck.o
 .comment       0x00000000       0x24 obj/default/menuComponent/pwdPage.o
 .comment       0x00000000       0x24 obj/default/menuComponent/repPage.o
 .comment       0x00000000       0x24 obj/default/menuComponent/shotPage.o
 .comment       0x00000000       0x24 obj/default/menuComponent/timingPage.o
 .comment       0x00000000       0x24 c:/altera/13.1/nios2eds/bin/gnu/h-i686-mingw32/bin/../lib/gcc/nios2-elf/4.7.3/mno-hw-mul\libgcc.a(_fixunsdfsi.o)
 .comment       0x00000000       0x24 c:/altera/13.1/nios2eds/bin/gnu/h-i686-mingw32/bin/../lib/gcc/nios2-elf/4.7.3/mno-hw-mul\libgcc.a(_addsub_df.o)
 .comment       0x00000000       0x24 c:/altera/13.1/nios2eds/bin/gnu/h-i686-mingw32/bin/../lib/gcc/nios2-elf/4.7.3/mno-hw-mul\libgcc.a(_ge_df.o)
 .comment       0x00000000       0x24 c:/altera/13.1/nios2eds/bin/gnu/h-i686-mingw32/bin/../lib/gcc/nios2-elf/4.7.3/mno-hw-mul\libgcc.a(_df_to_si.o)
 .comment       0x00000000       0x24 c:/altera/13.1/nios2eds/bin/gnu/h-i686-mingw32/bin/../lib/gcc/nios2-elf/4.7.3/mno-hw-mul\libgcc.a(_thenan_df.o)
 .comment       0x00000000       0x24 c:/altera/13.1/nios2eds/bin/gnu/h-i686-mingw32/bin/../lib/gcc/nios2-elf/4.7.3/mno-hw-mul\libgcc.a(_usi_to_df.o)
 .comment       0x00000000       0x24 c:/altera/13.1/nios2eds/bin/gnu/h-i686-mingw32/bin/../lib/gcc/nios2-elf/4.7.3/mno-hw-mul\libgcc.a(lib2-divmod.o)
 .comment       0x00000000       0x24 c:/altera/13.1/nios2eds/bin/gnu/h-i686-mingw32/bin/../lib/gcc/nios2-elf/4.7.3/mno-hw-mul\libgcc.a(lib2-mul.o)
 .comment       0x00000000       0x24 c:/altera/13.1/nios2eds/bin/gnu/h-i686-mingw32/bin/../lib/gcc/nios2-elf/4.7.3/mno-hw-mul\libgcc.a(_clzsi2.o)
 .comment       0x00000000       0x24 c:/altera/13.1/nios2eds/bin/gnu/h-i686-mingw32/bin/../lib/gcc/nios2-elf/4.7.3/mno-hw-mul\libgcc.a(_pack_df.o)
 .comment       0x00000000       0x24 c:/altera/13.1/nios2eds/bin/gnu/h-i686-mingw32/bin/../lib/gcc/nios2-elf/4.7.3/mno-hw-mul\libgcc.a(_unpack_df.o)
 .comment       0x00000000       0x24 c:/altera/13.1/nios2eds/bin/gnu/h-i686-mingw32/bin/../lib/gcc/nios2-elf/4.7.3/mno-hw-mul\libgcc.a(_fpcmp_parts_df.o)
 .comment       0x00000000       0x24 c:/altera/13.1/nios2eds/bin/gnu/h-i686-mingw32/bin/../lib/gcc/nios2-elf/4.7.3/mno-hw-mul\libgcc.a(_lshrdi3.o)
 .comment       0x00000000       0x24 c:/altera/13.1/nios2eds/bin/gnu/h-i686-mingw32/bin/../lib/gcc/nios2-elf/4.7.3/mno-hw-mul\libgcc.a(_ashldi3.o)
 .comment       0x00000000       0x24 c:/altera/13.1/nios2eds/bin/gnu/h-i686-mingw32/bin/../lib/gcc/nios2-elf/4.7.3/mno-hw-mul\libgcc.a(_clz.o)
 .comment       0x00000000       0x24 c:/altera/13.1/nios2eds/bin/gnu/h-i686-mingw32/bin/../lib/gcc/nios2-elf/4.7.3/../../../../../H-i686-mingw32/nios2-elf/lib/mno-hw-mul\libc.a(lib_a-printf.o)
 .comment       0x00000000       0x24 c:/altera/13.1/nios2eds/bin/gnu/h-i686-mingw32/bin/../lib/gcc/nios2-elf/4.7.3/../../../../../H-i686-mingw32/nios2-elf/lib/mno-hw-mul\libc.a(lib_a-puts.o)
 .comment       0x00000000       0x24 c:/altera/13.1/nios2eds/bin/gnu/h-i686-mingw32/bin/../lib/gcc/nios2-elf/4.7.3/../../../../../H-i686-mingw32/nios2-elf/lib/mno-hw-mul\libc.a(lib_a-sprintf.o)
 .comment       0x00000000       0x24 c:/altera/13.1/nios2eds/bin/gnu/h-i686-mingw32/bin/../lib/gcc/nios2-elf/4.7.3/../../../../../H-i686-mingw32/nios2-elf/lib/mno-hw-mul\libc.a(lib_a-strlen.o)
 .comment       0x00000000       0x24 c:/altera/13.1/nios2eds/bin/gnu/h-i686-mingw32/bin/../lib/gcc/nios2-elf/4.7.3/../../../../../H-i686-mingw32/nios2-elf/lib/mno-hw-mul\libc.a(lib_a-vfprintf.o)
 .comment       0x00000000       0x24 c:/altera/13.1/nios2eds/bin/gnu/h-i686-mingw32/bin/../lib/gcc/nios2-elf/4.7.3/../../../../../H-i686-mingw32/nios2-elf/lib/mno-hw-mul\libc.a(lib_a-wsetup.o)
 .comment       0x00000000       0x24 c:/altera/13.1/nios2eds/bin/gnu/h-i686-mingw32/bin/../lib/gcc/nios2-elf/4.7.3/../../../../../H-i686-mingw32/nios2-elf/lib/mno-hw-mul\libc.a(lib_a-dtoa.o)
 .comment       0x00000000       0x24 c:/altera/13.1/nios2eds/bin/gnu/h-i686-mingw32/bin/../lib/gcc/nios2-elf/4.7.3/../../../../../H-i686-mingw32/nios2-elf/lib/mno-hw-mul\libc.a(lib_a-fflush.o)
 .comment       0x00000000       0x24 c:/altera/13.1/nios2eds/bin/gnu/h-i686-mingw32/bin/../lib/gcc/nios2-elf/4.7.3/../../../../../H-i686-mingw32/nios2-elf/lib/mno-hw-mul\libc.a(lib_a-findfp.o)
 .comment       0x00000000       0x24 c:/altera/13.1/nios2eds/bin/gnu/h-i686-mingw32/bin/../lib/gcc/nios2-elf/4.7.3/../../../../../H-i686-mingw32/nios2-elf/lib/mno-hw-mul\libc.a(lib_a-freer.o)
 .comment       0x00000000       0x24 c:/altera/13.1/nios2eds/bin/gnu/h-i686-mingw32/bin/../lib/gcc/nios2-elf/4.7.3/../../../../../H-i686-mingw32/nios2-elf/lib/mno-hw-mul\libc.a(lib_a-fvwrite.o)
 .comment       0x00000000       0x24 c:/altera/13.1/nios2eds/bin/gnu/h-i686-mingw32/bin/../lib/gcc/nios2-elf/4.7.3/../../../../../H-i686-mingw32/nios2-elf/lib/mno-hw-mul\libc.a(lib_a-fwalk.o)
 .comment       0x00000000       0x24 c:/altera/13.1/nios2eds/bin/gnu/h-i686-mingw32/bin/../lib/gcc/nios2-elf/4.7.3/../../../../../H-i686-mingw32/nios2-elf/lib/mno-hw-mul\libc.a(lib_a-impure.o)
 .comment       0x00000000       0x24 c:/altera/13.1/nios2eds/bin/gnu/h-i686-mingw32/bin/../lib/gcc/nios2-elf/4.7.3/../../../../../H-i686-mingw32/nios2-elf/lib/mno-hw-mul\libc.a(lib_a-locale.o)
 .comment       0x00000000       0x24 c:/altera/13.1/nios2eds/bin/gnu/h-i686-mingw32/bin/../lib/gcc/nios2-elf/4.7.3/../../../../../H-i686-mingw32/nios2-elf/lib/mno-hw-mul\libc.a(lib_a-makebuf.o)
 .comment       0x00000000       0x24 c:/altera/13.1/nios2eds/bin/gnu/h-i686-mingw32/bin/../lib/gcc/nios2-elf/4.7.3/../../../../../H-i686-mingw32/nios2-elf/lib/mno-hw-mul\libc.a(lib_a-mallocr.o)
 .comment       0x00000000       0x24 c:/altera/13.1/nios2eds/bin/gnu/h-i686-mingw32/bin/../lib/gcc/nios2-elf/4.7.3/../../../../../H-i686-mingw32/nios2-elf/lib/mno-hw-mul\libc.a(lib_a-memchr.o)
 .comment       0x00000000       0x24 c:/altera/13.1/nios2eds/bin/gnu/h-i686-mingw32/bin/../lib/gcc/nios2-elf/4.7.3/../../../../../H-i686-mingw32/nios2-elf/lib/mno-hw-mul\libc.a(lib_a-memcpy.o)
 .comment       0x00000000       0x24 c:/altera/13.1/nios2eds/bin/gnu/h-i686-mingw32/bin/../lib/gcc/nios2-elf/4.7.3/../../../../../H-i686-mingw32/nios2-elf/lib/mno-hw-mul\libc.a(lib_a-memmove.o)
 .comment       0x00000000       0x24 c:/altera/13.1/nios2eds/bin/gnu/h-i686-mingw32/bin/../lib/gcc/nios2-elf/4.7.3/../../../../../H-i686-mingw32/nios2-elf/lib/mno-hw-mul\libc.a(lib_a-memset.o)
 .comment       0x00000000       0x24 c:/altera/13.1/nios2eds/bin/gnu/h-i686-mingw32/bin/../lib/gcc/nios2-elf/4.7.3/../../../../../H-i686-mingw32/nios2-elf/lib/mno-hw-mul\libc.a(lib_a-mprec.o)
 .comment       0x00000000       0x24 c:/altera/13.1/nios2eds/bin/gnu/h-i686-mingw32/bin/../lib/gcc/nios2-elf/4.7.3/../../../../../H-i686-mingw32/nios2-elf/lib/mno-hw-mul\libc.a(lib_a-reallocr.o)
 .comment       0x00000000       0x24 c:/altera/13.1/nios2eds/bin/gnu/h-i686-mingw32/bin/../lib/gcc/nios2-elf/4.7.3/../../../../../H-i686-mingw32/nios2-elf/lib/mno-hw-mul\libc.a(lib_a-s_isinfd.o)
 .comment       0x00000000       0x24 c:/altera/13.1/nios2eds/bin/gnu/h-i686-mingw32/bin/../lib/gcc/nios2-elf/4.7.3/../../../../../H-i686-mingw32/nios2-elf/lib/mno-hw-mul\libc.a(lib_a-s_isnand.o)
 .comment       0x00000000       0x24 c:/altera/13.1/nios2eds/bin/gnu/h-i686-mingw32/bin/../lib/gcc/nios2-elf/4.7.3/../../../../../H-i686-mingw32/nios2-elf/lib/mno-hw-mul\libc.a(lib_a-sbrkr.o)
 .comment       0x00000000       0x24 c:/altera/13.1/nios2eds/bin/gnu/h-i686-mingw32/bin/../lib/gcc/nios2-elf/4.7.3/../../../../../H-i686-mingw32/nios2-elf/lib/mno-hw-mul\libc.a(lib_a-stdio.o)
 .comment       0x00000000       0x24 c:/altera/13.1/nios2eds/bin/gnu/h-i686-mingw32/bin/../lib/gcc/nios2-elf/4.7.3/../../../../../H-i686-mingw32/nios2-elf/lib/mno-hw-mul\libc.a(lib_a-strcmp.o)
 .comment       0x00000000       0x24 c:/altera/13.1/nios2eds/bin/gnu/h-i686-mingw32/bin/../lib/gcc/nios2-elf/4.7.3/../../../../../H-i686-mingw32/nios2-elf/lib/mno-hw-mul\libc.a(lib_a-writer.o)
 .comment       0x00000000       0x24 c:/altera/13.1/nios2eds/bin/gnu/h-i686-mingw32/bin/../lib/gcc/nios2-elf/4.7.3/../../../../../H-i686-mingw32/nios2-elf/lib/mno-hw-mul\libc.a(lib_a-callocr.o)
 .comment       0x00000000       0x24 c:/altera/13.1/nios2eds/bin/gnu/h-i686-mingw32/bin/../lib/gcc/nios2-elf/4.7.3/../../../../../H-i686-mingw32/nios2-elf/lib/mno-hw-mul\libc.a(lib_a-closer.o)
 .comment       0x00000000       0x24 c:/altera/13.1/nios2eds/bin/gnu/h-i686-mingw32/bin/../lib/gcc/nios2-elf/4.7.3/../../../../../H-i686-mingw32/nios2-elf/lib/mno-hw-mul\libc.a(lib_a-fclose.o)
 .comment       0x00000000       0x24 c:/altera/13.1/nios2eds/bin/gnu/h-i686-mingw32/bin/../lib/gcc/nios2-elf/4.7.3/../../../../../H-i686-mingw32/nios2-elf/lib/mno-hw-mul\libc.a(lib_a-fstatr.o)
 .comment       0x00000000       0x24 c:/altera/13.1/nios2eds/bin/gnu/h-i686-mingw32/bin/../lib/gcc/nios2-elf/4.7.3/../../../../../H-i686-mingw32/nios2-elf/lib/mno-hw-mul\libc.a(lib_a-int_errno.o)
 .comment       0x00000000       0x24 c:/altera/13.1/nios2eds/bin/gnu/h-i686-mingw32/bin/../lib/gcc/nios2-elf/4.7.3/../../../../../H-i686-mingw32/nios2-elf/lib/mno-hw-mul\libc.a(lib_a-isattyr.o)
 .comment       0x00000000       0x24 c:/altera/13.1/nios2eds/bin/gnu/h-i686-mingw32/bin/../lib/gcc/nios2-elf/4.7.3/../../../../../H-i686-mingw32/nios2-elf/lib/mno-hw-mul\libc.a(lib_a-lseekr.o)
 .comment       0x00000000       0x24 c:/altera/13.1/nios2eds/bin/gnu/h-i686-mingw32/bin/../lib/gcc/nios2-elf/4.7.3/../../../../../H-i686-mingw32/nios2-elf/lib/mno-hw-mul\libc.a(lib_a-readr.o)
 .comment       0x00000000       0x24 c:/altera/13.1/nios2eds/bin/gnu/h-i686-mingw32/bin/../lib/gcc/nios2-elf/4.7.3/mno-hw-mul\libgcc.a(_udivdi3.o)
 .comment       0x00000000       0x24 c:/altera/13.1/nios2eds/bin/gnu/h-i686-mingw32/bin/../lib/gcc/nios2-elf/4.7.3/mno-hw-mul\libgcc.a(_umoddi3.o)
 .comment       0x00000000       0x24 c:/altera/13.1/nios2eds/bin/gnu/h-i686-mingw32/bin/../lib/gcc/nios2-elf/4.7.3/mno-hw-mul\libgcc.a(_mul_df.o)
 .comment       0x00000000       0x24 c:/altera/13.1/nios2eds/bin/gnu/h-i686-mingw32/bin/../lib/gcc/nios2-elf/4.7.3/mno-hw-mul\libgcc.a(_div_df.o)
 .comment       0x00000000       0x24 c:/altera/13.1/nios2eds/bin/gnu/h-i686-mingw32/bin/../lib/gcc/nios2-elf/4.7.3/mno-hw-mul\libgcc.a(_eq_df.o)
 .comment       0x00000000       0x24 c:/altera/13.1/nios2eds/bin/gnu/h-i686-mingw32/bin/../lib/gcc/nios2-elf/4.7.3/mno-hw-mul\libgcc.a(_ne_df.o)
 .comment       0x00000000       0x24 c:/altera/13.1/nios2eds/bin/gnu/h-i686-mingw32/bin/../lib/gcc/nios2-elf/4.7.3/mno-hw-mul\libgcc.a(_gt_df.o)
 .comment       0x00000000       0x24 c:/altera/13.1/nios2eds/bin/gnu/h-i686-mingw32/bin/../lib/gcc/nios2-elf/4.7.3/mno-hw-mul\libgcc.a(_lt_df.o)
 .comment       0x00000000       0x24 c:/altera/13.1/nios2eds/bin/gnu/h-i686-mingw32/bin/../lib/gcc/nios2-elf/4.7.3/mno-hw-mul\libgcc.a(_si_to_df.o)
 .comment       0x00000000       0x24 c:/altera/13.1/nios2eds/bin/gnu/h-i686-mingw32/bin/../lib/gcc/nios2-elf/4.7.3/mno-hw-mul\libgcc.a(_muldi3.o)
 .comment       0x00000000       0x24 ../Controller_sw_bsp/\libhal_bsp.a(alt_close.o)
 .comment       0x00000000       0x24 ../Controller_sw_bsp/\libhal_bsp.a(alt_dev.o)
 .comment       0x00000000       0x24 ../Controller_sw_bsp/\libhal_bsp.a(alt_errno.o)
 .comment       0x00000000       0x24 ../Controller_sw_bsp/\libhal_bsp.a(alt_fstat.o)
 .comment       0x00000000       0x24 ../Controller_sw_bsp/\libhal_bsp.a(alt_iic.o)
 .comment       0x00000000       0x24 ../Controller_sw_bsp/\libhal_bsp.a(alt_iic_isr_register.o)
 .comment       0x00000000       0x24 ../Controller_sw_bsp/\libhal_bsp.a(alt_irq_handler.o)
 .comment       0x00000000       0x24 ../Controller_sw_bsp/\libhal_bsp.a(alt_irq_vars.o)
 .comment       0x00000000       0x24 ../Controller_sw_bsp/\libhal_bsp.a(alt_isatty.o)
 .comment       0x00000000       0x24 ../Controller_sw_bsp/\libhal_bsp.a(alt_lseek.o)
 .comment       0x00000000       0x24 ../Controller_sw_bsp/\libhal_bsp.a(alt_main.o)
 .comment       0x00000000       0x24 ../Controller_sw_bsp/\libhal_bsp.a(alt_malloc_lock.o)
 .comment       0x00000000       0x24 ../Controller_sw_bsp/\libhal_bsp.a(alt_read.o)
 .comment       0x00000000       0x24 ../Controller_sw_bsp/\libhal_bsp.a(alt_release_fd.o)
 .comment       0x00000000       0x24 ../Controller_sw_bsp/\libhal_bsp.a(alt_sbrk.o)
 .comment       0x00000000       0x24 ../Controller_sw_bsp/\libhal_bsp.a(alt_write.o)
 .comment       0x00000000       0x24 ../Controller_sw_bsp/\libhal_bsp.a(alt_sys_init.o)
 .comment       0x00000000       0x24 ../Controller_sw_bsp/\libhal_bsp.a(altera_avalon_epcs_flash_controller.o)
 .comment       0x00000000       0x24 ../Controller_sw_bsp/\libhal_bsp.a(altera_avalon_jtag_uart_fd.o)
 .comment       0x00000000       0x24 ../Controller_sw_bsp/\libhal_bsp.a(altera_avalon_jtag_uart_init.o)
 .comment       0x00000000       0x24 ../Controller_sw_bsp/\libhal_bsp.a(altera_avalon_jtag_uart_ioctl.o)
 .comment       0x00000000       0x24 ../Controller_sw_bsp/\libhal_bsp.a(altera_avalon_jtag_uart_read.o)
 .comment       0x00000000       0x24 ../Controller_sw_bsp/\libhal_bsp.a(altera_avalon_jtag_uart_write.o)
 .comment       0x00000000       0x24 ../Controller_sw_bsp/\libhal_bsp.a(altera_avalon_uart_fd.o)
 .comment       0x00000000       0x24 ../Controller_sw_bsp/\libhal_bsp.a(altera_avalon_uart_init.o)
 .comment       0x00000000       0x24 ../Controller_sw_bsp/\libhal_bsp.a(altera_avalon_uart_read.o)
 .comment       0x00000000       0x24 ../Controller_sw_bsp/\libhal_bsp.a(altera_avalon_uart_write.o)
 .comment       0x00000000       0x24 ../Controller_sw_bsp/\libhal_bsp.a(epcs_commands.o)
 .comment       0x00000000       0x24 ../Controller_sw_bsp/\libhal_bsp.a(alt_alarm_start.o)
 .comment       0x00000000       0x24 ../Controller_sw_bsp/\libhal_bsp.a(alt_dev_llist_insert.o)
 .comment       0x00000000       0x24 ../Controller_sw_bsp/\libhal_bsp.a(alt_do_ctors.o)
 .comment       0x00000000       0x24 ../Controller_sw_bsp/\libhal_bsp.a(alt_do_dtors.o)
 .comment       0x00000000       0x24 ../Controller_sw_bsp/\libhal_bsp.a(alt_flash_dev.o)
 .comment       0x00000000       0x24 ../Controller_sw_bsp/\libhal_bsp.a(alt_io_redirect.o)
 .comment       0x00000000       0x24 ../Controller_sw_bsp/\libhal_bsp.a(alt_open.o)
 .comment       0x00000000       0x24 ../Controller_sw_bsp/\libhal_bsp.a(alt_tick.o)
 .comment       0x00000000       0x24 ../Controller_sw_bsp/\libhal_bsp.a(altera_nios2_qsys_irq.o)
 .comment       0x00000000       0x24 ../Controller_sw_bsp/\libhal_bsp.a(altera_avalon_spi.o)
 .comment       0x00000000       0x24 ../Controller_sw_bsp/\libhal_bsp.a(alt_find_dev.o)
 .comment       0x00000000       0x24 ../Controller_sw_bsp/\libhal_bsp.a(alt_find_file.o)
 .comment       0x00000000       0x24 ../Controller_sw_bsp/\libhal_bsp.a(alt_get_fd.o)
 .comment       0x00000000       0x24 c:/altera/13.1/nios2eds/bin/gnu/h-i686-mingw32/bin/../lib/gcc/nios2-elf/4.7.3/../../../../../H-i686-mingw32/nios2-elf/lib/mno-hw-mul\libc.a(lib_a-atexit.o)
 .comment       0x00000000       0x24 c:/altera/13.1/nios2eds/bin/gnu/h-i686-mingw32/bin/../lib/gcc/nios2-elf/4.7.3/../../../../../H-i686-mingw32/nios2-elf/lib/mno-hw-mul\libc.a(lib_a-exit.o)
 .comment       0x00000000       0x24 c:/altera/13.1/nios2eds/bin/gnu/h-i686-mingw32/bin/../lib/gcc/nios2-elf/4.7.3/../../../../../H-i686-mingw32/nios2-elf/lib/mno-hw-mul\libc.a(lib_a-memcmp.o)
 .comment       0x00000000       0x24 c:/altera/13.1/nios2eds/bin/gnu/h-i686-mingw32/bin/../lib/gcc/nios2-elf/4.7.3/../../../../../H-i686-mingw32/nios2-elf/lib/mno-hw-mul\libc.a(lib_a-__atexit.o)
 .comment       0x00000000       0x24 c:/altera/13.1/nios2eds/bin/gnu/h-i686-mingw32/bin/../lib/gcc/nios2-elf/4.7.3/../../../../../H-i686-mingw32/nios2-elf/lib/mno-hw-mul\libc.a(lib_a-__call_atexit.o)
 .comment       0x00000000       0x24 ../Controller_sw_bsp/\libhal_bsp.a(alt_exit.o)

.debug
 *(.debug)

.line
 *(.line)

.debug_srcinfo
 *(.debug_srcinfo)

.debug_sfnames
 *(.debug_sfnames)

.debug_aranges  0x00000000     0x1178
 *(.debug_aranges)
 .debug_aranges
                0x00000000       0x20 ../Controller_sw_bsp//obj/HAL/src/crt0.o
 .debug_aranges
                0x00000020       0x20 obj/default/driver/Counter.o
 .debug_aranges
                0x00000040       0x20 obj/default/driver/DisDriver.o
 .debug_aranges
                0x00000060       0x20 obj/default/driver/FRAM.o
 .debug_aranges
                0x00000080       0x20 obj/default/driver/KPLED.o
 .debug_aranges
                0x000000a0       0x20 obj/default/driver/comInterface.o
 .debug_aranges
                0x000000c0       0x20 obj/default/driver/coverPage.o
 .debug_aranges
                0x000000e0       0x20 obj/default/driver/delay.o
 .debug_aranges
                0x00000100       0x20 obj/default/driver/loadWriteData.o
 .debug_aranges
                0x00000120       0x20 obj/default/driver/powerFailure.o
 .debug_aranges
                0x00000140       0x20 obj/default/driver/uart.o
 .debug_aranges
                0x00000160       0x20 obj/default/main/TopMenu.o
 .debug_aranges
                0x00000180       0x20 obj/default/main/main.o
 .debug_aranges
                0x000001a0       0x20 obj/default/menuComponent/FireMenu.o
 .debug_aranges
                0x000001c0       0x20 obj/default/menuComponent/HeaterWarmingUp.o
 .debug_aranges
                0x000001e0       0x20 obj/default/menuComponent/ParameterMenu.o
 .debug_aranges
                0x00000200       0x20 obj/default/menuComponent/RemoteMenu.o
 .debug_aranges
                0x00000220       0x20 obj/default/menuComponent/SaveLoadMenu.o
 .debug_aranges
                0x00000240       0x20 obj/default/menuComponent/ShotCountersMenu.o
 .debug_aranges
                0x00000260       0x20 obj/default/menuComponent/ShutdownMenu.o
 .debug_aranges
                0x00000280       0x20 obj/default/menuComponent/StartupMenu.o
 .debug_aranges
                0x000002a0       0x20 obj/default/menuComponent/editNum10.o
 .debug_aranges
                0x000002c0       0x20 obj/default/menuComponent/editNum2.o
 .debug_aranges
                0x000002e0       0x20 obj/default/menuComponent/editNum5.o
 .debug_aranges
                0x00000300       0x20 obj/default/menuComponent/enterPWD.o
 .debug_aranges
                0x00000320       0x20 obj/default/menuComponent/errorCheck.o
 .debug_aranges
                0x00000340       0x20 obj/default/menuComponent/pwdPage.o
 .debug_aranges
                0x00000360       0x20 obj/default/menuComponent/repPage.o
 .debug_aranges
                0x00000380       0x20 obj/default/menuComponent/shotPage.o
 .debug_aranges
                0x000003a0       0x20 obj/default/menuComponent/timingPage.o
 .debug_aranges
                0x000003c0       0x20 c:/altera/13.1/nios2eds/bin/gnu/h-i686-mingw32/bin/../lib/gcc/nios2-elf/4.7.3/mno-hw-mul\libgcc.a(_fixunsdfsi.o)
 .debug_aranges
                0x000003e0       0x20 c:/altera/13.1/nios2eds/bin/gnu/h-i686-mingw32/bin/../lib/gcc/nios2-elf/4.7.3/mno-hw-mul\libgcc.a(_addsub_df.o)
 .debug_aranges
                0x00000400       0x20 c:/altera/13.1/nios2eds/bin/gnu/h-i686-mingw32/bin/../lib/gcc/nios2-elf/4.7.3/mno-hw-mul\libgcc.a(_ge_df.o)
 .debug_aranges
                0x00000420       0x20 c:/altera/13.1/nios2eds/bin/gnu/h-i686-mingw32/bin/../lib/gcc/nios2-elf/4.7.3/mno-hw-mul\libgcc.a(_df_to_si.o)
 .debug_aranges
                0x00000440       0x18 c:/altera/13.1/nios2eds/bin/gnu/h-i686-mingw32/bin/../lib/gcc/nios2-elf/4.7.3/mno-hw-mul\libgcc.a(_thenan_df.o)
 .debug_aranges
                0x00000458       0x20 c:/altera/13.1/nios2eds/bin/gnu/h-i686-mingw32/bin/../lib/gcc/nios2-elf/4.7.3/mno-hw-mul\libgcc.a(_usi_to_df.o)
 .debug_aranges
                0x00000478       0x20 c:/altera/13.1/nios2eds/bin/gnu/h-i686-mingw32/bin/../lib/gcc/nios2-elf/4.7.3/mno-hw-mul\libgcc.a(lib2-divmod.o)
 .debug_aranges
                0x00000498       0x20 c:/altera/13.1/nios2eds/bin/gnu/h-i686-mingw32/bin/../lib/gcc/nios2-elf/4.7.3/mno-hw-mul\libgcc.a(lib2-mul.o)
 .debug_aranges
                0x000004b8       0x20 c:/altera/13.1/nios2eds/bin/gnu/h-i686-mingw32/bin/../lib/gcc/nios2-elf/4.7.3/mno-hw-mul\libgcc.a(_clzsi2.o)
 .debug_aranges
                0x000004d8       0x20 c:/altera/13.1/nios2eds/bin/gnu/h-i686-mingw32/bin/../lib/gcc/nios2-elf/4.7.3/mno-hw-mul\libgcc.a(_pack_df.o)
 .debug_aranges
                0x000004f8       0x20 c:/altera/13.1/nios2eds/bin/gnu/h-i686-mingw32/bin/../lib/gcc/nios2-elf/4.7.3/mno-hw-mul\libgcc.a(_unpack_df.o)
 .debug_aranges
                0x00000518       0x20 c:/altera/13.1/nios2eds/bin/gnu/h-i686-mingw32/bin/../lib/gcc/nios2-elf/4.7.3/mno-hw-mul\libgcc.a(_fpcmp_parts_df.o)
 .debug_aranges
                0x00000538       0x20 c:/altera/13.1/nios2eds/bin/gnu/h-i686-mingw32/bin/../lib/gcc/nios2-elf/4.7.3/mno-hw-mul\libgcc.a(_lshrdi3.o)
 .debug_aranges
                0x00000558       0x20 c:/altera/13.1/nios2eds/bin/gnu/h-i686-mingw32/bin/../lib/gcc/nios2-elf/4.7.3/mno-hw-mul\libgcc.a(_ashldi3.o)
 .debug_aranges
                0x00000578       0x18 c:/altera/13.1/nios2eds/bin/gnu/h-i686-mingw32/bin/../lib/gcc/nios2-elf/4.7.3/mno-hw-mul\libgcc.a(_clz.o)
 .debug_aranges
                0x00000590       0x20 c:/altera/13.1/nios2eds/bin/gnu/h-i686-mingw32/bin/../lib/gcc/nios2-elf/4.7.3/../../../../../H-i686-mingw32/nios2-elf/lib/mno-hw-mul\libc.a(lib_a-printf.o)
 .debug_aranges
                0x000005b0       0x20 c:/altera/13.1/nios2eds/bin/gnu/h-i686-mingw32/bin/../lib/gcc/nios2-elf/4.7.3/../../../../../H-i686-mingw32/nios2-elf/lib/mno-hw-mul\libc.a(lib_a-puts.o)
 .debug_aranges
                0x000005d0       0x20 c:/altera/13.1/nios2eds/bin/gnu/h-i686-mingw32/bin/../lib/gcc/nios2-elf/4.7.3/../../../../../H-i686-mingw32/nios2-elf/lib/mno-hw-mul\libc.a(lib_a-sprintf.o)
 .debug_aranges
                0x000005f0       0x20 c:/altera/13.1/nios2eds/bin/gnu/h-i686-mingw32/bin/../lib/gcc/nios2-elf/4.7.3/../../../../../H-i686-mingw32/nios2-elf/lib/mno-hw-mul\libc.a(lib_a-strlen.o)
 .debug_aranges
                0x00000610       0x20 c:/altera/13.1/nios2eds/bin/gnu/h-i686-mingw32/bin/../lib/gcc/nios2-elf/4.7.3/../../../../../H-i686-mingw32/nios2-elf/lib/mno-hw-mul\libc.a(lib_a-vfprintf.o)
 .debug_aranges
                0x00000630       0x20 c:/altera/13.1/nios2eds/bin/gnu/h-i686-mingw32/bin/../lib/gcc/nios2-elf/4.7.3/../../../../../H-i686-mingw32/nios2-elf/lib/mno-hw-mul\libc.a(lib_a-wsetup.o)
 .debug_aranges
                0x00000650       0x20 c:/altera/13.1/nios2eds/bin/gnu/h-i686-mingw32/bin/../lib/gcc/nios2-elf/4.7.3/../../../../../H-i686-mingw32/nios2-elf/lib/mno-hw-mul\libc.a(lib_a-dtoa.o)
 .debug_aranges
                0x00000670       0x20 c:/altera/13.1/nios2eds/bin/gnu/h-i686-mingw32/bin/../lib/gcc/nios2-elf/4.7.3/../../../../../H-i686-mingw32/nios2-elf/lib/mno-hw-mul\libc.a(lib_a-fflush.o)
 .debug_aranges
                0x00000690       0x20 c:/altera/13.1/nios2eds/bin/gnu/h-i686-mingw32/bin/../lib/gcc/nios2-elf/4.7.3/../../../../../H-i686-mingw32/nios2-elf/lib/mno-hw-mul\libc.a(lib_a-findfp.o)
 .debug_aranges
                0x000006b0       0x20 c:/altera/13.1/nios2eds/bin/gnu/h-i686-mingw32/bin/../lib/gcc/nios2-elf/4.7.3/../../../../../H-i686-mingw32/nios2-elf/lib/mno-hw-mul\libc.a(lib_a-freer.o)
 .debug_aranges
                0x000006d0       0x20 c:/altera/13.1/nios2eds/bin/gnu/h-i686-mingw32/bin/../lib/gcc/nios2-elf/4.7.3/../../../../../H-i686-mingw32/nios2-elf/lib/mno-hw-mul\libc.a(lib_a-fvwrite.o)
 .debug_aranges
                0x000006f0       0x20 c:/altera/13.1/nios2eds/bin/gnu/h-i686-mingw32/bin/../lib/gcc/nios2-elf/4.7.3/../../../../../H-i686-mingw32/nios2-elf/lib/mno-hw-mul\libc.a(lib_a-fwalk.o)
 .debug_aranges
                0x00000710       0x18 c:/altera/13.1/nios2eds/bin/gnu/h-i686-mingw32/bin/../lib/gcc/nios2-elf/4.7.3/../../../../../H-i686-mingw32/nios2-elf/lib/mno-hw-mul\libc.a(lib_a-impure.o)
 .debug_aranges
                0x00000728       0x20 c:/altera/13.1/nios2eds/bin/gnu/h-i686-mingw32/bin/../lib/gcc/nios2-elf/4.7.3/../../../../../H-i686-mingw32/nios2-elf/lib/mno-hw-mul\libc.a(lib_a-locale.o)
 .debug_aranges
                0x00000748       0x20 c:/altera/13.1/nios2eds/bin/gnu/h-i686-mingw32/bin/../lib/gcc/nios2-elf/4.7.3/../../../../../H-i686-mingw32/nios2-elf/lib/mno-hw-mul\libc.a(lib_a-makebuf.o)
 .debug_aranges
                0x00000768       0x20 c:/altera/13.1/nios2eds/bin/gnu/h-i686-mingw32/bin/../lib/gcc/nios2-elf/4.7.3/../../../../../H-i686-mingw32/nios2-elf/lib/mno-hw-mul\libc.a(lib_a-mallocr.o)
 .debug_aranges
                0x00000788       0x20 c:/altera/13.1/nios2eds/bin/gnu/h-i686-mingw32/bin/../lib/gcc/nios2-elf/4.7.3/../../../../../H-i686-mingw32/nios2-elf/lib/mno-hw-mul\libc.a(lib_a-memchr.o)
 .debug_aranges
                0x000007a8       0x20 c:/altera/13.1/nios2eds/bin/gnu/h-i686-mingw32/bin/../lib/gcc/nios2-elf/4.7.3/../../../../../H-i686-mingw32/nios2-elf/lib/mno-hw-mul\libc.a(lib_a-memcpy.o)
 .debug_aranges
                0x000007c8       0x20 c:/altera/13.1/nios2eds/bin/gnu/h-i686-mingw32/bin/../lib/gcc/nios2-elf/4.7.3/../../../../../H-i686-mingw32/nios2-elf/lib/mno-hw-mul\libc.a(lib_a-memmove.o)
 .debug_aranges
                0x000007e8       0x20 c:/altera/13.1/nios2eds/bin/gnu/h-i686-mingw32/bin/../lib/gcc/nios2-elf/4.7.3/../../../../../H-i686-mingw32/nios2-elf/lib/mno-hw-mul\libc.a(lib_a-memset.o)
 .debug_aranges
                0x00000808       0x20 c:/altera/13.1/nios2eds/bin/gnu/h-i686-mingw32/bin/../lib/gcc/nios2-elf/4.7.3/../../../../../H-i686-mingw32/nios2-elf/lib/mno-hw-mul\libc.a(lib_a-mprec.o)
 .debug_aranges
                0x00000828       0x20 c:/altera/13.1/nios2eds/bin/gnu/h-i686-mingw32/bin/../lib/gcc/nios2-elf/4.7.3/../../../../../H-i686-mingw32/nios2-elf/lib/mno-hw-mul\libc.a(lib_a-reallocr.o)
 .debug_aranges
                0x00000848       0x20 c:/altera/13.1/nios2eds/bin/gnu/h-i686-mingw32/bin/../lib/gcc/nios2-elf/4.7.3/../../../../../H-i686-mingw32/nios2-elf/lib/mno-hw-mul\libc.a(lib_a-s_isinfd.o)
 .debug_aranges
                0x00000868       0x20 c:/altera/13.1/nios2eds/bin/gnu/h-i686-mingw32/bin/../lib/gcc/nios2-elf/4.7.3/../../../../../H-i686-mingw32/nios2-elf/lib/mno-hw-mul\libc.a(lib_a-s_isnand.o)
 .debug_aranges
                0x00000888       0x20 c:/altera/13.1/nios2eds/bin/gnu/h-i686-mingw32/bin/../lib/gcc/nios2-elf/4.7.3/../../../../../H-i686-mingw32/nios2-elf/lib/mno-hw-mul\libc.a(lib_a-sbrkr.o)
 .debug_aranges
                0x000008a8       0x20 c:/altera/13.1/nios2eds/bin/gnu/h-i686-mingw32/bin/../lib/gcc/nios2-elf/4.7.3/../../../../../H-i686-mingw32/nios2-elf/lib/mno-hw-mul\libc.a(lib_a-stdio.o)
 .debug_aranges
                0x000008c8       0x20 c:/altera/13.1/nios2eds/bin/gnu/h-i686-mingw32/bin/../lib/gcc/nios2-elf/4.7.3/../../../../../H-i686-mingw32/nios2-elf/lib/mno-hw-mul\libc.a(lib_a-strcmp.o)
 .debug_aranges
                0x000008e8       0x20 c:/altera/13.1/nios2eds/bin/gnu/h-i686-mingw32/bin/../lib/gcc/nios2-elf/4.7.3/../../../../../H-i686-mingw32/nios2-elf/lib/mno-hw-mul\libc.a(lib_a-writer.o)
 .debug_aranges
                0x00000908       0x20 c:/altera/13.1/nios2eds/bin/gnu/h-i686-mingw32/bin/../lib/gcc/nios2-elf/4.7.3/../../../../../H-i686-mingw32/nios2-elf/lib/mno-hw-mul\libc.a(lib_a-callocr.o)
 .debug_aranges
                0x00000928       0x20 c:/altera/13.1/nios2eds/bin/gnu/h-i686-mingw32/bin/../lib/gcc/nios2-elf/4.7.3/../../../../../H-i686-mingw32/nios2-elf/lib/mno-hw-mul\libc.a(lib_a-closer.o)
 .debug_aranges
                0x00000948       0x20 c:/altera/13.1/nios2eds/bin/gnu/h-i686-mingw32/bin/../lib/gcc/nios2-elf/4.7.3/../../../../../H-i686-mingw32/nios2-elf/lib/mno-hw-mul\libc.a(lib_a-fclose.o)
 .debug_aranges
                0x00000968       0x20 c:/altera/13.1/nios2eds/bin/gnu/h-i686-mingw32/bin/../lib/gcc/nios2-elf/4.7.3/../../../../../H-i686-mingw32/nios2-elf/lib/mno-hw-mul\libc.a(lib_a-fstatr.o)
 .debug_aranges
                0x00000988       0x18 c:/altera/13.1/nios2eds/bin/gnu/h-i686-mingw32/bin/../lib/gcc/nios2-elf/4.7.3/../../../../../H-i686-mingw32/nios2-elf/lib/mno-hw-mul\libc.a(lib_a-int_errno.o)
 .debug_aranges
                0x000009a0       0x20 c:/altera/13.1/nios2eds/bin/gnu/h-i686-mingw32/bin/../lib/gcc/nios2-elf/4.7.3/../../../../../H-i686-mingw32/nios2-elf/lib/mno-hw-mul\libc.a(lib_a-isattyr.o)
 .debug_aranges
                0x000009c0       0x20 c:/altera/13.1/nios2eds/bin/gnu/h-i686-mingw32/bin/../lib/gcc/nios2-elf/4.7.3/../../../../../H-i686-mingw32/nios2-elf/lib/mno-hw-mul\libc.a(lib_a-lseekr.o)
 .debug_aranges
                0x000009e0       0x20 c:/altera/13.1/nios2eds/bin/gnu/h-i686-mingw32/bin/../lib/gcc/nios2-elf/4.7.3/../../../../../H-i686-mingw32/nios2-elf/lib/mno-hw-mul\libc.a(lib_a-readr.o)
 .debug_aranges
                0x00000a00       0x20 c:/altera/13.1/nios2eds/bin/gnu/h-i686-mingw32/bin/../lib/gcc/nios2-elf/4.7.3/mno-hw-mul\libgcc.a(_udivdi3.o)
 .debug_aranges
                0x00000a20       0x20 c:/altera/13.1/nios2eds/bin/gnu/h-i686-mingw32/bin/../lib/gcc/nios2-elf/4.7.3/mno-hw-mul\libgcc.a(_umoddi3.o)
 .debug_aranges
                0x00000a40       0x20 c:/altera/13.1/nios2eds/bin/gnu/h-i686-mingw32/bin/../lib/gcc/nios2-elf/4.7.3/mno-hw-mul\libgcc.a(_mul_df.o)
 .debug_aranges
                0x00000a60       0x20 c:/altera/13.1/nios2eds/bin/gnu/h-i686-mingw32/bin/../lib/gcc/nios2-elf/4.7.3/mno-hw-mul\libgcc.a(_div_df.o)
 .debug_aranges
                0x00000a80       0x20 c:/altera/13.1/nios2eds/bin/gnu/h-i686-mingw32/bin/../lib/gcc/nios2-elf/4.7.3/mno-hw-mul\libgcc.a(_eq_df.o)
 .debug_aranges
                0x00000aa0       0x20 c:/altera/13.1/nios2eds/bin/gnu/h-i686-mingw32/bin/../lib/gcc/nios2-elf/4.7.3/mno-hw-mul\libgcc.a(_ne_df.o)
 .debug_aranges
                0x00000ac0       0x20 c:/altera/13.1/nios2eds/bin/gnu/h-i686-mingw32/bin/../lib/gcc/nios2-elf/4.7.3/mno-hw-mul\libgcc.a(_gt_df.o)
 .debug_aranges
                0x00000ae0       0x20 c:/altera/13.1/nios2eds/bin/gnu/h-i686-mingw32/bin/../lib/gcc/nios2-elf/4.7.3/mno-hw-mul\libgcc.a(_lt_df.o)
 .debug_aranges
                0x00000b00       0x20 c:/altera/13.1/nios2eds/bin/gnu/h-i686-mingw32/bin/../lib/gcc/nios2-elf/4.7.3/mno-hw-mul\libgcc.a(_si_to_df.o)
 .debug_aranges
                0x00000b20       0x20 c:/altera/13.1/nios2eds/bin/gnu/h-i686-mingw32/bin/../lib/gcc/nios2-elf/4.7.3/mno-hw-mul\libgcc.a(_muldi3.o)
 .debug_aranges
                0x00000b40       0x20 ../Controller_sw_bsp/\libhal_bsp.a(alt_close.o)
 .debug_aranges
                0x00000b60       0x20 ../Controller_sw_bsp/\libhal_bsp.a(alt_dev.o)
 .debug_aranges
                0x00000b80       0x18 ../Controller_sw_bsp/\libhal_bsp.a(alt_errno.o)
 .debug_aranges
                0x00000b98       0x20 ../Controller_sw_bsp/\libhal_bsp.a(alt_fstat.o)
 .debug_aranges
                0x00000bb8       0x20 ../Controller_sw_bsp/\libhal_bsp.a(alt_iic.o)
 .debug_aranges
                0x00000bd8       0x20 ../Controller_sw_bsp/\libhal_bsp.a(alt_iic_isr_register.o)
 .debug_aranges
                0x00000bf8       0x30 ../Controller_sw_bsp/\libhal_bsp.a(alt_irq_entry.o)
 .debug_aranges
                0x00000c28       0x20 ../Controller_sw_bsp/\libhal_bsp.a(alt_irq_handler.o)
 .debug_aranges
                0x00000c48       0x18 ../Controller_sw_bsp/\libhal_bsp.a(alt_irq_vars.o)
 .debug_aranges
                0x00000c60       0x20 ../Controller_sw_bsp/\libhal_bsp.a(alt_isatty.o)
 .debug_aranges
                0x00000c80       0x20 ../Controller_sw_bsp/\libhal_bsp.a(alt_lseek.o)
 .debug_aranges
                0x00000ca0       0x20 ../Controller_sw_bsp/\libhal_bsp.a(alt_main.o)
 .debug_aranges
                0x00000cc0       0x20 ../Controller_sw_bsp/\libhal_bsp.a(alt_malloc_lock.o)
 .debug_aranges
                0x00000ce0       0x20 ../Controller_sw_bsp/\libhal_bsp.a(alt_read.o)
 .debug_aranges
                0x00000d00       0x20 ../Controller_sw_bsp/\libhal_bsp.a(alt_release_fd.o)
 .debug_aranges
                0x00000d20       0x20 ../Controller_sw_bsp/\libhal_bsp.a(alt_sbrk.o)
 .debug_aranges
                0x00000d40       0x20 ../Controller_sw_bsp/\libhal_bsp.a(alt_write.o)
 .debug_aranges
                0x00000d60       0x20 ../Controller_sw_bsp/\libhal_bsp.a(alt_sys_init.o)
 .debug_aranges
                0x00000d80       0x20 ../Controller_sw_bsp/\libhal_bsp.a(altera_avalon_epcs_flash_controller.o)
 .debug_aranges
                0x00000da0       0x20 ../Controller_sw_bsp/\libhal_bsp.a(altera_avalon_jtag_uart_fd.o)
 .debug_aranges
                0x00000dc0       0x20 ../Controller_sw_bsp/\libhal_bsp.a(altera_avalon_jtag_uart_init.o)
 .debug_aranges
                0x00000de0       0x20 ../Controller_sw_bsp/\libhal_bsp.a(altera_avalon_jtag_uart_ioctl.o)
 .debug_aranges
                0x00000e00       0x20 ../Controller_sw_bsp/\libhal_bsp.a(altera_avalon_jtag_uart_read.o)
 .debug_aranges
                0x00000e20       0x20 ../Controller_sw_bsp/\libhal_bsp.a(altera_avalon_jtag_uart_write.o)
 .debug_aranges
                0x00000e40       0x20 ../Controller_sw_bsp/\libhal_bsp.a(altera_avalon_uart_fd.o)
 .debug_aranges
                0x00000e60       0x20 ../Controller_sw_bsp/\libhal_bsp.a(altera_avalon_uart_init.o)
 .debug_aranges
                0x00000e80       0x20 ../Controller_sw_bsp/\libhal_bsp.a(altera_avalon_uart_read.o)
 .debug_aranges
                0x00000ea0       0x20 ../Controller_sw_bsp/\libhal_bsp.a(altera_avalon_uart_write.o)
 .debug_aranges
                0x00000ec0       0x20 ../Controller_sw_bsp/\libhal_bsp.a(epcs_commands.o)
 .debug_aranges
                0x00000ee0       0x20 ../Controller_sw_bsp/\libhal_bsp.a(alt_alarm_start.o)
 .debug_aranges
                0x00000f00       0x20 ../Controller_sw_bsp/\libhal_bsp.a(alt_dev_llist_insert.o)
 .debug_aranges
                0x00000f20       0x20 ../Controller_sw_bsp/\libhal_bsp.a(alt_do_ctors.o)
 .debug_aranges
                0x00000f40       0x20 ../Controller_sw_bsp/\libhal_bsp.a(alt_do_dtors.o)
 .debug_aranges
                0x00000f60       0x38 ../Controller_sw_bsp/\libhal_bsp.a(alt_exception_entry.o)
 .debug_aranges
                0x00000f98       0x20 ../Controller_sw_bsp/\libhal_bsp.a(alt_flash_dev.o)
 .debug_aranges
                0x00000fb8       0x20 ../Controller_sw_bsp/\libhal_bsp.a(alt_io_redirect.o)
 .debug_aranges
                0x00000fd8       0x20 ../Controller_sw_bsp/\libhal_bsp.a(alt_open.o)
 .debug_aranges
                0x00000ff8       0x20 ../Controller_sw_bsp/\libhal_bsp.a(alt_tick.o)
 .debug_aranges
                0x00001018       0x20 ../Controller_sw_bsp/\libhal_bsp.a(altera_nios2_qsys_irq.o)
 .debug_aranges
                0x00001038       0x20 ../Controller_sw_bsp/\libhal_bsp.a(altera_avalon_spi.o)
 .debug_aranges
                0x00001058       0x20 ../Controller_sw_bsp/\libhal_bsp.a(alt_find_dev.o)
 .debug_aranges
                0x00001078       0x20 ../Controller_sw_bsp/\libhal_bsp.a(alt_find_file.o)
 .debug_aranges
                0x00001098       0x20 ../Controller_sw_bsp/\libhal_bsp.a(alt_get_fd.o)
 .debug_aranges
                0x000010b8       0x20 c:/altera/13.1/nios2eds/bin/gnu/h-i686-mingw32/bin/../lib/gcc/nios2-elf/4.7.3/../../../../../H-i686-mingw32/nios2-elf/lib/mno-hw-mul\libc.a(lib_a-atexit.o)
 .debug_aranges
                0x000010d8       0x20 c:/altera/13.1/nios2eds/bin/gnu/h-i686-mingw32/bin/../lib/gcc/nios2-elf/4.7.3/../../../../../H-i686-mingw32/nios2-elf/lib/mno-hw-mul\libc.a(lib_a-exit.o)
 .debug_aranges
                0x000010f8       0x20 c:/altera/13.1/nios2eds/bin/gnu/h-i686-mingw32/bin/../lib/gcc/nios2-elf/4.7.3/../../../../../H-i686-mingw32/nios2-elf/lib/mno-hw-mul\libc.a(lib_a-memcmp.o)
 .debug_aranges
                0x00001118       0x20 c:/altera/13.1/nios2eds/bin/gnu/h-i686-mingw32/bin/../lib/gcc/nios2-elf/4.7.3/../../../../../H-i686-mingw32/nios2-elf/lib/mno-hw-mul\libc.a(lib_a-__atexit.o)
 .debug_aranges
                0x00001138       0x20 c:/altera/13.1/nios2eds/bin/gnu/h-i686-mingw32/bin/../lib/gcc/nios2-elf/4.7.3/../../../../../H-i686-mingw32/nios2-elf/lib/mno-hw-mul\libc.a(lib_a-__call_atexit.o)
 .debug_aranges
                0x00001158       0x20 ../Controller_sw_bsp/\libhal_bsp.a(alt_exit.o)

.debug_pubnames
 *(.debug_pubnames)

.debug_info     0x00000000    0x27e62
 *(.debug_info .gnu.linkonce.wi.*)
 .debug_info    0x00000000       0x85 ../Controller_sw_bsp//obj/HAL/src/crt0.o
 .debug_info    0x00000085      0x153 obj/default/driver/Counter.o
 .debug_info    0x000001d8      0x1d9 obj/default/driver/DisDriver.o
 .debug_info    0x000003b1      0x252 obj/default/driver/FRAM.o
 .debug_info    0x00000603      0x1f7 obj/default/driver/KPLED.o
 .debug_info    0x000007fa      0x390 obj/default/driver/comInterface.o
 .debug_info    0x00000b8a       0xc6 obj/default/driver/coverPage.o
 .debug_info    0x00000c50       0x6c obj/default/driver/delay.o
 .debug_info    0x00000cbc      0x23e obj/default/driver/loadWriteData.o
 .debug_info    0x00000efa       0xd3 obj/default/driver/powerFailure.o
 .debug_info    0x00000fcd      0x5a0 obj/default/driver/uart.o
 .debug_info    0x0000156d      0x12f obj/default/main/TopMenu.o
 .debug_info    0x0000169c       0xa3 obj/default/main/main.o
 .debug_info    0x0000173f      0x329 obj/default/menuComponent/FireMenu.o
 .debug_info    0x00001a68       0x92 obj/default/menuComponent/HeaterWarmingUp.o
 .debug_info    0x00001afa       0xda obj/default/menuComponent/ParameterMenu.o
 .debug_info    0x00001bd4       0xa2 obj/default/menuComponent/RemoteMenu.o
 .debug_info    0x00001c76      0x165 obj/default/menuComponent/SaveLoadMenu.o
 .debug_info    0x00001ddb      0x136 obj/default/menuComponent/ShotCountersMenu.o
 .debug_info    0x00001f11      0x125 obj/default/menuComponent/ShutdownMenu.o
 .debug_info    0x00002036      0x146 obj/default/menuComponent/StartupMenu.o
 .debug_info    0x0000217c      0x203 obj/default/menuComponent/editNum10.o
 .debug_info    0x0000237f      0x14d obj/default/menuComponent/editNum2.o
 .debug_info    0x000024cc      0x14d obj/default/menuComponent/editNum5.o
 .debug_info    0x00002619      0x115 obj/default/menuComponent/enterPWD.o
 .debug_info    0x0000272e      0x285 obj/default/menuComponent/errorCheck.o
 .debug_info    0x000029b3       0x61 obj/default/menuComponent/pwdPage.o
 .debug_info    0x00002a14       0x87 obj/default/menuComponent/repPage.o
 .debug_info    0x00002a9b       0x9d obj/default/menuComponent/shotPage.o
 .debug_info    0x00002b38      0x1a4 obj/default/menuComponent/timingPage.o
 .debug_info    0x00002cdc       0xc5 c:/altera/13.1/nios2eds/bin/gnu/h-i686-mingw32/bin/../lib/gcc/nios2-elf/4.7.3/mno-hw-mul\libgcc.a(_fixunsdfsi.o)
 .debug_info    0x00002da1      0x588 c:/altera/13.1/nios2eds/bin/gnu/h-i686-mingw32/bin/../lib/gcc/nios2-elf/4.7.3/mno-hw-mul\libgcc.a(_addsub_df.o)
 .debug_info    0x00003329      0x320 c:/altera/13.1/nios2eds/bin/gnu/h-i686-mingw32/bin/../lib/gcc/nios2-elf/4.7.3/mno-hw-mul\libgcc.a(_ge_df.o)
 .debug_info    0x00003649      0x30b c:/altera/13.1/nios2eds/bin/gnu/h-i686-mingw32/bin/../lib/gcc/nios2-elf/4.7.3/mno-hw-mul\libgcc.a(_df_to_si.o)
 .debug_info    0x00003954      0x155 c:/altera/13.1/nios2eds/bin/gnu/h-i686-mingw32/bin/../lib/gcc/nios2-elf/4.7.3/mno-hw-mul\libgcc.a(_thenan_df.o)
 .debug_info    0x00003aa9      0x284 c:/altera/13.1/nios2eds/bin/gnu/h-i686-mingw32/bin/../lib/gcc/nios2-elf/4.7.3/mno-hw-mul\libgcc.a(_usi_to_df.o)
 .debug_info    0x00003d2d      0x289 c:/altera/13.1/nios2eds/bin/gnu/h-i686-mingw32/bin/../lib/gcc/nios2-elf/4.7.3/mno-hw-mul\libgcc.a(lib2-divmod.o)
 .debug_info    0x00003fb6       0xb8 c:/altera/13.1/nios2eds/bin/gnu/h-i686-mingw32/bin/../lib/gcc/nios2-elf/4.7.3/mno-hw-mul\libgcc.a(lib2-mul.o)
 .debug_info    0x0000406e      0x123 c:/altera/13.1/nios2eds/bin/gnu/h-i686-mingw32/bin/../lib/gcc/nios2-elf/4.7.3/mno-hw-mul\libgcc.a(_clzsi2.o)
 .debug_info    0x00004191      0x2f7 c:/altera/13.1/nios2eds/bin/gnu/h-i686-mingw32/bin/../lib/gcc/nios2-elf/4.7.3/mno-hw-mul\libgcc.a(_pack_df.o)
 .debug_info    0x00004488      0x265 c:/altera/13.1/nios2eds/bin/gnu/h-i686-mingw32/bin/../lib/gcc/nios2-elf/4.7.3/mno-hw-mul\libgcc.a(_unpack_df.o)
 .debug_info    0x000046ed      0x226 c:/altera/13.1/nios2eds/bin/gnu/h-i686-mingw32/bin/../lib/gcc/nios2-elf/4.7.3/mno-hw-mul\libgcc.a(_fpcmp_parts_df.o)
 .debug_info    0x00004913      0x185 c:/altera/13.1/nios2eds/bin/gnu/h-i686-mingw32/bin/../lib/gcc/nios2-elf/4.7.3/mno-hw-mul\libgcc.a(_lshrdi3.o)
 .debug_info    0x00004a98      0x185 c:/altera/13.1/nios2eds/bin/gnu/h-i686-mingw32/bin/../lib/gcc/nios2-elf/4.7.3/mno-hw-mul\libgcc.a(_ashldi3.o)
 .debug_info    0x00004c1d       0xac c:/altera/13.1/nios2eds/bin/gnu/h-i686-mingw32/bin/../lib/gcc/nios2-elf/4.7.3/mno-hw-mul\libgcc.a(_clz.o)
 .debug_info    0x00004cc9      0xa6c c:/altera/13.1/nios2eds/bin/gnu/h-i686-mingw32/bin/../lib/gcc/nios2-elf/4.7.3/../../../../../H-i686-mingw32/nios2-elf/lib/mno-hw-mul\libc.a(lib_a-printf.o)
 .debug_info    0x00005735      0xab7 c:/altera/13.1/nios2eds/bin/gnu/h-i686-mingw32/bin/../lib/gcc/nios2-elf/4.7.3/../../../../../H-i686-mingw32/nios2-elf/lib/mno-hw-mul\libc.a(lib_a-puts.o)
 .debug_info    0x000061ec      0xa8e c:/altera/13.1/nios2eds/bin/gnu/h-i686-mingw32/bin/../lib/gcc/nios2-elf/4.7.3/../../../../../H-i686-mingw32/nios2-elf/lib/mno-hw-mul\libc.a(lib_a-sprintf.o)
 .debug_info    0x00006c7a       0xdf c:/altera/13.1/nios2eds/bin/gnu/h-i686-mingw32/bin/../lib/gcc/nios2-elf/4.7.3/../../../../../H-i686-mingw32/nios2-elf/lib/mno-hw-mul\libc.a(lib_a-strlen.o)
 .debug_info    0x00006d59     0x195a c:/altera/13.1/nios2eds/bin/gnu/h-i686-mingw32/bin/../lib/gcc/nios2-elf/4.7.3/../../../../../H-i686-mingw32/nios2-elf/lib/mno-hw-mul\libc.a(lib_a-vfprintf.o)
 .debug_info    0x000086b3      0x9d4 c:/altera/13.1/nios2eds/bin/gnu/h-i686-mingw32/bin/../lib/gcc/nios2-elf/4.7.3/../../../../../H-i686-mingw32/nios2-elf/lib/mno-hw-mul\libc.a(lib_a-wsetup.o)
 .debug_info    0x00009087     0x1409 c:/altera/13.1/nios2eds/bin/gnu/h-i686-mingw32/bin/../lib/gcc/nios2-elf/4.7.3/../../../../../H-i686-mingw32/nios2-elf/lib/mno-hw-mul\libc.a(lib_a-dtoa.o)
 .debug_info    0x0000a490      0xad0 c:/altera/13.1/nios2eds/bin/gnu/h-i686-mingw32/bin/../lib/gcc/nios2-elf/4.7.3/../../../../../H-i686-mingw32/nios2-elf/lib/mno-hw-mul\libc.a(lib_a-fflush.o)
 .debug_info    0x0000af60      0xd6e c:/altera/13.1/nios2eds/bin/gnu/h-i686-mingw32/bin/../lib/gcc/nios2-elf/4.7.3/../../../../../H-i686-mingw32/nios2-elf/lib/mno-hw-mul\libc.a(lib_a-findfp.o)
 .debug_info    0x0000bcce      0xcf9 c:/altera/13.1/nios2eds/bin/gnu/h-i686-mingw32/bin/../lib/gcc/nios2-elf/4.7.3/../../../../../H-i686-mingw32/nios2-elf/lib/mno-hw-mul\libc.a(lib_a-freer.o)
 .debug_info    0x0000c9c7      0xd05 c:/altera/13.1/nios2eds/bin/gnu/h-i686-mingw32/bin/../lib/gcc/nios2-elf/4.7.3/../../../../../H-i686-mingw32/nios2-elf/lib/mno-hw-mul\libc.a(lib_a-fvwrite.o)
 .debug_info    0x0000d6cc      0xb72 c:/altera/13.1/nios2eds/bin/gnu/h-i686-mingw32/bin/../lib/gcc/nios2-elf/4.7.3/../../../../../H-i686-mingw32/nios2-elf/lib/mno-hw-mul\libc.a(lib_a-fwalk.o)
 .debug_info    0x0000e23e      0x938 c:/altera/13.1/nios2eds/bin/gnu/h-i686-mingw32/bin/../lib/gcc/nios2-elf/4.7.3/../../../../../H-i686-mingw32/nios2-elf/lib/mno-hw-mul\libc.a(lib_a-impure.o)
 .debug_info    0x0000eb76      0xc10 c:/altera/13.1/nios2eds/bin/gnu/h-i686-mingw32/bin/../lib/gcc/nios2-elf/4.7.3/../../../../../H-i686-mingw32/nios2-elf/lib/mno-hw-mul\libc.a(lib_a-locale.o)
 .debug_info    0x0000f786      0xbc2 c:/altera/13.1/nios2eds/bin/gnu/h-i686-mingw32/bin/../lib/gcc/nios2-elf/4.7.3/../../../../../H-i686-mingw32/nios2-elf/lib/mno-hw-mul\libc.a(lib_a-makebuf.o)
 .debug_info    0x00010348      0xe44 c:/altera/13.1/nios2eds/bin/gnu/h-i686-mingw32/bin/../lib/gcc/nios2-elf/4.7.3/../../../../../H-i686-mingw32/nios2-elf/lib/mno-hw-mul\libc.a(lib_a-mallocr.o)
 .debug_info    0x0001118c      0x13e c:/altera/13.1/nios2eds/bin/gnu/h-i686-mingw32/bin/../lib/gcc/nios2-elf/4.7.3/../../../../../H-i686-mingw32/nios2-elf/lib/mno-hw-mul\libc.a(lib_a-memchr.o)
 .debug_info    0x000112ca      0x10f c:/altera/13.1/nios2eds/bin/gnu/h-i686-mingw32/bin/../lib/gcc/nios2-elf/4.7.3/../../../../../H-i686-mingw32/nios2-elf/lib/mno-hw-mul\libc.a(lib_a-memcpy.o)
 .debug_info    0x000113d9      0x147 c:/altera/13.1/nios2eds/bin/gnu/h-i686-mingw32/bin/../lib/gcc/nios2-elf/4.7.3/../../../../../H-i686-mingw32/nios2-elf/lib/mno-hw-mul\libc.a(lib_a-memmove.o)
 .debug_info    0x00011520      0x117 c:/altera/13.1/nios2eds/bin/gnu/h-i686-mingw32/bin/../lib/gcc/nios2-elf/4.7.3/../../../../../H-i686-mingw32/nios2-elf/lib/mno-hw-mul\libc.a(lib_a-memset.o)
 .debug_info    0x00011637     0x1734 c:/altera/13.1/nios2eds/bin/gnu/h-i686-mingw32/bin/../lib/gcc/nios2-elf/4.7.3/../../../../../H-i686-mingw32/nios2-elf/lib/mno-hw-mul\libc.a(lib_a-mprec.o)
 .debug_info    0x00012d6b      0xd8e c:/altera/13.1/nios2eds/bin/gnu/h-i686-mingw32/bin/../lib/gcc/nios2-elf/4.7.3/../../../../../H-i686-mingw32/nios2-elf/lib/mno-hw-mul\libc.a(lib_a-reallocr.o)
 .debug_info    0x00013af9       0xe8 c:/altera/13.1/nios2eds/bin/gnu/h-i686-mingw32/bin/../lib/gcc/nios2-elf/4.7.3/../../../../../H-i686-mingw32/nios2-elf/lib/mno-hw-mul\libc.a(lib_a-s_isinfd.o)
 .debug_info    0x00013be1       0xe8 c:/altera/13.1/nios2eds/bin/gnu/h-i686-mingw32/bin/../lib/gcc/nios2-elf/4.7.3/../../../../../H-i686-mingw32/nios2-elf/lib/mno-hw-mul\libc.a(lib_a-s_isnand.o)
 .debug_info    0x00013cc9      0x9a3 c:/altera/13.1/nios2eds/bin/gnu/h-i686-mingw32/bin/../lib/gcc/nios2-elf/4.7.3/../../../../../H-i686-mingw32/nios2-elf/lib/mno-hw-mul\libc.a(lib_a-sbrkr.o)
 .debug_info    0x0001466c      0xbfd c:/altera/13.1/nios2eds/bin/gnu/h-i686-mingw32/bin/../lib/gcc/nios2-elf/4.7.3/../../../../../H-i686-mingw32/nios2-elf/lib/mno-hw-mul\libc.a(lib_a-stdio.o)
 .debug_info    0x00015269       0xe1 c:/altera/13.1/nios2eds/bin/gnu/h-i686-mingw32/bin/../lib/gcc/nios2-elf/4.7.3/../../../../../H-i686-mingw32/nios2-elf/lib/mno-hw-mul\libc.a(lib_a-strcmp.o)
 .debug_info    0x0001534a      0x9d2 c:/altera/13.1/nios2eds/bin/gnu/h-i686-mingw32/bin/../lib/gcc/nios2-elf/4.7.3/../../../../../H-i686-mingw32/nios2-elf/lib/mno-hw-mul\libc.a(lib_a-writer.o)
 .debug_info    0x00015d1c      0xa8b c:/altera/13.1/nios2eds/bin/gnu/h-i686-mingw32/bin/../lib/gcc/nios2-elf/4.7.3/../../../../../H-i686-mingw32/nios2-elf/lib/mno-hw-mul\libc.a(lib_a-callocr.o)
 .debug_info    0x000167a7      0x97f c:/altera/13.1/nios2eds/bin/gnu/h-i686-mingw32/bin/../lib/gcc/nios2-elf/4.7.3/../../../../../H-i686-mingw32/nios2-elf/lib/mno-hw-mul\libc.a(lib_a-closer.o)
 .debug_info    0x00017126      0xa97 c:/altera/13.1/nios2eds/bin/gnu/h-i686-mingw32/bin/../lib/gcc/nios2-elf/4.7.3/../../../../../H-i686-mingw32/nios2-elf/lib/mno-hw-mul\libc.a(lib_a-fclose.o)
 .debug_info    0x00017bbd      0xb2f c:/altera/13.1/nios2eds/bin/gnu/h-i686-mingw32/bin/../lib/gcc/nios2-elf/4.7.3/../../../../../H-i686-mingw32/nios2-elf/lib/mno-hw-mul\libc.a(lib_a-fstatr.o)
 .debug_info    0x000186ec       0x84 c:/altera/13.1/nios2eds/bin/gnu/h-i686-mingw32/bin/../lib/gcc/nios2-elf/4.7.3/../../../../../H-i686-mingw32/nios2-elf/lib/mno-hw-mul\libc.a(lib_a-int_errno.o)
 .debug_info    0x00018770      0x97f c:/altera/13.1/nios2eds/bin/gnu/h-i686-mingw32/bin/../lib/gcc/nios2-elf/4.7.3/../../../../../H-i686-mingw32/nios2-elf/lib/mno-hw-mul\libc.a(lib_a-isattyr.o)
 .debug_info    0x000190ef      0x9cb c:/altera/13.1/nios2eds/bin/gnu/h-i686-mingw32/bin/../lib/gcc/nios2-elf/4.7.3/../../../../../H-i686-mingw32/nios2-elf/lib/mno-hw-mul\libc.a(lib_a-lseekr.o)
 .debug_info    0x00019aba      0x9cb c:/altera/13.1/nios2eds/bin/gnu/h-i686-mingw32/bin/../lib/gcc/nios2-elf/4.7.3/../../../../../H-i686-mingw32/nios2-elf/lib/mno-hw-mul\libc.a(lib_a-readr.o)
 .debug_info    0x0001a485      0x71c c:/altera/13.1/nios2eds/bin/gnu/h-i686-mingw32/bin/../lib/gcc/nios2-elf/4.7.3/mno-hw-mul\libgcc.a(_udivdi3.o)
 .debug_info    0x0001aba1      0x773 c:/altera/13.1/nios2eds/bin/gnu/h-i686-mingw32/bin/../lib/gcc/nios2-elf/4.7.3/mno-hw-mul\libgcc.a(_umoddi3.o)
 .debug_info    0x0001b314      0x519 c:/altera/13.1/nios2eds/bin/gnu/h-i686-mingw32/bin/../lib/gcc/nios2-elf/4.7.3/mno-hw-mul\libgcc.a(_mul_df.o)
 .debug_info    0x0001b82d      0x443 c:/altera/13.1/nios2eds/bin/gnu/h-i686-mingw32/bin/../lib/gcc/nios2-elf/4.7.3/mno-hw-mul\libgcc.a(_div_df.o)
 .debug_info    0x0001bc70      0x320 c:/altera/13.1/nios2eds/bin/gnu/h-i686-mingw32/bin/../lib/gcc/nios2-elf/4.7.3/mno-hw-mul\libgcc.a(_eq_df.o)
 .debug_info    0x0001bf90      0x320 c:/altera/13.1/nios2eds/bin/gnu/h-i686-mingw32/bin/../lib/gcc/nios2-elf/4.7.3/mno-hw-mul\libgcc.a(_ne_df.o)
 .debug_info    0x0001c2b0      0x320 c:/altera/13.1/nios2eds/bin/gnu/h-i686-mingw32/bin/../lib/gcc/nios2-elf/4.7.3/mno-hw-mul\libgcc.a(_gt_df.o)
 .debug_info    0x0001c5d0      0x320 c:/altera/13.1/nios2eds/bin/gnu/h-i686-mingw32/bin/../lib/gcc/nios2-elf/4.7.3/mno-hw-mul\libgcc.a(_lt_df.o)
 .debug_info    0x0001c8f0      0x261 c:/altera/13.1/nios2eds/bin/gnu/h-i686-mingw32/bin/../lib/gcc/nios2-elf/4.7.3/mno-hw-mul\libgcc.a(_si_to_df.o)
 .debug_info    0x0001cb51      0x1eb c:/altera/13.1/nios2eds/bin/gnu/h-i686-mingw32/bin/../lib/gcc/nios2-elf/4.7.3/mno-hw-mul\libgcc.a(_muldi3.o)
 .debug_info    0x0001cd3c      0x350 ../Controller_sw_bsp/\libhal_bsp.a(alt_close.o)
 .debug_info    0x0001d08c      0x4e3 ../Controller_sw_bsp/\libhal_bsp.a(alt_dev.o)
 .debug_info    0x0001d56f       0xa3 ../Controller_sw_bsp/\libhal_bsp.a(alt_errno.o)
 .debug_info    0x0001d612      0x4d8 ../Controller_sw_bsp/\libhal_bsp.a(alt_fstat.o)
 .debug_info    0x0001daea      0x364 ../Controller_sw_bsp/\libhal_bsp.a(alt_iic.o)
 .debug_info    0x0001de4e      0x1f6 ../Controller_sw_bsp/\libhal_bsp.a(alt_iic_isr_register.o)
 .debug_info    0x0001e044       0x8a ../Controller_sw_bsp/\libhal_bsp.a(alt_irq_entry.o)
 .debug_info    0x0001e0ce      0x190 ../Controller_sw_bsp/\libhal_bsp.a(alt_irq_handler.o)
 .debug_info    0x0001e25e       0x8a ../Controller_sw_bsp/\libhal_bsp.a(alt_irq_vars.o)
 .debug_info    0x0001e2e8      0x4db ../Controller_sw_bsp/\libhal_bsp.a(alt_isatty.o)
 .debug_info    0x0001e7c3      0x381 ../Controller_sw_bsp/\libhal_bsp.a(alt_lseek.o)
 .debug_info    0x0001eb44      0x139 ../Controller_sw_bsp/\libhal_bsp.a(alt_main.o)
 .debug_info    0x0001ec7d      0x950 ../Controller_sw_bsp/\libhal_bsp.a(alt_malloc_lock.o)
 .debug_info    0x0001f5cd      0x500 ../Controller_sw_bsp/\libhal_bsp.a(alt_read.o)
 .debug_info    0x0001facd      0x2dd ../Controller_sw_bsp/\libhal_bsp.a(alt_release_fd.o)
 .debug_info    0x0001fdaa      0x1b2 ../Controller_sw_bsp/\libhal_bsp.a(alt_sbrk.o)
 .debug_info    0x0001ff5c      0x507 ../Controller_sw_bsp/\libhal_bsp.a(alt_write.o)
 .debug_info    0x00020463      0x90c ../Controller_sw_bsp/\libhal_bsp.a(alt_sys_init.o)
 .debug_info    0x00020d6f      0x8ae ../Controller_sw_bsp/\libhal_bsp.a(altera_avalon_epcs_flash_controller.o)
 .debug_info    0x0002161d      0x58a ../Controller_sw_bsp/\libhal_bsp.a(altera_avalon_jtag_uart_fd.o)
 .debug_info    0x00021ba7      0x3d8 ../Controller_sw_bsp/\libhal_bsp.a(altera_avalon_jtag_uart_init.o)
 .debug_info    0x00021f7f      0x2a9 ../Controller_sw_bsp/\libhal_bsp.a(altera_avalon_jtag_uart_ioctl.o)
 .debug_info    0x00022228      0x371 ../Controller_sw_bsp/\libhal_bsp.a(altera_avalon_jtag_uart_read.o)
 .debug_info    0x00022599      0x36c ../Controller_sw_bsp/\libhal_bsp.a(altera_avalon_jtag_uart_write.o)
 .debug_info    0x00022905      0x481 ../Controller_sw_bsp/\libhal_bsp.a(altera_avalon_uart_fd.o)
 .debug_info    0x00022d86      0x356 ../Controller_sw_bsp/\libhal_bsp.a(altera_avalon_uart_init.o)
 .debug_info    0x000230dc      0x33f ../Controller_sw_bsp/\libhal_bsp.a(altera_avalon_uart_read.o)
 .debug_info    0x0002341b      0x336 ../Controller_sw_bsp/\libhal_bsp.a(altera_avalon_uart_write.o)
 .debug_info    0x00023751      0x482 ../Controller_sw_bsp/\libhal_bsp.a(epcs_commands.o)
 .debug_info    0x00023bd3      0x2e4 ../Controller_sw_bsp/\libhal_bsp.a(alt_alarm_start.o)
 .debug_info    0x00023eb7      0x1b9 ../Controller_sw_bsp/\libhal_bsp.a(alt_dev_llist_insert.o)
 .debug_info    0x00024070       0x8d ../Controller_sw_bsp/\libhal_bsp.a(alt_do_ctors.o)
 .debug_info    0x000240fd       0x8d ../Controller_sw_bsp/\libhal_bsp.a(alt_do_dtors.o)
 .debug_info    0x0002418a       0x90 ../Controller_sw_bsp/\libhal_bsp.a(alt_exception_entry.o)
 .debug_info    0x0002421a      0x3ce ../Controller_sw_bsp/\libhal_bsp.a(alt_flash_dev.o)
 .debug_info    0x000245e8      0x4f0 ../Controller_sw_bsp/\libhal_bsp.a(alt_io_redirect.o)
 .debug_info    0x00024ad8      0x3f0 ../Controller_sw_bsp/\libhal_bsp.a(alt_open.o)
 .debug_info    0x00024ec8      0x2b1 ../Controller_sw_bsp/\libhal_bsp.a(alt_tick.o)
 .debug_info    0x00025179       0x90 ../Controller_sw_bsp/\libhal_bsp.a(altera_nios2_qsys_irq.o)
 .debug_info    0x00025209      0x18b ../Controller_sw_bsp/\libhal_bsp.a(altera_avalon_spi.o)
 .debug_info    0x00025394      0x30d ../Controller_sw_bsp/\libhal_bsp.a(alt_find_dev.o)
 .debug_info    0x000256a1      0x30c ../Controller_sw_bsp/\libhal_bsp.a(alt_find_file.o)
 .debug_info    0x000259ad      0x339 ../Controller_sw_bsp/\libhal_bsp.a(alt_get_fd.o)
 .debug_info    0x00025ce6      0x1e6 c:/altera/13.1/nios2eds/bin/gnu/h-i686-mingw32/bin/../lib/gcc/nios2-elf/4.7.3/../../../../../H-i686-mingw32/nios2-elf/lib/mno-hw-mul\libc.a(lib_a-atexit.o)
 .debug_info    0x00025ecc      0x993 c:/altera/13.1/nios2eds/bin/gnu/h-i686-mingw32/bin/../lib/gcc/nios2-elf/4.7.3/../../../../../H-i686-mingw32/nios2-elf/lib/mno-hw-mul\libc.a(lib_a-exit.o)
 .debug_info    0x0002685f      0x117 c:/altera/13.1/nios2eds/bin/gnu/h-i686-mingw32/bin/../lib/gcc/nios2-elf/4.7.3/../../../../../H-i686-mingw32/nios2-elf/lib/mno-hw-mul\libc.a(lib_a-memcmp.o)
 .debug_info    0x00026976      0x9f9 c:/altera/13.1/nios2eds/bin/gnu/h-i686-mingw32/bin/../lib/gcc/nios2-elf/4.7.3/../../../../../H-i686-mingw32/nios2-elf/lib/mno-hw-mul\libc.a(lib_a-__atexit.o)
 .debug_info    0x0002736f      0xa07 c:/altera/13.1/nios2eds/bin/gnu/h-i686-mingw32/bin/../lib/gcc/nios2-elf/4.7.3/../../../../../H-i686-mingw32/nios2-elf/lib/mno-hw-mul\libc.a(lib_a-__call_atexit.o)
 .debug_info    0x00027d76       0xec ../Controller_sw_bsp/\libhal_bsp.a(alt_exit.o)

.debug_abbrev   0x00000000     0xacbc
 *(.debug_abbrev)
 .debug_abbrev  0x00000000       0x14 ../Controller_sw_bsp//obj/HAL/src/crt0.o
 .debug_abbrev  0x00000014       0x90 obj/default/driver/Counter.o
 .debug_abbrev  0x000000a4       0xb9 obj/default/driver/DisDriver.o
 .debug_abbrev  0x0000015d       0xc8 obj/default/driver/FRAM.o
 .debug_abbrev  0x00000225       0x94 obj/default/driver/KPLED.o
 .debug_abbrev  0x000002b9      0x125 obj/default/driver/comInterface.o
 .debug_abbrev  0x000003de       0x82 obj/default/driver/coverPage.o
 .debug_abbrev  0x00000460       0x57 obj/default/driver/delay.o
 .debug_abbrev  0x000004b7       0xd8 obj/default/driver/loadWriteData.o
 .debug_abbrev  0x0000058f       0x91 obj/default/driver/powerFailure.o
 .debug_abbrev  0x00000620      0x18f obj/default/driver/uart.o
 .debug_abbrev  0x000007af       0x8e obj/default/main/TopMenu.o
 .debug_abbrev  0x0000083d       0x58 obj/default/main/main.o
 .debug_abbrev  0x00000895      0x1af obj/default/menuComponent/FireMenu.o
 .debug_abbrev  0x00000a44       0x6f obj/default/menuComponent/HeaterWarmingUp.o
 .debug_abbrev  0x00000ab3       0x6d obj/default/menuComponent/ParameterMenu.o
 .debug_abbrev  0x00000b20       0x85 obj/default/menuComponent/RemoteMenu.o
 .debug_abbrev  0x00000ba5       0xce obj/default/menuComponent/SaveLoadMenu.o
 .debug_abbrev  0x00000c73       0x9e obj/default/menuComponent/ShotCountersMenu.o
 .debug_abbrev  0x00000d11       0xac obj/default/menuComponent/ShutdownMenu.o
 .debug_abbrev  0x00000dbd       0xb9 obj/default/menuComponent/StartupMenu.o
 .debug_abbrev  0x00000e76       0xd9 obj/default/menuComponent/editNum10.o
 .debug_abbrev  0x00000f4f       0xb4 obj/default/menuComponent/editNum2.o
 .debug_abbrev  0x00001003       0xb4 obj/default/menuComponent/editNum5.o
 .debug_abbrev  0x000010b7       0xbd obj/default/menuComponent/enterPWD.o
 .debug_abbrev  0x00001174      0x12a obj/default/menuComponent/errorCheck.o
 .debug_abbrev  0x0000129e       0x5a obj/default/menuComponent/pwdPage.o
 .debug_abbrev  0x000012f8       0x6b obj/default/menuComponent/repPage.o
 .debug_abbrev  0x00001363       0x7d obj/default/menuComponent/shotPage.o
 .debug_abbrev  0x000013e0       0xf9 obj/default/menuComponent/timingPage.o
 .debug_abbrev  0x000014d9       0x60 c:/altera/13.1/nios2eds/bin/gnu/h-i686-mingw32/bin/../lib/gcc/nios2-elf/4.7.3/mno-hw-mul\libgcc.a(_fixunsdfsi.o)
 .debug_abbrev  0x00001539      0x22d c:/altera/13.1/nios2eds/bin/gnu/h-i686-mingw32/bin/../lib/gcc/nios2-elf/4.7.3/mno-hw-mul\libgcc.a(_addsub_df.o)
 .debug_abbrev  0x00001766      0x1a5 c:/altera/13.1/nios2eds/bin/gnu/h-i686-mingw32/bin/../lib/gcc/nios2-elf/4.7.3/mno-hw-mul\libgcc.a(_ge_df.o)
 .debug_abbrev  0x0000190b      0x1ae c:/altera/13.1/nios2eds/bin/gnu/h-i686-mingw32/bin/../lib/gcc/nios2-elf/4.7.3/mno-hw-mul\libgcc.a(_df_to_si.o)
 .debug_abbrev  0x00001ab9       0xb6 c:/altera/13.1/nios2eds/bin/gnu/h-i686-mingw32/bin/../lib/gcc/nios2-elf/4.7.3/mno-hw-mul\libgcc.a(_thenan_df.o)
 .debug_abbrev  0x00001b6f      0x1bf c:/altera/13.1/nios2eds/bin/gnu/h-i686-mingw32/bin/../lib/gcc/nios2-elf/4.7.3/mno-hw-mul\libgcc.a(_usi_to_df.o)
 .debug_abbrev  0x00001d2e      0x112 c:/altera/13.1/nios2eds/bin/gnu/h-i686-mingw32/bin/../lib/gcc/nios2-elf/4.7.3/mno-hw-mul\libgcc.a(lib2-divmod.o)
 .debug_abbrev  0x00001e40       0x6f c:/altera/13.1/nios2eds/bin/gnu/h-i686-mingw32/bin/../lib/gcc/nios2-elf/4.7.3/mno-hw-mul\libgcc.a(lib2-mul.o)
 .debug_abbrev  0x00001eaf       0xbe c:/altera/13.1/nios2eds/bin/gnu/h-i686-mingw32/bin/../lib/gcc/nios2-elf/4.7.3/mno-hw-mul\libgcc.a(_clzsi2.o)
 .debug_abbrev  0x00001f6d      0x1b6 c:/altera/13.1/nios2eds/bin/gnu/h-i686-mingw32/bin/../lib/gcc/nios2-elf/4.7.3/mno-hw-mul\libgcc.a(_pack_df.o)
 .debug_abbrev  0x00002123      0x15d c:/altera/13.1/nios2eds/bin/gnu/h-i686-mingw32/bin/../lib/gcc/nios2-elf/4.7.3/mno-hw-mul\libgcc.a(_unpack_df.o)
 .debug_abbrev  0x00002280      0x146 c:/altera/13.1/nios2eds/bin/gnu/h-i686-mingw32/bin/../lib/gcc/nios2-elf/4.7.3/mno-hw-mul\libgcc.a(_fpcmp_parts_df.o)
 .debug_abbrev  0x000023c6       0xf1 c:/altera/13.1/nios2eds/bin/gnu/h-i686-mingw32/bin/../lib/gcc/nios2-elf/4.7.3/mno-hw-mul\libgcc.a(_lshrdi3.o)
 .debug_abbrev  0x000024b7       0xf1 c:/altera/13.1/nios2eds/bin/gnu/h-i686-mingw32/bin/../lib/gcc/nios2-elf/4.7.3/mno-hw-mul\libgcc.a(_ashldi3.o)
 .debug_abbrev  0x000025a8       0x5d c:/altera/13.1/nios2eds/bin/gnu/h-i686-mingw32/bin/../lib/gcc/nios2-elf/4.7.3/mno-hw-mul\libgcc.a(_clz.o)
 .debug_abbrev  0x00002605      0x209 c:/altera/13.1/nios2eds/bin/gnu/h-i686-mingw32/bin/../lib/gcc/nios2-elf/4.7.3/../../../../../H-i686-mingw32/nios2-elf/lib/mno-hw-mul\libc.a(lib_a-printf.o)
 .debug_abbrev  0x0000280e      0x208 c:/altera/13.1/nios2eds/bin/gnu/h-i686-mingw32/bin/../lib/gcc/nios2-elf/4.7.3/../../../../../H-i686-mingw32/nios2-elf/lib/mno-hw-mul\libc.a(lib_a-puts.o)
 .debug_abbrev  0x00002a16      0x1f6 c:/altera/13.1/nios2eds/bin/gnu/h-i686-mingw32/bin/../lib/gcc/nios2-elf/4.7.3/../../../../../H-i686-mingw32/nios2-elf/lib/mno-hw-mul\libc.a(lib_a-sprintf.o)
 .debug_abbrev  0x00002c0c       0x90 c:/altera/13.1/nios2eds/bin/gnu/h-i686-mingw32/bin/../lib/gcc/nios2-elf/4.7.3/../../../../../H-i686-mingw32/nios2-elf/lib/mno-hw-mul\libc.a(lib_a-strlen.o)
 .debug_abbrev  0x00002c9c      0x3d9 c:/altera/13.1/nios2eds/bin/gnu/h-i686-mingw32/bin/../lib/gcc/nios2-elf/4.7.3/../../../../../H-i686-mingw32/nios2-elf/lib/mno-hw-mul\libc.a(lib_a-vfprintf.o)
 .debug_abbrev  0x00003075      0x1d5 c:/altera/13.1/nios2eds/bin/gnu/h-i686-mingw32/bin/../lib/gcc/nios2-elf/4.7.3/../../../../../H-i686-mingw32/nios2-elf/lib/mno-hw-mul\libc.a(lib_a-wsetup.o)
 .debug_abbrev  0x0000324a      0x2ab c:/altera/13.1/nios2eds/bin/gnu/h-i686-mingw32/bin/../lib/gcc/nios2-elf/4.7.3/../../../../../H-i686-mingw32/nios2-elf/lib/mno-hw-mul\libc.a(lib_a-dtoa.o)
 .debug_abbrev  0x000034f5      0x259 c:/altera/13.1/nios2eds/bin/gnu/h-i686-mingw32/bin/../lib/gcc/nios2-elf/4.7.3/../../../../../H-i686-mingw32/nios2-elf/lib/mno-hw-mul\libc.a(lib_a-fflush.o)
 .debug_abbrev  0x0000374e      0x333 c:/altera/13.1/nios2eds/bin/gnu/h-i686-mingw32/bin/../lib/gcc/nios2-elf/4.7.3/../../../../../H-i686-mingw32/nios2-elf/lib/mno-hw-mul\libc.a(lib_a-findfp.o)
 .debug_abbrev  0x00003a81      0x25d c:/altera/13.1/nios2eds/bin/gnu/h-i686-mingw32/bin/../lib/gcc/nios2-elf/4.7.3/../../../../../H-i686-mingw32/nios2-elf/lib/mno-hw-mul\libc.a(lib_a-freer.o)
 .debug_abbrev  0x00003cde      0x234 c:/altera/13.1/nios2eds/bin/gnu/h-i686-mingw32/bin/../lib/gcc/nios2-elf/4.7.3/../../../../../H-i686-mingw32/nios2-elf/lib/mno-hw-mul\libc.a(lib_a-fvwrite.o)
 .debug_abbrev  0x00003f12      0x224 c:/altera/13.1/nios2eds/bin/gnu/h-i686-mingw32/bin/../lib/gcc/nios2-elf/4.7.3/../../../../../H-i686-mingw32/nios2-elf/lib/mno-hw-mul\libc.a(lib_a-fwalk.o)
 .debug_abbrev  0x00004136      0x162 c:/altera/13.1/nios2eds/bin/gnu/h-i686-mingw32/bin/../lib/gcc/nios2-elf/4.7.3/../../../../../H-i686-mingw32/nios2-elf/lib/mno-hw-mul\libc.a(lib_a-impure.o)
 .debug_abbrev  0x00004298      0x29f c:/altera/13.1/nios2eds/bin/gnu/h-i686-mingw32/bin/../lib/gcc/nios2-elf/4.7.3/../../../../../H-i686-mingw32/nios2-elf/lib/mno-hw-mul\libc.a(lib_a-locale.o)
 .debug_abbrev  0x00004537      0x1e8 c:/altera/13.1/nios2eds/bin/gnu/h-i686-mingw32/bin/../lib/gcc/nios2-elf/4.7.3/../../../../../H-i686-mingw32/nios2-elf/lib/mno-hw-mul\libc.a(lib_a-makebuf.o)
 .debug_abbrev  0x0000471f      0x284 c:/altera/13.1/nios2eds/bin/gnu/h-i686-mingw32/bin/../lib/gcc/nios2-elf/4.7.3/../../../../../H-i686-mingw32/nios2-elf/lib/mno-hw-mul\libc.a(lib_a-mallocr.o)
 .debug_abbrev  0x000049a3       0xab c:/altera/13.1/nios2eds/bin/gnu/h-i686-mingw32/bin/../lib/gcc/nios2-elf/4.7.3/../../../../../H-i686-mingw32/nios2-elf/lib/mno-hw-mul\libc.a(lib_a-memchr.o)
 .debug_abbrev  0x00004a4e       0x9c c:/altera/13.1/nios2eds/bin/gnu/h-i686-mingw32/bin/../lib/gcc/nios2-elf/4.7.3/../../../../../H-i686-mingw32/nios2-elf/lib/mno-hw-mul\libc.a(lib_a-memcpy.o)
 .debug_abbrev  0x00004aea       0x9c c:/altera/13.1/nios2eds/bin/gnu/h-i686-mingw32/bin/../lib/gcc/nios2-elf/4.7.3/../../../../../H-i686-mingw32/nios2-elf/lib/mno-hw-mul\libc.a(lib_a-memmove.o)
 .debug_abbrev  0x00004b86       0xac c:/altera/13.1/nios2eds/bin/gnu/h-i686-mingw32/bin/../lib/gcc/nios2-elf/4.7.3/../../../../../H-i686-mingw32/nios2-elf/lib/mno-hw-mul\libc.a(lib_a-memset.o)
 .debug_abbrev  0x00004c32      0x394 c:/altera/13.1/nios2eds/bin/gnu/h-i686-mingw32/bin/../lib/gcc/nios2-elf/4.7.3/../../../../../H-i686-mingw32/nios2-elf/lib/mno-hw-mul\libc.a(lib_a-mprec.o)
 .debug_abbrev  0x00004fc6      0x242 c:/altera/13.1/nios2eds/bin/gnu/h-i686-mingw32/bin/../lib/gcc/nios2-elf/4.7.3/../../../../../H-i686-mingw32/nios2-elf/lib/mno-hw-mul\libc.a(lib_a-reallocr.o)
 .debug_abbrev  0x00005208       0x6f c:/altera/13.1/nios2eds/bin/gnu/h-i686-mingw32/bin/../lib/gcc/nios2-elf/4.7.3/../../../../../H-i686-mingw32/nios2-elf/lib/mno-hw-mul\libc.a(lib_a-s_isinfd.o)
 .debug_abbrev  0x00005277       0x6f c:/altera/13.1/nios2eds/bin/gnu/h-i686-mingw32/bin/../lib/gcc/nios2-elf/4.7.3/../../../../../H-i686-mingw32/nios2-elf/lib/mno-hw-mul\libc.a(lib_a-s_isnand.o)
 .debug_abbrev  0x000052e6      0x1df c:/altera/13.1/nios2eds/bin/gnu/h-i686-mingw32/bin/../lib/gcc/nios2-elf/4.7.3/../../../../../H-i686-mingw32/nios2-elf/lib/mno-hw-mul\libc.a(lib_a-sbrkr.o)
 .debug_abbrev  0x000054c5      0x226 c:/altera/13.1/nios2eds/bin/gnu/h-i686-mingw32/bin/../lib/gcc/nios2-elf/4.7.3/../../../../../H-i686-mingw32/nios2-elf/lib/mno-hw-mul\libc.a(lib_a-stdio.o)
 .debug_abbrev  0x000056eb       0x74 c:/altera/13.1/nios2eds/bin/gnu/h-i686-mingw32/bin/../lib/gcc/nios2-elf/4.7.3/../../../../../H-i686-mingw32/nios2-elf/lib/mno-hw-mul\libc.a(lib_a-strcmp.o)
 .debug_abbrev  0x0000575f      0x1c0 c:/altera/13.1/nios2eds/bin/gnu/h-i686-mingw32/bin/../lib/gcc/nios2-elf/4.7.3/../../../../../H-i686-mingw32/nios2-elf/lib/mno-hw-mul\libc.a(lib_a-writer.o)
 .debug_abbrev  0x0000591f      0x202 c:/altera/13.1/nios2eds/bin/gnu/h-i686-mingw32/bin/../lib/gcc/nios2-elf/4.7.3/../../../../../H-i686-mingw32/nios2-elf/lib/mno-hw-mul\libc.a(lib_a-callocr.o)
 .debug_abbrev  0x00005b21      0x1bb c:/altera/13.1/nios2eds/bin/gnu/h-i686-mingw32/bin/../lib/gcc/nios2-elf/4.7.3/../../../../../H-i686-mingw32/nios2-elf/lib/mno-hw-mul\libc.a(lib_a-closer.o)
 .debug_abbrev  0x00005cdc      0x24e c:/altera/13.1/nios2eds/bin/gnu/h-i686-mingw32/bin/../lib/gcc/nios2-elf/4.7.3/../../../../../H-i686-mingw32/nios2-elf/lib/mno-hw-mul\libc.a(lib_a-fclose.o)
 .debug_abbrev  0x00005f2a      0x1ca c:/altera/13.1/nios2eds/bin/gnu/h-i686-mingw32/bin/../lib/gcc/nios2-elf/4.7.3/../../../../../H-i686-mingw32/nios2-elf/lib/mno-hw-mul\libc.a(lib_a-fstatr.o)
 .debug_abbrev  0x000060f4       0x37 c:/altera/13.1/nios2eds/bin/gnu/h-i686-mingw32/bin/../lib/gcc/nios2-elf/4.7.3/../../../../../H-i686-mingw32/nios2-elf/lib/mno-hw-mul\libc.a(lib_a-int_errno.o)
 .debug_abbrev  0x0000612b      0x1bb c:/altera/13.1/nios2eds/bin/gnu/h-i686-mingw32/bin/../lib/gcc/nios2-elf/4.7.3/../../../../../H-i686-mingw32/nios2-elf/lib/mno-hw-mul\libc.a(lib_a-isattyr.o)
 .debug_abbrev  0x000062e6      0x1ca c:/altera/13.1/nios2eds/bin/gnu/h-i686-mingw32/bin/../lib/gcc/nios2-elf/4.7.3/../../../../../H-i686-mingw32/nios2-elf/lib/mno-hw-mul\libc.a(lib_a-lseekr.o)
 .debug_abbrev  0x000064b0      0x1bb c:/altera/13.1/nios2eds/bin/gnu/h-i686-mingw32/bin/../lib/gcc/nios2-elf/4.7.3/../../../../../H-i686-mingw32/nios2-elf/lib/mno-hw-mul\libc.a(lib_a-readr.o)
 .debug_abbrev  0x0000666b      0x170 c:/altera/13.1/nios2eds/bin/gnu/h-i686-mingw32/bin/../lib/gcc/nios2-elf/4.7.3/mno-hw-mul\libgcc.a(_udivdi3.o)
 .debug_abbrev  0x000067db      0x19c c:/altera/13.1/nios2eds/bin/gnu/h-i686-mingw32/bin/../lib/gcc/nios2-elf/4.7.3/mno-hw-mul\libgcc.a(_umoddi3.o)
 .debug_abbrev  0x00006977      0x240 c:/altera/13.1/nios2eds/bin/gnu/h-i686-mingw32/bin/../lib/gcc/nios2-elf/4.7.3/mno-hw-mul\libgcc.a(_mul_df.o)
 .debug_abbrev  0x00006bb7      0x245 c:/altera/13.1/nios2eds/bin/gnu/h-i686-mingw32/bin/../lib/gcc/nios2-elf/4.7.3/mno-hw-mul\libgcc.a(_div_df.o)
 .debug_abbrev  0x00006dfc      0x1a5 c:/altera/13.1/nios2eds/bin/gnu/h-i686-mingw32/bin/../lib/gcc/nios2-elf/4.7.3/mno-hw-mul\libgcc.a(_eq_df.o)
 .debug_abbrev  0x00006fa1      0x1a5 c:/altera/13.1/nios2eds/bin/gnu/h-i686-mingw32/bin/../lib/gcc/nios2-elf/4.7.3/mno-hw-mul\libgcc.a(_ne_df.o)
 .debug_abbrev  0x00007146      0x1a5 c:/altera/13.1/nios2eds/bin/gnu/h-i686-mingw32/bin/../lib/gcc/nios2-elf/4.7.3/mno-hw-mul\libgcc.a(_gt_df.o)
 .debug_abbrev  0x000072eb      0x1a5 c:/altera/13.1/nios2eds/bin/gnu/h-i686-mingw32/bin/../lib/gcc/nios2-elf/4.7.3/mno-hw-mul\libgcc.a(_lt_df.o)
 .debug_abbrev  0x00007490      0x19c c:/altera/13.1/nios2eds/bin/gnu/h-i686-mingw32/bin/../lib/gcc/nios2-elf/4.7.3/mno-hw-mul\libgcc.a(_si_to_df.o)
 .debug_abbrev  0x0000762c       0xe0 c:/altera/13.1/nios2eds/bin/gnu/h-i686-mingw32/bin/../lib/gcc/nios2-elf/4.7.3/mno-hw-mul\libgcc.a(_muldi3.o)
 .debug_abbrev  0x0000770c      0x11f ../Controller_sw_bsp/\libhal_bsp.a(alt_close.o)
 .debug_abbrev  0x0000782b       0xd9 ../Controller_sw_bsp/\libhal_bsp.a(alt_dev.o)
 .debug_abbrev  0x00007904       0x5a ../Controller_sw_bsp/\libhal_bsp.a(alt_errno.o)
 .debug_abbrev  0x0000795e      0x11f ../Controller_sw_bsp/\libhal_bsp.a(alt_fstat.o)
 .debug_abbrev  0x00007a7d      0x16a ../Controller_sw_bsp/\libhal_bsp.a(alt_iic.o)
 .debug_abbrev  0x00007be7      0x169 ../Controller_sw_bsp/\libhal_bsp.a(alt_iic_isr_register.o)
 .debug_abbrev  0x00007d50       0x12 ../Controller_sw_bsp/\libhal_bsp.a(alt_irq_entry.o)
 .debug_abbrev  0x00007d62      0x124 ../Controller_sw_bsp/\libhal_bsp.a(alt_irq_handler.o)
 .debug_abbrev  0x00007e86       0x40 ../Controller_sw_bsp/\libhal_bsp.a(alt_irq_vars.o)
 .debug_abbrev  0x00007ec6      0x11f ../Controller_sw_bsp/\libhal_bsp.a(alt_isatty.o)
 .debug_abbrev  0x00007fe5      0x11f ../Controller_sw_bsp/\libhal_bsp.a(alt_lseek.o)
 .debug_abbrev  0x00008104       0xba ../Controller_sw_bsp/\libhal_bsp.a(alt_main.o)
 .debug_abbrev  0x000081be      0x187 ../Controller_sw_bsp/\libhal_bsp.a(alt_malloc_lock.o)
 .debug_abbrev  0x00008345      0x12e ../Controller_sw_bsp/\libhal_bsp.a(alt_read.o)
 .debug_abbrev  0x00008473       0xde ../Controller_sw_bsp/\libhal_bsp.a(alt_release_fd.o)
 .debug_abbrev  0x00008551      0x112 ../Controller_sw_bsp/\libhal_bsp.a(alt_sbrk.o)
 .debug_abbrev  0x00008663      0x133 ../Controller_sw_bsp/\libhal_bsp.a(alt_write.o)
 .debug_abbrev  0x00008796      0x17f ../Controller_sw_bsp/\libhal_bsp.a(alt_sys_init.o)
 .debug_abbrev  0x00008915      0x1c9 ../Controller_sw_bsp/\libhal_bsp.a(altera_avalon_epcs_flash_controller.o)
 .debug_abbrev  0x00008ade      0x118 ../Controller_sw_bsp/\libhal_bsp.a(altera_avalon_jtag_uart_fd.o)
 .debug_abbrev  0x00008bf6      0x18f ../Controller_sw_bsp/\libhal_bsp.a(altera_avalon_jtag_uart_init.o)
 .debug_abbrev  0x00008d85      0x102 ../Controller_sw_bsp/\libhal_bsp.a(altera_avalon_jtag_uart_ioctl.o)
 .debug_abbrev  0x00008e87      0x19b ../Controller_sw_bsp/\libhal_bsp.a(altera_avalon_jtag_uart_read.o)
 .debug_abbrev  0x00009022      0x199 ../Controller_sw_bsp/\libhal_bsp.a(altera_avalon_jtag_uart_write.o)
 .debug_abbrev  0x000091bb      0x109 ../Controller_sw_bsp/\libhal_bsp.a(altera_avalon_uart_fd.o)
 .debug_abbrev  0x000092c4      0x178 ../Controller_sw_bsp/\libhal_bsp.a(altera_avalon_uart_init.o)
 .debug_abbrev  0x0000943c      0x183 ../Controller_sw_bsp/\libhal_bsp.a(altera_avalon_uart_read.o)
 .debug_abbrev  0x000095bf      0x18a ../Controller_sw_bsp/\libhal_bsp.a(altera_avalon_uart_write.o)
 .debug_abbrev  0x00009749      0x169 ../Controller_sw_bsp/\libhal_bsp.a(epcs_commands.o)
 .debug_abbrev  0x000098b2      0x162 ../Controller_sw_bsp/\libhal_bsp.a(alt_alarm_start.o)
 .debug_abbrev  0x00009a14      0x114 ../Controller_sw_bsp/\libhal_bsp.a(alt_dev_llist_insert.o)
 .debug_abbrev  0x00009b28       0x79 ../Controller_sw_bsp/\libhal_bsp.a(alt_do_ctors.o)
 .debug_abbrev  0x00009ba1       0x79 ../Controller_sw_bsp/\libhal_bsp.a(alt_do_dtors.o)
 .debug_abbrev  0x00009c1a       0x12 ../Controller_sw_bsp/\libhal_bsp.a(alt_exception_entry.o)
 .debug_abbrev  0x00009c2c      0x11a ../Controller_sw_bsp/\libhal_bsp.a(alt_flash_dev.o)
 .debug_abbrev  0x00009d46      0x114 ../Controller_sw_bsp/\libhal_bsp.a(alt_io_redirect.o)
 .debug_abbrev  0x00009e5a      0x148 ../Controller_sw_bsp/\libhal_bsp.a(alt_open.o)
 .debug_abbrev  0x00009fa2      0x15a ../Controller_sw_bsp/\libhal_bsp.a(alt_tick.o)
 .debug_abbrev  0x0000a0fc       0x42 ../Controller_sw_bsp/\libhal_bsp.a(altera_nios2_qsys_irq.o)
 .debug_abbrev  0x0000a13e       0x8a ../Controller_sw_bsp/\libhal_bsp.a(altera_avalon_spi.o)
 .debug_abbrev  0x0000a1c8       0xf0 ../Controller_sw_bsp/\libhal_bsp.a(alt_find_dev.o)
 .debug_abbrev  0x0000a2b8       0xf0 ../Controller_sw_bsp/\libhal_bsp.a(alt_find_file.o)
 .debug_abbrev  0x0000a3a8      0x10d ../Controller_sw_bsp/\libhal_bsp.a(alt_get_fd.o)
 .debug_abbrev  0x0000a4b5      0x106 c:/altera/13.1/nios2eds/bin/gnu/h-i686-mingw32/bin/../lib/gcc/nios2-elf/4.7.3/../../../../../H-i686-mingw32/nios2-elf/lib/mno-hw-mul\libc.a(lib_a-atexit.o)
 .debug_abbrev  0x0000a5bb      0x1c8 c:/altera/13.1/nios2eds/bin/gnu/h-i686-mingw32/bin/../lib/gcc/nios2-elf/4.7.3/../../../../../H-i686-mingw32/nios2-elf/lib/mno-hw-mul\libc.a(lib_a-exit.o)
 .debug_abbrev  0x0000a783       0x7f c:/altera/13.1/nios2eds/bin/gnu/h-i686-mingw32/bin/../lib/gcc/nios2-elf/4.7.3/../../../../../H-i686-mingw32/nios2-elf/lib/mno-hw-mul\libc.a(lib_a-memcmp.o)
 .debug_abbrev  0x0000a802      0x211 c:/altera/13.1/nios2eds/bin/gnu/h-i686-mingw32/bin/../lib/gcc/nios2-elf/4.7.3/../../../../../H-i686-mingw32/nios2-elf/lib/mno-hw-mul\libc.a(lib_a-__atexit.o)
 .debug_abbrev  0x0000aa13      0x203 c:/altera/13.1/nios2eds/bin/gnu/h-i686-mingw32/bin/../lib/gcc/nios2-elf/4.7.3/../../../../../H-i686-mingw32/nios2-elf/lib/mno-hw-mul\libc.a(lib_a-__call_atexit.o)
 .debug_abbrev  0x0000ac16       0xa6 ../Controller_sw_bsp/\libhal_bsp.a(alt_exit.o)

.debug_line     0x00000000     0xc521
 *(.debug_line)
 .debug_line    0x00000000       0x51 ../Controller_sw_bsp//obj/HAL/src/crt0.o
 .debug_line    0x00000051       0x63 obj/default/driver/Counter.o
 .debug_line    0x000000b4       0x93 obj/default/driver/DisDriver.o
 .debug_line    0x00000147       0xcb obj/default/driver/FRAM.o
 .debug_line    0x00000212       0xad obj/default/driver/KPLED.o
 .debug_line    0x000002bf       0xd3 obj/default/driver/comInterface.o
 .debug_line    0x00000392       0x72 obj/default/driver/coverPage.o
 .debug_line    0x00000404       0x4d obj/default/driver/delay.o
 .debug_line    0x00000451       0x9b obj/default/driver/loadWriteData.o
 .debug_line    0x000004ec       0x9d obj/default/driver/powerFailure.o
 .debug_line    0x00000589       0x9e obj/default/driver/uart.o
 .debug_line    0x00000627      0x125 obj/default/main/TopMenu.o
 .debug_line    0x0000074c       0x40 obj/default/main/main.o
 .debug_line    0x0000078c      0x267 obj/default/menuComponent/FireMenu.o
 .debug_line    0x000009f3       0x62 obj/default/menuComponent/HeaterWarmingUp.o
 .debug_line    0x00000a55       0xc7 obj/default/menuComponent/ParameterMenu.o
 .debug_line    0x00000b1c       0xb9 obj/default/menuComponent/RemoteMenu.o
 .debug_line    0x00000bd5      0x166 obj/default/menuComponent/SaveLoadMenu.o
 .debug_line    0x00000d3b      0x119 obj/default/menuComponent/ShotCountersMenu.o
 .debug_line    0x00000e54      0x19c obj/default/menuComponent/ShutdownMenu.o
 .debug_line    0x00000ff0      0x176 obj/default/menuComponent/StartupMenu.o
 .debug_line    0x00001166      0x207 obj/default/menuComponent/editNum10.o
 .debug_line    0x0000136d       0xe6 obj/default/menuComponent/editNum2.o
 .debug_line    0x00001453       0xf7 obj/default/menuComponent/editNum5.o
 .debug_line    0x0000154a      0x108 obj/default/menuComponent/enterPWD.o
 .debug_line    0x00001652      0x192 obj/default/menuComponent/errorCheck.o
 .debug_line    0x000017e4       0x5f obj/default/menuComponent/pwdPage.o
 .debug_line    0x00001843       0x77 obj/default/menuComponent/repPage.o
 .debug_line    0x000018ba       0x74 obj/default/menuComponent/shotPage.o
 .debug_line    0x0000192e      0x11f obj/default/menuComponent/timingPage.o
 .debug_line    0x00001a4d       0x71 c:/altera/13.1/nios2eds/bin/gnu/h-i686-mingw32/bin/../lib/gcc/nios2-elf/4.7.3/mno-hw-mul\libgcc.a(_fixunsdfsi.o)
 .debug_line    0x00001abe      0x134 c:/altera/13.1/nios2eds/bin/gnu/h-i686-mingw32/bin/../lib/gcc/nios2-elf/4.7.3/mno-hw-mul\libgcc.a(_addsub_df.o)
 .debug_line    0x00001bf2       0x71 c:/altera/13.1/nios2eds/bin/gnu/h-i686-mingw32/bin/../lib/gcc/nios2-elf/4.7.3/mno-hw-mul\libgcc.a(_ge_df.o)
 .debug_line    0x00001c63       0x90 c:/altera/13.1/nios2eds/bin/gnu/h-i686-mingw32/bin/../lib/gcc/nios2-elf/4.7.3/mno-hw-mul\libgcc.a(_df_to_si.o)
 .debug_line    0x00001cf3       0x54 c:/altera/13.1/nios2eds/bin/gnu/h-i686-mingw32/bin/../lib/gcc/nios2-elf/4.7.3/mno-hw-mul\libgcc.a(_thenan_df.o)
 .debug_line    0x00001d47       0xa1 c:/altera/13.1/nios2eds/bin/gnu/h-i686-mingw32/bin/../lib/gcc/nios2-elf/4.7.3/mno-hw-mul\libgcc.a(_usi_to_df.o)
 .debug_line    0x00001de8       0xd6 c:/altera/13.1/nios2eds/bin/gnu/h-i686-mingw32/bin/../lib/gcc/nios2-elf/4.7.3/mno-hw-mul\libgcc.a(lib2-divmod.o)
 .debug_line    0x00001ebe       0x80 c:/altera/13.1/nios2eds/bin/gnu/h-i686-mingw32/bin/../lib/gcc/nios2-elf/4.7.3/mno-hw-mul\libgcc.a(lib2-mul.o)
 .debug_line    0x00001f3e       0x8f c:/altera/13.1/nios2eds/bin/gnu/h-i686-mingw32/bin/../lib/gcc/nios2-elf/4.7.3/mno-hw-mul\libgcc.a(_clzsi2.o)
 .debug_line    0x00001fcd       0xca c:/altera/13.1/nios2eds/bin/gnu/h-i686-mingw32/bin/../lib/gcc/nios2-elf/4.7.3/mno-hw-mul\libgcc.a(_pack_df.o)
 .debug_line    0x00002097       0xa5 c:/altera/13.1/nios2eds/bin/gnu/h-i686-mingw32/bin/../lib/gcc/nios2-elf/4.7.3/mno-hw-mul\libgcc.a(_unpack_df.o)
 .debug_line    0x0000213c       0x99 c:/altera/13.1/nios2eds/bin/gnu/h-i686-mingw32/bin/../lib/gcc/nios2-elf/4.7.3/mno-hw-mul\libgcc.a(_fpcmp_parts_df.o)
 .debug_line    0x000021d5       0x7a c:/altera/13.1/nios2eds/bin/gnu/h-i686-mingw32/bin/../lib/gcc/nios2-elf/4.7.3/mno-hw-mul\libgcc.a(_lshrdi3.o)
 .debug_line    0x0000224f       0x78 c:/altera/13.1/nios2eds/bin/gnu/h-i686-mingw32/bin/../lib/gcc/nios2-elf/4.7.3/mno-hw-mul\libgcc.a(_ashldi3.o)
 .debug_line    0x000022c7       0x56 c:/altera/13.1/nios2eds/bin/gnu/h-i686-mingw32/bin/../lib/gcc/nios2-elf/4.7.3/mno-hw-mul\libgcc.a(_clz.o)
 .debug_line    0x0000231d      0x21b c:/altera/13.1/nios2eds/bin/gnu/h-i686-mingw32/bin/../lib/gcc/nios2-elf/4.7.3/../../../../../H-i686-mingw32/nios2-elf/lib/mno-hw-mul\libc.a(lib_a-printf.o)
 .debug_line    0x00002538      0x238 c:/altera/13.1/nios2eds/bin/gnu/h-i686-mingw32/bin/../lib/gcc/nios2-elf/4.7.3/../../../../../H-i686-mingw32/nios2-elf/lib/mno-hw-mul\libc.a(lib_a-puts.o)
 .debug_line    0x00002770      0x240 c:/altera/13.1/nios2eds/bin/gnu/h-i686-mingw32/bin/../lib/gcc/nios2-elf/4.7.3/../../../../../H-i686-mingw32/nios2-elf/lib/mno-hw-mul\libc.a(lib_a-sprintf.o)
 .debug_line    0x000029b0      0x185 c:/altera/13.1/nios2eds/bin/gnu/h-i686-mingw32/bin/../lib/gcc/nios2-elf/4.7.3/../../../../../H-i686-mingw32/nios2-elf/lib/mno-hw-mul\libc.a(lib_a-strlen.o)
 .debug_line    0x00002b35      0xb06 c:/altera/13.1/nios2eds/bin/gnu/h-i686-mingw32/bin/../lib/gcc/nios2-elf/4.7.3/../../../../../H-i686-mingw32/nios2-elf/lib/mno-hw-mul\libc.a(lib_a-vfprintf.o)
 .debug_line    0x0000363b      0x26e c:/altera/13.1/nios2eds/bin/gnu/h-i686-mingw32/bin/../lib/gcc/nios2-elf/4.7.3/../../../../../H-i686-mingw32/nios2-elf/lib/mno-hw-mul\libc.a(lib_a-wsetup.o)
 .debug_line    0x000038a9      0x893 c:/altera/13.1/nios2eds/bin/gnu/h-i686-mingw32/bin/../lib/gcc/nios2-elf/4.7.3/../../../../../H-i686-mingw32/nios2-elf/lib/mno-hw-mul\libc.a(lib_a-dtoa.o)
 .debug_line    0x0000413c      0x29f c:/altera/13.1/nios2eds/bin/gnu/h-i686-mingw32/bin/../lib/gcc/nios2-elf/4.7.3/../../../../../H-i686-mingw32/nios2-elf/lib/mno-hw-mul\libc.a(lib_a-fflush.o)
 .debug_line    0x000043db      0x2ea c:/altera/13.1/nios2eds/bin/gnu/h-i686-mingw32/bin/../lib/gcc/nios2-elf/4.7.3/../../../../../H-i686-mingw32/nios2-elf/lib/mno-hw-mul\libc.a(lib_a-findfp.o)
 .debug_line    0x000046c5      0x314 c:/altera/13.1/nios2eds/bin/gnu/h-i686-mingw32/bin/../lib/gcc/nios2-elf/4.7.3/../../../../../H-i686-mingw32/nios2-elf/lib/mno-hw-mul\libc.a(lib_a-freer.o)
 .debug_line    0x000049d9      0x363 c:/altera/13.1/nios2eds/bin/gnu/h-i686-mingw32/bin/../lib/gcc/nios2-elf/4.7.3/../../../../../H-i686-mingw32/nios2-elf/lib/mno-hw-mul\libc.a(lib_a-fvwrite.o)
 .debug_line    0x00004d3c      0x25c c:/altera/13.1/nios2eds/bin/gnu/h-i686-mingw32/bin/../lib/gcc/nios2-elf/4.7.3/../../../../../H-i686-mingw32/nios2-elf/lib/mno-hw-mul\libc.a(lib_a-fwalk.o)
 .debug_line    0x00004f98      0x176 c:/altera/13.1/nios2eds/bin/gnu/h-i686-mingw32/bin/../lib/gcc/nios2-elf/4.7.3/../../../../../H-i686-mingw32/nios2-elf/lib/mno-hw-mul\libc.a(lib_a-impure.o)
 .debug_line    0x0000510e      0x234 c:/altera/13.1/nios2eds/bin/gnu/h-i686-mingw32/bin/../lib/gcc/nios2-elf/4.7.3/../../../../../H-i686-mingw32/nios2-elf/lib/mno-hw-mul\libc.a(lib_a-locale.o)
 .debug_line    0x00005342      0x296 c:/altera/13.1/nios2eds/bin/gnu/h-i686-mingw32/bin/../lib/gcc/nios2-elf/4.7.3/../../../../../H-i686-mingw32/nios2-elf/lib/mno-hw-mul\libc.a(lib_a-makebuf.o)
 .debug_line    0x000055d8      0x424 c:/altera/13.1/nios2eds/bin/gnu/h-i686-mingw32/bin/../lib/gcc/nios2-elf/4.7.3/../../../../../H-i686-mingw32/nios2-elf/lib/mno-hw-mul\libc.a(lib_a-mallocr.o)
 .debug_line    0x000059fc      0x1f4 c:/altera/13.1/nios2eds/bin/gnu/h-i686-mingw32/bin/../lib/gcc/nios2-elf/4.7.3/../../../../../H-i686-mingw32/nios2-elf/lib/mno-hw-mul\libc.a(lib_a-memchr.o)
 .debug_line    0x00005bf0      0x144 c:/altera/13.1/nios2eds/bin/gnu/h-i686-mingw32/bin/../lib/gcc/nios2-elf/4.7.3/../../../../../H-i686-mingw32/nios2-elf/lib/mno-hw-mul\libc.a(lib_a-memcpy.o)
 .debug_line    0x00005d34      0x1f9 c:/altera/13.1/nios2eds/bin/gnu/h-i686-mingw32/bin/../lib/gcc/nios2-elf/4.7.3/../../../../../H-i686-mingw32/nios2-elf/lib/mno-hw-mul\libc.a(lib_a-memmove.o)
 .debug_line    0x00005f2d      0x1f4 c:/altera/13.1/nios2eds/bin/gnu/h-i686-mingw32/bin/../lib/gcc/nios2-elf/4.7.3/../../../../../H-i686-mingw32/nios2-elf/lib/mno-hw-mul\libc.a(lib_a-memset.o)
 .debug_line    0x00006121      0x713 c:/altera/13.1/nios2eds/bin/gnu/h-i686-mingw32/bin/../lib/gcc/nios2-elf/4.7.3/../../../../../H-i686-mingw32/nios2-elf/lib/mno-hw-mul\libc.a(lib_a-mprec.o)
 .debug_line    0x00006834      0x333 c:/altera/13.1/nios2eds/bin/gnu/h-i686-mingw32/bin/../lib/gcc/nios2-elf/4.7.3/../../../../../H-i686-mingw32/nios2-elf/lib/mno-hw-mul\libc.a(lib_a-reallocr.o)
 .debug_line    0x00006b67      0x173 c:/altera/13.1/nios2eds/bin/gnu/h-i686-mingw32/bin/../lib/gcc/nios2-elf/4.7.3/../../../../../H-i686-mingw32/nios2-elf/lib/mno-hw-mul\libc.a(lib_a-s_isinfd.o)
 .debug_line    0x00006cda      0x173 c:/altera/13.1/nios2eds/bin/gnu/h-i686-mingw32/bin/../lib/gcc/nios2-elf/4.7.3/../../../../../H-i686-mingw32/nios2-elf/lib/mno-hw-mul\libc.a(lib_a-s_isnand.o)
 .debug_line    0x00006e4d      0x215 c:/altera/13.1/nios2eds/bin/gnu/h-i686-mingw32/bin/../lib/gcc/nios2-elf/4.7.3/../../../../../H-i686-mingw32/nios2-elf/lib/mno-hw-mul\libc.a(lib_a-sbrkr.o)
 .debug_line    0x00007062      0x248 c:/altera/13.1/nios2eds/bin/gnu/h-i686-mingw32/bin/../lib/gcc/nios2-elf/4.7.3/../../../../../H-i686-mingw32/nios2-elf/lib/mno-hw-mul\libc.a(lib_a-stdio.o)
 .debug_line    0x000072aa      0x113 c:/altera/13.1/nios2eds/bin/gnu/h-i686-mingw32/bin/../lib/gcc/nios2-elf/4.7.3/../../../../../H-i686-mingw32/nios2-elf/lib/mno-hw-mul\libc.a(lib_a-strcmp.o)
 .debug_line    0x000073bd      0x216 c:/altera/13.1/nios2eds/bin/gnu/h-i686-mingw32/bin/../lib/gcc/nios2-elf/4.7.3/../../../../../H-i686-mingw32/nios2-elf/lib/mno-hw-mul\libc.a(lib_a-writer.o)
 .debug_line    0x000075d3      0x1c9 c:/altera/13.1/nios2eds/bin/gnu/h-i686-mingw32/bin/../lib/gcc/nios2-elf/4.7.3/../../../../../H-i686-mingw32/nios2-elf/lib/mno-hw-mul\libc.a(lib_a-callocr.o)
 .debug_line    0x0000779c      0x216 c:/altera/13.1/nios2eds/bin/gnu/h-i686-mingw32/bin/../lib/gcc/nios2-elf/4.7.3/../../../../../H-i686-mingw32/nios2-elf/lib/mno-hw-mul\libc.a(lib_a-closer.o)
 .debug_line    0x000079b2      0x269 c:/altera/13.1/nios2eds/bin/gnu/h-i686-mingw32/bin/../lib/gcc/nios2-elf/4.7.3/../../../../../H-i686-mingw32/nios2-elf/lib/mno-hw-mul\libc.a(lib_a-fclose.o)
 .debug_line    0x00007c1b      0x21f c:/altera/13.1/nios2eds/bin/gnu/h-i686-mingw32/bin/../lib/gcc/nios2-elf/4.7.3/../../../../../H-i686-mingw32/nios2-elf/lib/mno-hw-mul\libc.a(lib_a-fstatr.o)
 .debug_line    0x00007e3a       0x60 c:/altera/13.1/nios2eds/bin/gnu/h-i686-mingw32/bin/../lib/gcc/nios2-elf/4.7.3/../../../../../H-i686-mingw32/nios2-elf/lib/mno-hw-mul\libc.a(lib_a-int_errno.o)
 .debug_line    0x00007e9a      0x217 c:/altera/13.1/nios2eds/bin/gnu/h-i686-mingw32/bin/../lib/gcc/nios2-elf/4.7.3/../../../../../H-i686-mingw32/nios2-elf/lib/mno-hw-mul\libc.a(lib_a-isattyr.o)
 .debug_line    0x000080b1      0x221 c:/altera/13.1/nios2eds/bin/gnu/h-i686-mingw32/bin/../lib/gcc/nios2-elf/4.7.3/../../../../../H-i686-mingw32/nios2-elf/lib/mno-hw-mul\libc.a(lib_a-lseekr.o)
 .debug_line    0x000082d2      0x215 c:/altera/13.1/nios2eds/bin/gnu/h-i686-mingw32/bin/../lib/gcc/nios2-elf/4.7.3/../../../../../H-i686-mingw32/nios2-elf/lib/mno-hw-mul\libc.a(lib_a-readr.o)
 .debug_line    0x000084e7      0x11c c:/altera/13.1/nios2eds/bin/gnu/h-i686-mingw32/bin/../lib/gcc/nios2-elf/4.7.3/mno-hw-mul\libgcc.a(_udivdi3.o)
 .debug_line    0x00008603      0x124 c:/altera/13.1/nios2eds/bin/gnu/h-i686-mingw32/bin/../lib/gcc/nios2-elf/4.7.3/mno-hw-mul\libgcc.a(_umoddi3.o)
 .debug_line    0x00008727      0x117 c:/altera/13.1/nios2eds/bin/gnu/h-i686-mingw32/bin/../lib/gcc/nios2-elf/4.7.3/mno-hw-mul\libgcc.a(_mul_df.o)
 .debug_line    0x0000883e       0xd1 c:/altera/13.1/nios2eds/bin/gnu/h-i686-mingw32/bin/../lib/gcc/nios2-elf/4.7.3/mno-hw-mul\libgcc.a(_div_df.o)
 .debug_line    0x0000890f       0x70 c:/altera/13.1/nios2eds/bin/gnu/h-i686-mingw32/bin/../lib/gcc/nios2-elf/4.7.3/mno-hw-mul\libgcc.a(_eq_df.o)
 .debug_line    0x0000897f       0x70 c:/altera/13.1/nios2eds/bin/gnu/h-i686-mingw32/bin/../lib/gcc/nios2-elf/4.7.3/mno-hw-mul\libgcc.a(_ne_df.o)
 .debug_line    0x000089ef       0x71 c:/altera/13.1/nios2eds/bin/gnu/h-i686-mingw32/bin/../lib/gcc/nios2-elf/4.7.3/mno-hw-mul\libgcc.a(_gt_df.o)
 .debug_line    0x00008a60       0x70 c:/altera/13.1/nios2eds/bin/gnu/h-i686-mingw32/bin/../lib/gcc/nios2-elf/4.7.3/mno-hw-mul\libgcc.a(_lt_df.o)
 .debug_line    0x00008ad0       0x97 c:/altera/13.1/nios2eds/bin/gnu/h-i686-mingw32/bin/../lib/gcc/nios2-elf/4.7.3/mno-hw-mul\libgcc.a(_si_to_df.o)
 .debug_line    0x00008b67       0xa2 c:/altera/13.1/nios2eds/bin/gnu/h-i686-mingw32/bin/../lib/gcc/nios2-elf/4.7.3/mno-hw-mul\libgcc.a(_muldi3.o)
 .debug_line    0x00008c09      0x186 ../Controller_sw_bsp/\libhal_bsp.a(alt_close.o)
 .debug_line    0x00008d8f      0x119 ../Controller_sw_bsp/\libhal_bsp.a(alt_dev.o)
 .debug_line    0x00008ea8       0x51 ../Controller_sw_bsp/\libhal_bsp.a(alt_errno.o)
 .debug_line    0x00008ef9      0x180 ../Controller_sw_bsp/\libhal_bsp.a(alt_fstat.o)
 .debug_line    0x00009079       0xed ../Controller_sw_bsp/\libhal_bsp.a(alt_iic.o)
 .debug_line    0x00009166       0xdb ../Controller_sw_bsp/\libhal_bsp.a(alt_iic_isr_register.o)
 .debug_line    0x00009241       0x6b ../Controller_sw_bsp/\libhal_bsp.a(alt_irq_entry.o)
 .debug_line    0x000092ac       0xae ../Controller_sw_bsp/\libhal_bsp.a(alt_irq_handler.o)
 .debug_line    0x0000935a       0x50 ../Controller_sw_bsp/\libhal_bsp.a(alt_irq_vars.o)
 .debug_line    0x000093aa      0x180 ../Controller_sw_bsp/\libhal_bsp.a(alt_isatty.o)
 .debug_line    0x0000952a      0x184 ../Controller_sw_bsp/\libhal_bsp.a(alt_lseek.o)
 .debug_line    0x000096ae       0xa4 ../Controller_sw_bsp/\libhal_bsp.a(alt_main.o)
 .debug_line    0x00009752      0x13f ../Controller_sw_bsp/\libhal_bsp.a(alt_malloc_lock.o)
 .debug_line    0x00009891      0x1f9 ../Controller_sw_bsp/\libhal_bsp.a(alt_read.o)
 .debug_line    0x00009a8a       0xb0 ../Controller_sw_bsp/\libhal_bsp.a(alt_release_fd.o)
 .debug_line    0x00009b3a      0x114 ../Controller_sw_bsp/\libhal_bsp.a(alt_sbrk.o)
 .debug_line    0x00009c4e      0x1f8 ../Controller_sw_bsp/\libhal_bsp.a(alt_write.o)
 .debug_line    0x00009e46      0x1be ../Controller_sw_bsp/\libhal_bsp.a(alt_sys_init.o)
 .debug_line    0x0000a004      0x2af ../Controller_sw_bsp/\libhal_bsp.a(altera_avalon_epcs_flash_controller.o)
 .debug_line    0x0000a2b3      0x131 ../Controller_sw_bsp/\libhal_bsp.a(altera_avalon_jtag_uart_fd.o)
 .debug_line    0x0000a3e4      0x199 ../Controller_sw_bsp/\libhal_bsp.a(altera_avalon_jtag_uart_init.o)
 .debug_line    0x0000a57d      0x129 ../Controller_sw_bsp/\libhal_bsp.a(altera_avalon_jtag_uart_ioctl.o)
 .debug_line    0x0000a6a6      0x174 ../Controller_sw_bsp/\libhal_bsp.a(altera_avalon_jtag_uart_read.o)
 .debug_line    0x0000a81a      0x173 ../Controller_sw_bsp/\libhal_bsp.a(altera_avalon_jtag_uart_write.o)
 .debug_line    0x0000a98d       0xf0 ../Controller_sw_bsp/\libhal_bsp.a(altera_avalon_uart_fd.o)
 .debug_line    0x0000aa7d      0x182 ../Controller_sw_bsp/\libhal_bsp.a(altera_avalon_uart_init.o)
 .debug_line    0x0000abff      0x188 ../Controller_sw_bsp/\libhal_bsp.a(altera_avalon_uart_read.o)
 .debug_line    0x0000ad87      0x166 ../Controller_sw_bsp/\libhal_bsp.a(altera_avalon_uart_write.o)
 .debug_line    0x0000aeed      0x118 ../Controller_sw_bsp/\libhal_bsp.a(epcs_commands.o)
 .debug_line    0x0000b005       0xfa ../Controller_sw_bsp/\libhal_bsp.a(alt_alarm_start.o)
 .debug_line    0x0000b0ff       0xd0 ../Controller_sw_bsp/\libhal_bsp.a(alt_dev_llist_insert.o)
 .debug_line    0x0000b1cf       0x59 ../Controller_sw_bsp/\libhal_bsp.a(alt_do_ctors.o)
 .debug_line    0x0000b228       0x59 ../Controller_sw_bsp/\libhal_bsp.a(alt_do_dtors.o)
 .debug_line    0x0000b281       0xab ../Controller_sw_bsp/\libhal_bsp.a(alt_exception_entry.o)
 .debug_line    0x0000b32c       0xc5 ../Controller_sw_bsp/\libhal_bsp.a(alt_flash_dev.o)
 .debug_line    0x0000b3f1      0x156 ../Controller_sw_bsp/\libhal_bsp.a(alt_io_redirect.o)
 .debug_line    0x0000b547      0x128 ../Controller_sw_bsp/\libhal_bsp.a(alt_open.o)
 .debug_line    0x0000b66f      0x102 ../Controller_sw_bsp/\libhal_bsp.a(alt_tick.o)
 .debug_line    0x0000b771       0x51 ../Controller_sw_bsp/\libhal_bsp.a(altera_nios2_qsys_irq.o)
 .debug_line    0x0000b7c2       0xb6 ../Controller_sw_bsp/\libhal_bsp.a(altera_avalon_spi.o)
 .debug_line    0x0000b878       0xb9 ../Controller_sw_bsp/\libhal_bsp.a(alt_find_dev.o)
 .debug_line    0x0000b931       0xd5 ../Controller_sw_bsp/\libhal_bsp.a(alt_find_file.o)
 .debug_line    0x0000ba06       0xd4 ../Controller_sw_bsp/\libhal_bsp.a(alt_get_fd.o)
 .debug_line    0x0000bada      0x170 c:/altera/13.1/nios2eds/bin/gnu/h-i686-mingw32/bin/../lib/gcc/nios2-elf/4.7.3/../../../../../H-i686-mingw32/nios2-elf/lib/mno-hw-mul\libc.a(lib_a-atexit.o)
 .debug_line    0x0000bc4a      0x21c c:/altera/13.1/nios2eds/bin/gnu/h-i686-mingw32/bin/../lib/gcc/nios2-elf/4.7.3/../../../../../H-i686-mingw32/nios2-elf/lib/mno-hw-mul\libc.a(lib_a-exit.o)
 .debug_line    0x0000be66      0x190 c:/altera/13.1/nios2eds/bin/gnu/h-i686-mingw32/bin/../lib/gcc/nios2-elf/4.7.3/../../../../../H-i686-mingw32/nios2-elf/lib/mno-hw-mul\libc.a(lib_a-memcmp.o)
 .debug_line    0x0000bff6      0x253 c:/altera/13.1/nios2eds/bin/gnu/h-i686-mingw32/bin/../lib/gcc/nios2-elf/4.7.3/../../../../../H-i686-mingw32/nios2-elf/lib/mno-hw-mul\libc.a(lib_a-__atexit.o)
 .debug_line    0x0000c249      0x267 c:/altera/13.1/nios2eds/bin/gnu/h-i686-mingw32/bin/../lib/gcc/nios2-elf/4.7.3/../../../../../H-i686-mingw32/nios2-elf/lib/mno-hw-mul\libc.a(lib_a-__call_atexit.o)
 .debug_line    0x0000c4b0       0x71 ../Controller_sw_bsp/\libhal_bsp.a(alt_exit.o)

.debug_frame    0x00000000     0x2c70
 *(.debug_frame)
 .debug_frame   0x00000000       0x9c obj/default/driver/Counter.o
 .debug_frame   0x0000009c      0x10c obj/default/driver/DisDriver.o
 .debug_frame   0x000001a8       0x9c obj/default/driver/FRAM.o
 .debug_frame   0x00000244      0x17c obj/default/driver/KPLED.o
 .debug_frame   0x000003c0       0xf0 obj/default/driver/comInterface.o
 .debug_frame   0x000004b0       0x2c obj/default/driver/coverPage.o
 .debug_frame   0x000004dc       0x2c obj/default/driver/delay.o
 .debug_frame   0x00000508      0x164 obj/default/driver/loadWriteData.o
 .debug_frame   0x0000066c       0x48 obj/default/driver/powerFailure.o
 .debug_frame   0x000006b4       0xa0 obj/default/driver/uart.o
 .debug_frame   0x00000754       0x80 obj/default/main/TopMenu.o
 .debug_frame   0x000007d4       0x2c obj/default/main/main.o
 .debug_frame   0x00000800      0x10c obj/default/menuComponent/FireMenu.o
 .debug_frame   0x0000090c       0x48 obj/default/menuComponent/HeaterWarmingUp.o
 .debug_frame   0x00000954       0x80 obj/default/menuComponent/ParameterMenu.o
 .debug_frame   0x000009d4       0x64 obj/default/menuComponent/RemoteMenu.o
 .debug_frame   0x00000a38       0xa0 obj/default/menuComponent/SaveLoadMenu.o
 .debug_frame   0x00000ad8       0x80 obj/default/menuComponent/ShotCountersMenu.o
 .debug_frame   0x00000b58       0x9c obj/default/menuComponent/ShutdownMenu.o
 .debug_frame   0x00000bf4       0x9c obj/default/menuComponent/StartupMenu.o
 .debug_frame   0x00000c90       0xbc obj/default/menuComponent/editNum10.o
 .debug_frame   0x00000d4c       0x80 obj/default/menuComponent/editNum2.o
 .debug_frame   0x00000dcc       0x84 obj/default/menuComponent/editNum5.o
 .debug_frame   0x00000e50       0x64 obj/default/menuComponent/enterPWD.o
 .debug_frame   0x00000eb4       0xd8 obj/default/menuComponent/errorCheck.o
 .debug_frame   0x00000f8c       0x2c obj/default/menuComponent/pwdPage.o
 .debug_frame   0x00000fb8       0x48 obj/default/menuComponent/repPage.o
 .debug_frame   0x00001000       0x48 obj/default/menuComponent/shotPage.o
 .debug_frame   0x00001048       0x68 obj/default/menuComponent/timingPage.o
 .debug_frame   0x000010b0       0x2c c:/altera/13.1/nios2eds/bin/gnu/h-i686-mingw32/bin/../lib/gcc/nios2-elf/4.7.3/mno-hw-mul\libgcc.a(_fixunsdfsi.o)
 .debug_frame   0x000010dc       0x50 c:/altera/13.1/nios2eds/bin/gnu/h-i686-mingw32/bin/../lib/gcc/nios2-elf/4.7.3/mno-hw-mul\libgcc.a(_addsub_df.o)
 .debug_frame   0x0000112c       0x28 c:/altera/13.1/nios2eds/bin/gnu/h-i686-mingw32/bin/../lib/gcc/nios2-elf/4.7.3/mno-hw-mul\libgcc.a(_ge_df.o)
 .debug_frame   0x00001154       0x28 c:/altera/13.1/nios2eds/bin/gnu/h-i686-mingw32/bin/../lib/gcc/nios2-elf/4.7.3/mno-hw-mul\libgcc.a(_df_to_si.o)
 .debug_frame   0x0000117c       0x28 c:/altera/13.1/nios2eds/bin/gnu/h-i686-mingw32/bin/../lib/gcc/nios2-elf/4.7.3/mno-hw-mul\libgcc.a(_usi_to_df.o)
 .debug_frame   0x000011a4       0x70 c:/altera/13.1/nios2eds/bin/gnu/h-i686-mingw32/bin/../lib/gcc/nios2-elf/4.7.3/mno-hw-mul\libgcc.a(lib2-divmod.o)
 .debug_frame   0x00001214       0x20 c:/altera/13.1/nios2eds/bin/gnu/h-i686-mingw32/bin/../lib/gcc/nios2-elf/4.7.3/mno-hw-mul\libgcc.a(lib2-mul.o)
 .debug_frame   0x00001234       0x20 c:/altera/13.1/nios2eds/bin/gnu/h-i686-mingw32/bin/../lib/gcc/nios2-elf/4.7.3/mno-hw-mul\libgcc.a(_clzsi2.o)
 .debug_frame   0x00001254       0x34 c:/altera/13.1/nios2eds/bin/gnu/h-i686-mingw32/bin/../lib/gcc/nios2-elf/4.7.3/mno-hw-mul\libgcc.a(_pack_df.o)
 .debug_frame   0x00001288       0x20 c:/altera/13.1/nios2eds/bin/gnu/h-i686-mingw32/bin/../lib/gcc/nios2-elf/4.7.3/mno-hw-mul\libgcc.a(_unpack_df.o)
 .debug_frame   0x000012a8       0x20 c:/altera/13.1/nios2eds/bin/gnu/h-i686-mingw32/bin/../lib/gcc/nios2-elf/4.7.3/mno-hw-mul\libgcc.a(_fpcmp_parts_df.o)
 .debug_frame   0x000012c8       0x20 c:/altera/13.1/nios2eds/bin/gnu/h-i686-mingw32/bin/../lib/gcc/nios2-elf/4.7.3/mno-hw-mul\libgcc.a(_lshrdi3.o)
 .debug_frame   0x000012e8       0x20 c:/altera/13.1/nios2eds/bin/gnu/h-i686-mingw32/bin/../lib/gcc/nios2-elf/4.7.3/mno-hw-mul\libgcc.a(_ashldi3.o)
 .debug_frame   0x00001308       0x40 c:/altera/13.1/nios2eds/bin/gnu/h-i686-mingw32/bin/../lib/gcc/nios2-elf/4.7.3/../../../../../H-i686-mingw32/nios2-elf/lib/mno-hw-mul\libc.a(lib_a-printf.o)
 .debug_frame   0x00001348       0x3c c:/altera/13.1/nios2eds/bin/gnu/h-i686-mingw32/bin/../lib/gcc/nios2-elf/4.7.3/../../../../../H-i686-mingw32/nios2-elf/lib/mno-hw-mul\libc.a(lib_a-puts.o)
 .debug_frame   0x00001384       0x40 c:/altera/13.1/nios2eds/bin/gnu/h-i686-mingw32/bin/../lib/gcc/nios2-elf/4.7.3/../../../../../H-i686-mingw32/nios2-elf/lib/mno-hw-mul\libc.a(lib_a-sprintf.o)
 .debug_frame   0x000013c4       0x20 c:/altera/13.1/nios2eds/bin/gnu/h-i686-mingw32/bin/../lib/gcc/nios2-elf/4.7.3/../../../../../H-i686-mingw32/nios2-elf/lib/mno-hw-mul\libc.a(lib_a-strlen.o)
 .debug_frame   0x000013e4       0x64 c:/altera/13.1/nios2eds/bin/gnu/h-i686-mingw32/bin/../lib/gcc/nios2-elf/4.7.3/../../../../../H-i686-mingw32/nios2-elf/lib/mno-hw-mul\libc.a(lib_a-vfprintf.o)
 .debug_frame   0x00001448       0x2c c:/altera/13.1/nios2eds/bin/gnu/h-i686-mingw32/bin/../lib/gcc/nios2-elf/4.7.3/../../../../../H-i686-mingw32/nios2-elf/lib/mno-hw-mul\libc.a(lib_a-wsetup.o)
 .debug_frame   0x00001474       0x68 c:/altera/13.1/nios2eds/bin/gnu/h-i686-mingw32/bin/../lib/gcc/nios2-elf/4.7.3/../../../../../H-i686-mingw32/nios2-elf/lib/mno-hw-mul\libc.a(lib_a-dtoa.o)
 .debug_frame   0x000014dc       0x40 c:/altera/13.1/nios2eds/bin/gnu/h-i686-mingw32/bin/../lib/gcc/nios2-elf/4.7.3/../../../../../H-i686-mingw32/nios2-elf/lib/mno-hw-mul\libc.a(lib_a-fflush.o)
 .debug_frame   0x0000151c      0x100 c:/altera/13.1/nios2eds/bin/gnu/h-i686-mingw32/bin/../lib/gcc/nios2-elf/4.7.3/../../../../../H-i686-mingw32/nios2-elf/lib/mno-hw-mul\libc.a(lib_a-findfp.o)
 .debug_frame   0x0000161c       0x4c c:/altera/13.1/nios2eds/bin/gnu/h-i686-mingw32/bin/../lib/gcc/nios2-elf/4.7.3/../../../../../H-i686-mingw32/nios2-elf/lib/mno-hw-mul\libc.a(lib_a-freer.o)
 .debug_frame   0x00001668       0x38 c:/altera/13.1/nios2eds/bin/gnu/h-i686-mingw32/bin/../lib/gcc/nios2-elf/4.7.3/../../../../../H-i686-mingw32/nios2-elf/lib/mno-hw-mul\libc.a(lib_a-fvwrite.o)
 .debug_frame   0x000016a0       0x5c c:/altera/13.1/nios2eds/bin/gnu/h-i686-mingw32/bin/../lib/gcc/nios2-elf/4.7.3/../../../../../H-i686-mingw32/nios2-elf/lib/mno-hw-mul\libc.a(lib_a-fwalk.o)
 .debug_frame   0x000016fc       0x6c c:/altera/13.1/nios2eds/bin/gnu/h-i686-mingw32/bin/../lib/gcc/nios2-elf/4.7.3/../../../../../H-i686-mingw32/nios2-elf/lib/mno-hw-mul\libc.a(lib_a-locale.o)
 .debug_frame   0x00001768       0x2c c:/altera/13.1/nios2eds/bin/gnu/h-i686-mingw32/bin/../lib/gcc/nios2-elf/4.7.3/../../../../../H-i686-mingw32/nios2-elf/lib/mno-hw-mul\libc.a(lib_a-makebuf.o)
 .debug_frame   0x00001794       0x38 c:/altera/13.1/nios2eds/bin/gnu/h-i686-mingw32/bin/../lib/gcc/nios2-elf/4.7.3/../../../../../H-i686-mingw32/nios2-elf/lib/mno-hw-mul\libc.a(lib_a-mallocr.o)
 .debug_frame   0x000017cc       0x20 c:/altera/13.1/nios2eds/bin/gnu/h-i686-mingw32/bin/../lib/gcc/nios2-elf/4.7.3/../../../../../H-i686-mingw32/nios2-elf/lib/mno-hw-mul\libc.a(lib_a-memchr.o)
 .debug_frame   0x000017ec       0x30 c:/altera/13.1/nios2eds/bin/gnu/h-i686-mingw32/bin/../lib/gcc/nios2-elf/4.7.3/../../../../../H-i686-mingw32/nios2-elf/lib/mno-hw-mul\libc.a(lib_a-memcpy.o)
 .debug_frame   0x0000181c       0x30 c:/altera/13.1/nios2eds/bin/gnu/h-i686-mingw32/bin/../lib/gcc/nios2-elf/4.7.3/../../../../../H-i686-mingw32/nios2-elf/lib/mno-hw-mul\libc.a(lib_a-memmove.o)
 .debug_frame   0x0000184c       0x20 c:/altera/13.1/nios2eds/bin/gnu/h-i686-mingw32/bin/../lib/gcc/nios2-elf/4.7.3/../../../../../H-i686-mingw32/nios2-elf/lib/mno-hw-mul\libc.a(lib_a-memset.o)
 .debug_frame   0x0000186c      0x218 c:/altera/13.1/nios2eds/bin/gnu/h-i686-mingw32/bin/../lib/gcc/nios2-elf/4.7.3/../../../../../H-i686-mingw32/nios2-elf/lib/mno-hw-mul\libc.a(lib_a-mprec.o)
 .debug_frame   0x00001a84       0x38 c:/altera/13.1/nios2eds/bin/gnu/h-i686-mingw32/bin/../lib/gcc/nios2-elf/4.7.3/../../../../../H-i686-mingw32/nios2-elf/lib/mno-hw-mul\libc.a(lib_a-reallocr.o)
 .debug_frame   0x00001abc       0x20 c:/altera/13.1/nios2eds/bin/gnu/h-i686-mingw32/bin/../lib/gcc/nios2-elf/4.7.3/../../../../../H-i686-mingw32/nios2-elf/lib/mno-hw-mul\libc.a(lib_a-s_isinfd.o)
 .debug_frame   0x00001adc       0x20 c:/altera/13.1/nios2eds/bin/gnu/h-i686-mingw32/bin/../lib/gcc/nios2-elf/4.7.3/../../../../../H-i686-mingw32/nios2-elf/lib/mno-hw-mul\libc.a(lib_a-s_isnand.o)
 .debug_frame   0x00001afc       0x2c c:/altera/13.1/nios2eds/bin/gnu/h-i686-mingw32/bin/../lib/gcc/nios2-elf/4.7.3/../../../../../H-i686-mingw32/nios2-elf/lib/mno-hw-mul\libc.a(lib_a-sbrkr.o)
 .debug_frame   0x00001b28       0x78 c:/altera/13.1/nios2eds/bin/gnu/h-i686-mingw32/bin/../lib/gcc/nios2-elf/4.7.3/../../../../../H-i686-mingw32/nios2-elf/lib/mno-hw-mul\libc.a(lib_a-stdio.o)
 .debug_frame   0x00001ba0       0x20 c:/altera/13.1/nios2eds/bin/gnu/h-i686-mingw32/bin/../lib/gcc/nios2-elf/4.7.3/../../../../../H-i686-mingw32/nios2-elf/lib/mno-hw-mul\libc.a(lib_a-strcmp.o)
 .debug_frame   0x00001bc0       0x2c c:/altera/13.1/nios2eds/bin/gnu/h-i686-mingw32/bin/../lib/gcc/nios2-elf/4.7.3/../../../../../H-i686-mingw32/nios2-elf/lib/mno-hw-mul\libc.a(lib_a-writer.o)
 .debug_frame   0x00001bec       0x2c c:/altera/13.1/nios2eds/bin/gnu/h-i686-mingw32/bin/../lib/gcc/nios2-elf/4.7.3/../../../../../H-i686-mingw32/nios2-elf/lib/mno-hw-mul\libc.a(lib_a-callocr.o)
 .debug_frame   0x00001c18       0x2c c:/altera/13.1/nios2eds/bin/gnu/h-i686-mingw32/bin/../lib/gcc/nios2-elf/4.7.3/../../../../../H-i686-mingw32/nios2-elf/lib/mno-hw-mul\libc.a(lib_a-closer.o)
 .debug_frame   0x00001c44       0x3c c:/altera/13.1/nios2eds/bin/gnu/h-i686-mingw32/bin/../lib/gcc/nios2-elf/4.7.3/../../../../../H-i686-mingw32/nios2-elf/lib/mno-hw-mul\libc.a(lib_a-fclose.o)
 .debug_frame   0x00001c80       0x2c c:/altera/13.1/nios2eds/bin/gnu/h-i686-mingw32/bin/../lib/gcc/nios2-elf/4.7.3/../../../../../H-i686-mingw32/nios2-elf/lib/mno-hw-mul\libc.a(lib_a-fstatr.o)
 .debug_frame   0x00001cac       0x2c c:/altera/13.1/nios2eds/bin/gnu/h-i686-mingw32/bin/../lib/gcc/nios2-elf/4.7.3/../../../../../H-i686-mingw32/nios2-elf/lib/mno-hw-mul\libc.a(lib_a-isattyr.o)
 .debug_frame   0x00001cd8       0x2c c:/altera/13.1/nios2eds/bin/gnu/h-i686-mingw32/bin/../lib/gcc/nios2-elf/4.7.3/../../../../../H-i686-mingw32/nios2-elf/lib/mno-hw-mul\libc.a(lib_a-lseekr.o)
 .debug_frame   0x00001d04       0x2c c:/altera/13.1/nios2eds/bin/gnu/h-i686-mingw32/bin/../lib/gcc/nios2-elf/4.7.3/../../../../../H-i686-mingw32/nios2-elf/lib/mno-hw-mul\libc.a(lib_a-readr.o)
 .debug_frame   0x00001d30       0x38 c:/altera/13.1/nios2eds/bin/gnu/h-i686-mingw32/bin/../lib/gcc/nios2-elf/4.7.3/mno-hw-mul\libgcc.a(_udivdi3.o)
 .debug_frame   0x00001d68       0x38 c:/altera/13.1/nios2eds/bin/gnu/h-i686-mingw32/bin/../lib/gcc/nios2-elf/4.7.3/mno-hw-mul\libgcc.a(_umoddi3.o)
 .debug_frame   0x00001da0       0x38 c:/altera/13.1/nios2eds/bin/gnu/h-i686-mingw32/bin/../lib/gcc/nios2-elf/4.7.3/mno-hw-mul\libgcc.a(_mul_df.o)
 .debug_frame   0x00001dd8       0x28 c:/altera/13.1/nios2eds/bin/gnu/h-i686-mingw32/bin/../lib/gcc/nios2-elf/4.7.3/mno-hw-mul\libgcc.a(_div_df.o)
 .debug_frame   0x00001e00       0x28 c:/altera/13.1/nios2eds/bin/gnu/h-i686-mingw32/bin/../lib/gcc/nios2-elf/4.7.3/mno-hw-mul\libgcc.a(_eq_df.o)
 .debug_frame   0x00001e28       0x28 c:/altera/13.1/nios2eds/bin/gnu/h-i686-mingw32/bin/../lib/gcc/nios2-elf/4.7.3/mno-hw-mul\libgcc.a(_ne_df.o)
 .debug_frame   0x00001e50       0x28 c:/altera/13.1/nios2eds/bin/gnu/h-i686-mingw32/bin/../lib/gcc/nios2-elf/4.7.3/mno-hw-mul\libgcc.a(_gt_df.o)
 .debug_frame   0x00001e78       0x28 c:/altera/13.1/nios2eds/bin/gnu/h-i686-mingw32/bin/../lib/gcc/nios2-elf/4.7.3/mno-hw-mul\libgcc.a(_lt_df.o)
 .debug_frame   0x00001ea0       0x28 c:/altera/13.1/nios2eds/bin/gnu/h-i686-mingw32/bin/../lib/gcc/nios2-elf/4.7.3/mno-hw-mul\libgcc.a(_si_to_df.o)
 .debug_frame   0x00001ec8       0x3c c:/altera/13.1/nios2eds/bin/gnu/h-i686-mingw32/bin/../lib/gcc/nios2-elf/4.7.3/mno-hw-mul\libgcc.a(_muldi3.o)
 .debug_frame   0x00001f04       0x48 ../Controller_sw_bsp/\libhal_bsp.a(alt_close.o)
 .debug_frame   0x00001f4c       0x2c ../Controller_sw_bsp/\libhal_bsp.a(alt_dev.o)
 .debug_frame   0x00001f78       0x48 ../Controller_sw_bsp/\libhal_bsp.a(alt_fstat.o)
 .debug_frame   0x00001fc0       0x80 ../Controller_sw_bsp/\libhal_bsp.a(alt_iic.o)
 .debug_frame   0x00002040       0x2c ../Controller_sw_bsp/\libhal_bsp.a(alt_iic_isr_register.o)
 .debug_frame   0x0000206c       0x2c ../Controller_sw_bsp/\libhal_bsp.a(alt_irq_handler.o)
 .debug_frame   0x00002098       0x48 ../Controller_sw_bsp/\libhal_bsp.a(alt_isatty.o)
 .debug_frame   0x000020e0       0x48 ../Controller_sw_bsp/\libhal_bsp.a(alt_lseek.o)
 .debug_frame   0x00002128       0x2c ../Controller_sw_bsp/\libhal_bsp.a(alt_main.o)
 .debug_frame   0x00002154       0x48 ../Controller_sw_bsp/\libhal_bsp.a(alt_malloc_lock.o)
 .debug_frame   0x0000219c       0x48 ../Controller_sw_bsp/\libhal_bsp.a(alt_read.o)
 .debug_frame   0x000021e4       0x30 ../Controller_sw_bsp/\libhal_bsp.a(alt_release_fd.o)
 .debug_frame   0x00002214       0x2c ../Controller_sw_bsp/\libhal_bsp.a(alt_sbrk.o)
 .debug_frame   0x00002240       0x48 ../Controller_sw_bsp/\libhal_bsp.a(alt_write.o)
 .debug_frame   0x00002288       0x64 ../Controller_sw_bsp/\libhal_bsp.a(alt_sys_init.o)
 .debug_frame   0x000022ec      0x128 ../Controller_sw_bsp/\libhal_bsp.a(altera_avalon_epcs_flash_controller.o)
 .debug_frame   0x00002414       0x80 ../Controller_sw_bsp/\libhal_bsp.a(altera_avalon_jtag_uart_fd.o)
 .debug_frame   0x00002494       0x80 ../Controller_sw_bsp/\libhal_bsp.a(altera_avalon_jtag_uart_init.o)
 .debug_frame   0x00002514       0x2c ../Controller_sw_bsp/\libhal_bsp.a(altera_avalon_jtag_uart_ioctl.o)
 .debug_frame   0x00002540       0x2c ../Controller_sw_bsp/\libhal_bsp.a(altera_avalon_jtag_uart_read.o)
 .debug_frame   0x0000256c       0x2c ../Controller_sw_bsp/\libhal_bsp.a(altera_avalon_jtag_uart_write.o)
 .debug_frame   0x00002598       0x64 ../Controller_sw_bsp/\libhal_bsp.a(altera_avalon_uart_fd.o)
 .debug_frame   0x000025fc       0x9c ../Controller_sw_bsp/\libhal_bsp.a(altera_avalon_uart_init.o)
 .debug_frame   0x00002698       0x48 ../Controller_sw_bsp/\libhal_bsp.a(altera_avalon_uart_read.o)
 .debug_frame   0x000026e0       0x48 ../Controller_sw_bsp/\libhal_bsp.a(altera_avalon_uart_write.o)
 .debug_frame   0x00002728      0x160 ../Controller_sw_bsp/\libhal_bsp.a(epcs_commands.o)
 .debug_frame   0x00002888       0x2c ../Controller_sw_bsp/\libhal_bsp.a(alt_alarm_start.o)
 .debug_frame   0x000028b4       0x48 ../Controller_sw_bsp/\libhal_bsp.a(alt_dev_llist_insert.o)
 .debug_frame   0x000028fc       0x2c ../Controller_sw_bsp/\libhal_bsp.a(alt_do_ctors.o)
 .debug_frame   0x00002928       0x2c ../Controller_sw_bsp/\libhal_bsp.a(alt_do_dtors.o)
 .debug_frame   0x00002954       0x48 ../Controller_sw_bsp/\libhal_bsp.a(alt_flash_dev.o)
 .debug_frame   0x0000299c       0x4c ../Controller_sw_bsp/\libhal_bsp.a(alt_io_redirect.o)
 .debug_frame   0x000029e8       0x68 ../Controller_sw_bsp/\libhal_bsp.a(alt_open.o)
 .debug_frame   0x00002a50       0x48 ../Controller_sw_bsp/\libhal_bsp.a(alt_tick.o)
 .debug_frame   0x00002a98       0x2c ../Controller_sw_bsp/\libhal_bsp.a(altera_nios2_qsys_irq.o)
 .debug_frame   0x00002ac4       0x2c ../Controller_sw_bsp/\libhal_bsp.a(altera_avalon_spi.o)
 .debug_frame   0x00002af0       0x2c ../Controller_sw_bsp/\libhal_bsp.a(alt_find_dev.o)
 .debug_frame   0x00002b1c       0x2c ../Controller_sw_bsp/\libhal_bsp.a(alt_find_file.o)
 .debug_frame   0x00002b48       0x30 ../Controller_sw_bsp/\libhal_bsp.a(alt_get_fd.o)
 .debug_frame   0x00002b78       0x20 c:/altera/13.1/nios2eds/bin/gnu/h-i686-mingw32/bin/../lib/gcc/nios2-elf/4.7.3/../../../../../H-i686-mingw32/nios2-elf/lib/mno-hw-mul\libc.a(lib_a-atexit.o)
 .debug_frame   0x00002b98       0x28 c:/altera/13.1/nios2eds/bin/gnu/h-i686-mingw32/bin/../lib/gcc/nios2-elf/4.7.3/../../../../../H-i686-mingw32/nios2-elf/lib/mno-hw-mul\libc.a(lib_a-exit.o)
 .debug_frame   0x00002bc0       0x20 c:/altera/13.1/nios2eds/bin/gnu/h-i686-mingw32/bin/../lib/gcc/nios2-elf/4.7.3/../../../../../H-i686-mingw32/nios2-elf/lib/mno-hw-mul\libc.a(lib_a-memcmp.o)
 .debug_frame   0x00002be0       0x2c c:/altera/13.1/nios2eds/bin/gnu/h-i686-mingw32/bin/../lib/gcc/nios2-elf/4.7.3/../../../../../H-i686-mingw32/nios2-elf/lib/mno-hw-mul\libc.a(lib_a-__atexit.o)
 .debug_frame   0x00002c0c       0x38 c:/altera/13.1/nios2eds/bin/gnu/h-i686-mingw32/bin/../lib/gcc/nios2-elf/4.7.3/../../../../../H-i686-mingw32/nios2-elf/lib/mno-hw-mul\libc.a(lib_a-__call_atexit.o)
 .debug_frame   0x00002c44       0x2c ../Controller_sw_bsp/\libhal_bsp.a(alt_exit.o)

.debug_str      0x00000000     0x410a
 *(.debug_str)
 .debug_str     0x00000000      0x13b obj/default/driver/Counter.o
                                0x174 (size before relaxing)
 .debug_str     0x0000013b       0x6e obj/default/driver/DisDriver.o
                                0x15f (size before relaxing)
 .debug_str     0x000001a9       0x9e obj/default/driver/FRAM.o
                                0x18f (size before relaxing)
 .debug_str     0x00000247       0xde obj/default/driver/KPLED.o
                                0x146 (size before relaxing)
 .debug_str     0x00000325       0xc2 obj/default/driver/comInterface.o
                                0x1a0 (size before relaxing)
 .debug_str     0x000003e7       0x2e obj/default/driver/coverPage.o
                                0x11c (size before relaxing)
 .debug_str     0x00000415       0x15 obj/default/driver/delay.o
                                 0x6a (size before relaxing)
 .debug_str     0x0000042a       0xde obj/default/driver/loadWriteData.o
                                0x1cf (size before relaxing)
 .debug_str     0x00000508       0x40 obj/default/driver/powerFailure.o
                                0x135 (size before relaxing)
 .debug_str     0x00000548       0xd0 obj/default/driver/uart.o
                                0x23f (size before relaxing)
 .debug_str     0x00000618       0x6a obj/default/main/TopMenu.o
                                0x15e (size before relaxing)
 .debug_str     0x00000682        0xc obj/default/main/main.o
                                0x100 (size before relaxing)
 .debug_str     0x0000068e      0x18a obj/default/menuComponent/FireMenu.o
                                0x22d (size before relaxing)
 .debug_str     0x00000818       0x3e obj/default/menuComponent/HeaterWarmingUp.o
                                 0xb4 (size before relaxing)
 .debug_str     0x00000856       0x6c obj/default/menuComponent/ParameterMenu.o
                                 0xee (size before relaxing)
 .debug_str     0x000008c2       0x4b obj/default/menuComponent/RemoteMenu.o
                                 0xc2 (size before relaxing)
 .debug_str     0x0000090d       0x7c obj/default/menuComponent/SaveLoadMenu.o
                                0x11c (size before relaxing)
 .debug_str     0x00000989       0x9a obj/default/menuComponent/ShotCountersMenu.o
                                0x12a (size before relaxing)
 .debug_str     0x00000a23       0x83 obj/default/menuComponent/ShutdownMenu.o
                                0x10a (size before relaxing)
 .debug_str     0x00000aa6       0x7d obj/default/menuComponent/StartupMenu.o
                                0x113 (size before relaxing)
 .debug_str     0x00000b23       0x95 obj/default/menuComponent/editNum10.o
                                0x11c (size before relaxing)
 .debug_str     0x00000bb8       0x42 obj/default/menuComponent/editNum2.o
                                 0xeb (size before relaxing)
 .debug_str     0x00000bfa       0x4d obj/default/menuComponent/editNum5.o
                                 0xeb (size before relaxing)
 .debug_str     0x00000c47       0x47 obj/default/menuComponent/enterPWD.o
                                 0xd0 (size before relaxing)
 .debug_str     0x00000c8e       0xa6 obj/default/menuComponent/errorCheck.o
                                0x143 (size before relaxing)
 .debug_str     0x00000d34       0x18 obj/default/menuComponent/pwdPage.o
                                 0x91 (size before relaxing)
 .debug_str     0x00000d4c       0x4b obj/default/menuComponent/repPage.o
                                 0xad (size before relaxing)
 .debug_str     0x00000d97       0x57 obj/default/menuComponent/shotPage.o
                                 0xc8 (size before relaxing)
 .debug_str     0x00000dee       0x6a obj/default/menuComponent/timingPage.o
                                0x11b (size before relaxing)
 .debug_str     0x00000e58       0xed c:/altera/13.1/nios2eds/bin/gnu/h-i686-mingw32/bin/../lib/gcc/nios2-elf/4.7.3/mno-hw-mul\libgcc.a(_fixunsdfsi.o)
                                0x176 (size before relaxing)
 .debug_str     0x00000f45      0x173 c:/altera/13.1/nios2eds/bin/gnu/h-i686-mingw32/bin/../lib/gcc/nios2-elf/4.7.3/mno-hw-mul\libgcc.a(_addsub_df.o)
                                0x2b7 (size before relaxing)
 .debug_str     0x000010b8       0x20 c:/altera/13.1/nios2eds/bin/gnu/h-i686-mingw32/bin/../lib/gcc/nios2-elf/4.7.3/mno-hw-mul\libgcc.a(_ge_df.o)
                                0x246 (size before relaxing)
 .debug_str     0x000010d8        0xa c:/altera/13.1/nios2eds/bin/gnu/h-i686-mingw32/bin/../lib/gcc/nios2-elf/4.7.3/mno-hw-mul\libgcc.a(_df_to_si.o)
                                0x23e (size before relaxing)
 .debug_str     0x00000000      0x1cf c:/altera/13.1/nios2eds/bin/gnu/h-i686-mingw32/bin/../lib/gcc/nios2-elf/4.7.3/mno-hw-mul\libgcc.a(_thenan_df.o)
 .debug_str     0x000010e2       0x24 c:/altera/13.1/nios2eds/bin/gnu/h-i686-mingw32/bin/../lib/gcc/nios2-elf/4.7.3/mno-hw-mul\libgcc.a(_usi_to_df.o)
                                0x218 (size before relaxing)
 .debug_str     0x00001106       0x7f c:/altera/13.1/nios2eds/bin/gnu/h-i686-mingw32/bin/../lib/gcc/nios2-elf/4.7.3/mno-hw-mul\libgcc.a(lib2-divmod.o)
                                0x169 (size before relaxing)
 .debug_str     0x00001185       0x40 c:/altera/13.1/nios2eds/bin/gnu/h-i686-mingw32/bin/../lib/gcc/nios2-elf/4.7.3/mno-hw-mul\libgcc.a(lib2-mul.o)
                                0x12a (size before relaxing)
 .debug_str     0x000011c5       0x17 c:/altera/13.1/nios2eds/bin/gnu/h-i686-mingw32/bin/../lib/gcc/nios2-elf/4.7.3/mno-hw-mul\libgcc.a(_clzsi2.o)
                                0x18b (size before relaxing)
 .debug_str     0x000011dc        0x7 c:/altera/13.1/nios2eds/bin/gnu/h-i686-mingw32/bin/../lib/gcc/nios2-elf/4.7.3/mno-hw-mul\libgcc.a(_pack_df.o)
                                0x232 (size before relaxing)
 .debug_str     0x00000000      0x214 c:/altera/13.1/nios2eds/bin/gnu/h-i686-mingw32/bin/../lib/gcc/nios2-elf/4.7.3/mno-hw-mul\libgcc.a(_unpack_df.o)
 .debug_str     0x00000000      0x1f2 c:/altera/13.1/nios2eds/bin/gnu/h-i686-mingw32/bin/../lib/gcc/nios2-elf/4.7.3/mno-hw-mul\libgcc.a(_fpcmp_parts_df.o)
 .debug_str     0x000011e3       0x39 c:/altera/13.1/nios2eds/bin/gnu/h-i686-mingw32/bin/../lib/gcc/nios2-elf/4.7.3/mno-hw-mul\libgcc.a(_lshrdi3.o)
                                0x1a2 (size before relaxing)
 .debug_str     0x0000121c        0xa c:/altera/13.1/nios2eds/bin/gnu/h-i686-mingw32/bin/../lib/gcc/nios2-elf/4.7.3/mno-hw-mul\libgcc.a(_ashldi3.o)
                                0x1a2 (size before relaxing)
 .debug_str     0x00000000      0x16e c:/altera/13.1/nios2eds/bin/gnu/h-i686-mingw32/bin/../lib/gcc/nios2-elf/4.7.3/mno-hw-mul\libgcc.a(_clz.o)
 .debug_str     0x00001226      0x450 c:/altera/13.1/nios2eds/bin/gnu/h-i686-mingw32/bin/../lib/gcc/nios2-elf/4.7.3/../../../../../H-i686-mingw32/nios2-elf/lib/mno-hw-mul\libc.a(lib_a-printf.o)
                                0x57f (size before relaxing)
 .debug_str     0x00001676       0x98 c:/altera/13.1/nios2eds/bin/gnu/h-i686-mingw32/bin/../lib/gcc/nios2-elf/4.7.3/../../../../../H-i686-mingw32/nios2-elf/lib/mno-hw-mul\libc.a(lib_a-puts.o)
                                0x57c (size before relaxing)
 .debug_str     0x0000170e       0x49 c:/altera/13.1/nios2eds/bin/gnu/h-i686-mingw32/bin/../lib/gcc/nios2-elf/4.7.3/../../../../../H-i686-mingw32/nios2-elf/lib/mno-hw-mul\libc.a(lib_a-sprintf.o)
                                0x56e (size before relaxing)
 .debug_str     0x00001757       0xe5 c:/altera/13.1/nios2eds/bin/gnu/h-i686-mingw32/bin/../lib/gcc/nios2-elf/4.7.3/../../../../../H-i686-mingw32/nios2-elf/lib/mno-hw-mul\libc.a(lib_a-strlen.o)
                                0x197 (size before relaxing)
 .debug_str     0x0000183c      0x284 c:/altera/13.1/nios2eds/bin/gnu/h-i686-mingw32/bin/../lib/gcc/nios2-elf/4.7.3/../../../../../H-i686-mingw32/nios2-elf/lib/mno-hw-mul\libc.a(lib_a-vfprintf.o)
                                0x896 (size before relaxing)
 .debug_str     0x00001ac0       0x52 c:/altera/13.1/nios2eds/bin/gnu/h-i686-mingw32/bin/../lib/gcc/nios2-elf/4.7.3/../../../../../H-i686-mingw32/nios2-elf/lib/mno-hw-mul\libc.a(lib_a-wsetup.o)
                                0x543 (size before relaxing)
 .debug_str     0x00001b12      0x1fb c:/altera/13.1/nios2eds/bin/gnu/h-i686-mingw32/bin/../lib/gcc/nios2-elf/4.7.3/../../../../../H-i686-mingw32/nios2-elf/lib/mno-hw-mul\libc.a(lib_a-dtoa.o)
                                0x686 (size before relaxing)
 .debug_str     0x00001d0d       0x5e c:/altera/13.1/nios2eds/bin/gnu/h-i686-mingw32/bin/../lib/gcc/nios2-elf/4.7.3/../../../../../H-i686-mingw32/nios2-elf/lib/mno-hw-mul\libc.a(lib_a-fflush.o)
                                0x561 (size before relaxing)
 .debug_str     0x00001d6b      0x10e c:/altera/13.1/nios2eds/bin/gnu/h-i686-mingw32/bin/../lib/gcc/nios2-elf/4.7.3/../../../../../H-i686-mingw32/nios2-elf/lib/mno-hw-mul\libc.a(lib_a-findfp.o)
                                0x62d (size before relaxing)
 .debug_str     0x00001e79      0x186 c:/altera/13.1/nios2eds/bin/gnu/h-i686-mingw32/bin/../lib/gcc/nios2-elf/4.7.3/../../../../../H-i686-mingw32/nios2-elf/lib/mno-hw-mul\libc.a(lib_a-freer.o)
                                0x68d (size before relaxing)
 .debug_str     0x00001fff       0x6f c:/altera/13.1/nios2eds/bin/gnu/h-i686-mingw32/bin/../lib/gcc/nios2-elf/4.7.3/../../../../../H-i686-mingw32/nios2-elf/lib/mno-hw-mul\libc.a(lib_a-fvwrite.o)
                                0x5c6 (size before relaxing)
 .debug_str     0x0000206e       0x61 c:/altera/13.1/nios2eds/bin/gnu/h-i686-mingw32/bin/../lib/gcc/nios2-elf/4.7.3/../../../../../H-i686-mingw32/nios2-elf/lib/mno-hw-mul\libc.a(lib_a-fwalk.o)
                                0x575 (size before relaxing)
 .debug_str     0x000020cf       0xe2 c:/altera/13.1/nios2eds/bin/gnu/h-i686-mingw32/bin/../lib/gcc/nios2-elf/4.7.3/../../../../../H-i686-mingw32/nios2-elf/lib/mno-hw-mul\libc.a(lib_a-impure.o)
                                0x534 (size before relaxing)
 .debug_str     0x000021b1      0x15a c:/altera/13.1/nios2eds/bin/gnu/h-i686-mingw32/bin/../lib/gcc/nios2-elf/4.7.3/../../../../../H-i686-mingw32/nios2-elf/lib/mno-hw-mul\libc.a(lib_a-locale.o)
                                0x6ca (size before relaxing)
 .debug_str     0x0000230b      0x12c c:/altera/13.1/nios2eds/bin/gnu/h-i686-mingw32/bin/../lib/gcc/nios2-elf/4.7.3/../../../../../H-i686-mingw32/nios2-elf/lib/mno-hw-mul\libc.a(lib_a-makebuf.o)
                                0x63d (size before relaxing)
 .debug_str     0x00002437       0xd9 c:/altera/13.1/nios2eds/bin/gnu/h-i686-mingw32/bin/../lib/gcc/nios2-elf/4.7.3/../../../../../H-i686-mingw32/nios2-elf/lib/mno-hw-mul\libc.a(lib_a-mallocr.o)
                                0x743 (size before relaxing)
 .debug_str     0x00002510       0x4c c:/altera/13.1/nios2eds/bin/gnu/h-i686-mingw32/bin/../lib/gcc/nios2-elf/4.7.3/../../../../../H-i686-mingw32/nios2-elf/lib/mno-hw-mul\libc.a(lib_a-memchr.o)
                                0x1a5 (size before relaxing)
 .debug_str     0x0000255c       0x65 c:/altera/13.1/nios2eds/bin/gnu/h-i686-mingw32/bin/../lib/gcc/nios2-elf/4.7.3/../../../../../H-i686-mingw32/nios2-elf/lib/mno-hw-mul\libc.a(lib_a-memcpy.o)
                                0x134 (size before relaxing)
 .debug_str     0x000025c1       0x48 c:/altera/13.1/nios2eds/bin/gnu/h-i686-mingw32/bin/../lib/gcc/nios2-elf/4.7.3/../../../../../H-i686-mingw32/nios2-elf/lib/mno-hw-mul\libc.a(lib_a-memmove.o)
                                0x1b7 (size before relaxing)
 .debug_str     0x00002609       0x3e c:/altera/13.1/nios2eds/bin/gnu/h-i686-mingw32/bin/../lib/gcc/nios2-elf/4.7.3/../../../../../H-i686-mingw32/nios2-elf/lib/mno-hw-mul\libc.a(lib_a-memset.o)
                                0x198 (size before relaxing)
 .debug_str     0x00002647       0xa8 c:/altera/13.1/nios2eds/bin/gnu/h-i686-mingw32/bin/../lib/gcc/nios2-elf/4.7.3/../../../../../H-i686-mingw32/nios2-elf/lib/mno-hw-mul\libc.a(lib_a-mprec.o)
                                0x640 (size before relaxing)
 .debug_str     0x000026ef       0x4e c:/altera/13.1/nios2eds/bin/gnu/h-i686-mingw32/bin/../lib/gcc/nios2-elf/4.7.3/../../../../../H-i686-mingw32/nios2-elf/lib/mno-hw-mul\libc.a(lib_a-reallocr.o)
                                0x615 (size before relaxing)
 .debug_str     0x0000273d       0xe4 c:/altera/13.1/nios2eds/bin/gnu/h-i686-mingw32/bin/../lib/gcc/nios2-elf/4.7.3/../../../../../H-i686-mingw32/nios2-elf/lib/mno-hw-mul\libc.a(lib_a-s_isinfd.o)
                                0x1af (size before relaxing)
 .debug_str     0x00002821       0x40 c:/altera/13.1/nios2eds/bin/gnu/h-i686-mingw32/bin/../lib/gcc/nios2-elf/4.7.3/../../../../../H-i686-mingw32/nios2-elf/lib/mno-hw-mul\libc.a(lib_a-s_isnand.o)
                                0x1af (size before relaxing)
 .debug_str     0x00002861       0x46 c:/altera/13.1/nios2eds/bin/gnu/h-i686-mingw32/bin/../lib/gcc/nios2-elf/4.7.3/../../../../../H-i686-mingw32/nios2-elf/lib/mno-hw-mul\libc.a(lib_a-sbrkr.o)
                                0x52a (size before relaxing)
 .debug_str     0x000028a7       0x91 c:/altera/13.1/nios2eds/bin/gnu/h-i686-mingw32/bin/../lib/gcc/nios2-elf/4.7.3/../../../../../H-i686-mingw32/nios2-elf/lib/mno-hw-mul\libc.a(lib_a-stdio.o)
                                0x57e (size before relaxing)
 .debug_str     0x00002938       0x3e c:/altera/13.1/nios2eds/bin/gnu/h-i686-mingw32/bin/../lib/gcc/nios2-elf/4.7.3/../../../../../H-i686-mingw32/nios2-elf/lib/mno-hw-mul\libc.a(lib_a-strcmp.o)
                                0x17d (size before relaxing)
 .debug_str     0x00002976       0x3d c:/altera/13.1/nios2eds/bin/gnu/h-i686-mingw32/bin/../lib/gcc/nios2-elf/4.7.3/../../../../../H-i686-mingw32/nios2-elf/lib/mno-hw-mul\libc.a(lib_a-writer.o)
                                0x52e (size before relaxing)
 .debug_str     0x000029b3        0xf c:/altera/13.1/nios2eds/bin/gnu/h-i686-mingw32/bin/../lib/gcc/nios2-elf/4.7.3/../../../../../H-i686-mingw32/nios2-elf/lib/mno-hw-mul\libc.a(lib_a-callocr.o)
                                0x56d (size before relaxing)
 .debug_str     0x000029c2       0x3d c:/altera/13.1/nios2eds/bin/gnu/h-i686-mingw32/bin/../lib/gcc/nios2-elf/4.7.3/../../../../../H-i686-mingw32/nios2-elf/lib/mno-hw-mul\libc.a(lib_a-closer.o)
                                0x51e (size before relaxing)
 .debug_str     0x000029ff       0x4e c:/altera/13.1/nios2eds/bin/gnu/h-i686-mingw32/bin/../lib/gcc/nios2-elf/4.7.3/../../../../../H-i686-mingw32/nios2-elf/lib/mno-hw-mul\libc.a(lib_a-fclose.o)
                                0x570 (size before relaxing)
 .debug_str     0x00002a4d       0x49 c:/altera/13.1/nios2eds/bin/gnu/h-i686-mingw32/bin/../lib/gcc/nios2-elf/4.7.3/../../../../../H-i686-mingw32/nios2-elf/lib/mno-hw-mul\libc.a(lib_a-fstatr.o)
                                0x611 (size before relaxing)
 .debug_str     0x00002a96       0x40 c:/altera/13.1/nios2eds/bin/gnu/h-i686-mingw32/bin/../lib/gcc/nios2-elf/4.7.3/../../../../../H-i686-mingw32/nios2-elf/lib/mno-hw-mul\libc.a(lib_a-int_errno.o)
                                0x17d (size before relaxing)
 .debug_str     0x00002ad6       0x45 c:/altera/13.1/nios2eds/bin/gnu/h-i686-mingw32/bin/../lib/gcc/nios2-elf/4.7.3/../../../../../H-i686-mingw32/nios2-elf/lib/mno-hw-mul\libc.a(lib_a-isattyr.o)
                                0x521 (size before relaxing)
 .debug_str     0x00002b1b       0x43 c:/altera/13.1/nios2eds/bin/gnu/h-i686-mingw32/bin/../lib/gcc/nios2-elf/4.7.3/../../../../../H-i686-mingw32/nios2-elf/lib/mno-hw-mul\libc.a(lib_a-lseekr.o)
                                0x532 (size before relaxing)
 .debug_str     0x00002b5e       0x3c c:/altera/13.1/nios2eds/bin/gnu/h-i686-mingw32/bin/../lib/gcc/nios2-elf/4.7.3/../../../../../H-i686-mingw32/nios2-elf/lib/mno-hw-mul\libc.a(lib_a-readr.o)
                                0x52b (size before relaxing)
 .debug_str     0x00002b9a       0x5d c:/altera/13.1/nios2eds/bin/gnu/h-i686-mingw32/bin/../lib/gcc/nios2-elf/4.7.3/mno-hw-mul\libgcc.a(_udivdi3.o)
                                0x204 (size before relaxing)
 .debug_str     0x00002bf7        0xa c:/altera/13.1/nios2eds/bin/gnu/h-i686-mingw32/bin/../lib/gcc/nios2-elf/4.7.3/mno-hw-mul\libgcc.a(_umoddi3.o)
                                0x204 (size before relaxing)
 .debug_str     0x00002c01       0x40 c:/altera/13.1/nios2eds/bin/gnu/h-i686-mingw32/bin/../lib/gcc/nios2-elf/4.7.3/mno-hw-mul\libgcc.a(_mul_df.o)
                                0x289 (size before relaxing)
 .debug_str     0x00002c41       0x35 c:/altera/13.1/nios2eds/bin/gnu/h-i686-mingw32/bin/../lib/gcc/nios2-elf/4.7.3/mno-hw-mul\libgcc.a(_div_df.o)
                                0x279 (size before relaxing)
 .debug_str     0x00002c76        0x8 c:/altera/13.1/nios2eds/bin/gnu/h-i686-mingw32/bin/../lib/gcc/nios2-elf/4.7.3/mno-hw-mul\libgcc.a(_eq_df.o)
                                0x246 (size before relaxing)
 .debug_str     0x00002c7e        0x8 c:/altera/13.1/nios2eds/bin/gnu/h-i686-mingw32/bin/../lib/gcc/nios2-elf/4.7.3/mno-hw-mul\libgcc.a(_ne_df.o)
                                0x246 (size before relaxing)
 .debug_str     0x00002c86        0x8 c:/altera/13.1/nios2eds/bin/gnu/h-i686-mingw32/bin/../lib/gcc/nios2-elf/4.7.3/mno-hw-mul\libgcc.a(_gt_df.o)
                                0x246 (size before relaxing)
 .debug_str     0x00002c8e        0x8 c:/altera/13.1/nios2eds/bin/gnu/h-i686-mingw32/bin/../lib/gcc/nios2-elf/4.7.3/mno-hw-mul\libgcc.a(_lt_df.o)
                                0x246 (size before relaxing)
 .debug_str     0x00002c96       0x11 c:/altera/13.1/nios2eds/bin/gnu/h-i686-mingw32/bin/../lib/gcc/nios2-elf/4.7.3/mno-hw-mul\libgcc.a(_si_to_df.o)
                                0x21c (size before relaxing)
 .debug_str     0x00002ca7        0x9 c:/altera/13.1/nios2eds/bin/gnu/h-i686-mingw32/bin/../lib/gcc/nios2-elf/4.7.3/mno-hw-mul\libgcc.a(_muldi3.o)
                                0x1b0 (size before relaxing)
 .debug_str     0x00002cb0       0xf2 ../Controller_sw_bsp/\libhal_bsp.a(alt_close.o)
                                0x1d5 (size before relaxing)
 .debug_str     0x00002da2       0x50 ../Controller_sw_bsp/\libhal_bsp.a(alt_dev.o)
                                0x2cf (size before relaxing)
 .debug_str     0x00002df2       0x14 ../Controller_sw_bsp/\libhal_bsp.a(alt_errno.o)
                                0x10f (size before relaxing)
 .debug_str     0x00002e06       0x14 ../Controller_sw_bsp/\libhal_bsp.a(alt_fstat.o)
                                0x2b6 (size before relaxing)
 .debug_str     0x00002e1a       0xfc ../Controller_sw_bsp/\libhal_bsp.a(alt_iic.o)
                                0x208 (size before relaxing)
 .debug_str     0x00002f16       0x4c ../Controller_sw_bsp/\libhal_bsp.a(alt_iic_isr_register.o)
                                0x1b2 (size before relaxing)
 .debug_str     0x00002f62       0x3a ../Controller_sw_bsp/\libhal_bsp.a(alt_irq_handler.o)
                                0x161 (size before relaxing)
 .debug_str     0x00002f9c       0x17 ../Controller_sw_bsp/\libhal_bsp.a(alt_irq_vars.o)
                                0x110 (size before relaxing)
 .debug_str     0x00002fb3       0x15 ../Controller_sw_bsp/\libhal_bsp.a(alt_isatty.o)
                                0x2be (size before relaxing)
 .debug_str     0x00002fc8       0x14 ../Controller_sw_bsp/\libhal_bsp.a(alt_lseek.o)
                                0x1db (size before relaxing)
 .debug_str     0x00002fdc       0x44 ../Controller_sw_bsp/\libhal_bsp.a(alt_main.o)
                                0x167 (size before relaxing)
 .debug_str     0x00003020       0x1a ../Controller_sw_bsp/\libhal_bsp.a(alt_malloc_lock.o)
                                0x4b8 (size before relaxing)
 .debug_str     0x0000303a       0x13 ../Controller_sw_bsp/\libhal_bsp.a(alt_read.o)
                                0x2c1 (size before relaxing)
 .debug_str     0x0000304d       0x28 ../Controller_sw_bsp/\libhal_bsp.a(alt_release_fd.o)
                                0x1a9 (size before relaxing)
 .debug_str     0x00003075       0x61 ../Controller_sw_bsp/\libhal_bsp.a(alt_sbrk.o)
                                0x19e (size before relaxing)
 .debug_str     0x000030d6       0x14 ../Controller_sw_bsp/\libhal_bsp.a(alt_write.o)
                                0x2c2 (size before relaxing)
 .debug_str     0x000030ea      0x336 ../Controller_sw_bsp/\libhal_bsp.a(alt_sys_init.o)
                                0x53d (size before relaxing)
 .debug_str     0x00003420      0x219 ../Controller_sw_bsp/\libhal_bsp.a(altera_avalon_epcs_flash_controller.o)
                                0x511 (size before relaxing)
 .debug_str     0x00003639       0xac ../Controller_sw_bsp/\libhal_bsp.a(altera_avalon_jtag_uart_fd.o)
                                0x36e (size before relaxing)
 .debug_str     0x000036e5       0xd1 ../Controller_sw_bsp/\libhal_bsp.a(altera_avalon_jtag_uart_init.o)
                                0x302 (size before relaxing)
 .debug_str     0x000037b6       0x4a ../Controller_sw_bsp/\libhal_bsp.a(altera_avalon_jtag_uart_ioctl.o)
                                0x25d (size before relaxing)
 .debug_str     0x00003800       0x48 ../Controller_sw_bsp/\libhal_bsp.a(altera_avalon_jtag_uart_read.o)
                                0x2b2 (size before relaxing)
 .debug_str     0x00003848       0x4a ../Controller_sw_bsp/\libhal_bsp.a(altera_avalon_jtag_uart_write.o)
                                0x2b3 (size before relaxing)
 .debug_str     0x00003892       0x77 ../Controller_sw_bsp/\libhal_bsp.a(altera_avalon_uart_fd.o)
                                0x2bf (size before relaxing)
 .debug_str     0x00003909       0xa0 ../Controller_sw_bsp/\libhal_bsp.a(altera_avalon_uart_init.o)
                                0x281 (size before relaxing)
 .debug_str     0x000039a9       0x4f ../Controller_sw_bsp/\libhal_bsp.a(altera_avalon_uart_read.o)
                                0x262 (size before relaxing)
 .debug_str     0x000039f8       0x49 ../Controller_sw_bsp/\libhal_bsp.a(altera_avalon_uart_write.o)
                                0x256 (size before relaxing)
 .debug_str     0x00003a41      0x16a ../Controller_sw_bsp/\libhal_bsp.a(epcs_commands.o)
                                0x2a9 (size before relaxing)
 .debug_str     0x00003bab       0x5f ../Controller_sw_bsp/\libhal_bsp.a(alt_alarm_start.o)
                                0x248 (size before relaxing)
 .debug_str     0x00003c0a       0x34 ../Controller_sw_bsp/\libhal_bsp.a(alt_dev_llist_insert.o)
                                0x196 (size before relaxing)
 .debug_str     0x00003c3e       0x48 ../Controller_sw_bsp/\libhal_bsp.a(alt_do_ctors.o)
                                 0xa6 (size before relaxing)
 .debug_str     0x00003c86       0x4c ../Controller_sw_bsp/\libhal_bsp.a(alt_do_dtors.o)
                                 0xa5 (size before relaxing)
 .debug_str     0x00003cd2       0x3f ../Controller_sw_bsp/\libhal_bsp.a(alt_flash_dev.o)
                                0x2b9 (size before relaxing)
 .debug_str     0x00003d11       0x56 ../Controller_sw_bsp/\libhal_bsp.a(alt_io_redirect.o)
                                0x2e0 (size before relaxing)
 .debug_str     0x00003d67       0x29 ../Controller_sw_bsp/\libhal_bsp.a(alt_open.o)
                                0x215 (size before relaxing)
 .debug_str     0x00003d90       0x4a ../Controller_sw_bsp/\libhal_bsp.a(alt_tick.o)
                                0x21c (size before relaxing)
 .debug_str     0x00003dda       0x3b ../Controller_sw_bsp/\libhal_bsp.a(altera_nios2_qsys_irq.o)
                                0x126 (size before relaxing)
 .debug_str     0x00003e15       0xa5 ../Controller_sw_bsp/\libhal_bsp.a(altera_avalon_spi.o)
                                0x1aa (size before relaxing)
 .debug_str     0x00003eba       0x24 ../Controller_sw_bsp/\libhal_bsp.a(alt_find_dev.o)
                                0x1b6 (size before relaxing)
 .debug_str     0x00003ede       0x26 ../Controller_sw_bsp/\libhal_bsp.a(alt_find_file.o)
                                0x1c4 (size before relaxing)
 .debug_str     0x00003f04       0x30 ../Controller_sw_bsp/\libhal_bsp.a(alt_get_fd.o)
                                0x1e6 (size before relaxing)
 .debug_str     0x00003f34       0x82 c:/altera/13.1/nios2eds/bin/gnu/h-i686-mingw32/bin/../lib/gcc/nios2-elf/4.7.3/../../../../../H-i686-mingw32/nios2-elf/lib/mno-hw-mul\libc.a(lib_a-atexit.o)
                                0x21d (size before relaxing)
 .debug_str     0x00003fb6       0x4d c:/altera/13.1/nios2eds/bin/gnu/h-i686-mingw32/bin/../lib/gcc/nios2-elf/4.7.3/../../../../../H-i686-mingw32/nios2-elf/lib/mno-hw-mul\libc.a(lib_a-exit.o)
                                0x53d (size before relaxing)
 .debug_str     0x00004003       0x3e c:/altera/13.1/nios2eds/bin/gnu/h-i686-mingw32/bin/../lib/gcc/nios2-elf/4.7.3/../../../../../H-i686-mingw32/nios2-elf/lib/mno-hw-mul\libc.a(lib_a-memcmp.o)
                                0x184 (size before relaxing)
 .debug_str     0x00004041       0x40 c:/altera/13.1/nios2eds/bin/gnu/h-i686-mingw32/bin/../lib/gcc/nios2-elf/4.7.3/../../../../../H-i686-mingw32/nios2-elf/lib/mno-hw-mul\libc.a(lib_a-__atexit.o)
                                0x581 (size before relaxing)
 .debug_str     0x00004081       0x5f c:/altera/13.1/nios2eds/bin/gnu/h-i686-mingw32/bin/../lib/gcc/nios2-elf/4.7.3/../../../../../H-i686-mingw32/nios2-elf/lib/mno-hw-mul\libc.a(lib_a-__call_atexit.o)
                                0x55f (size before relaxing)
 .debug_str     0x000040e0       0x2a ../Controller_sw_bsp/\libhal_bsp.a(alt_exit.o)
                                0x11b (size before relaxing)

.debug_loc      0x00000000    0x12a27
 *(.debug_loc)
 .debug_loc     0x00000000       0xdc obj/default/driver/Counter.o
 .debug_loc     0x000000dc      0x18c obj/default/driver/DisDriver.o
 .debug_loc     0x00000268       0xdc obj/default/driver/FRAM.o
 .debug_loc     0x00000344      0x23c obj/default/driver/KPLED.o
 .debug_loc     0x00000580      0x160 obj/default/driver/comInterface.o
 .debug_loc     0x000006e0       0x2c obj/default/driver/coverPage.o
 .debug_loc     0x0000070c       0x2c obj/default/driver/delay.o
 .debug_loc     0x00000738      0x210 obj/default/driver/loadWriteData.o
 .debug_loc     0x00000948       0x58 obj/default/driver/powerFailure.o
 .debug_loc     0x000009a0       0xdc obj/default/driver/uart.o
 .debug_loc     0x00000a7c       0xb0 obj/default/main/TopMenu.o
 .debug_loc     0x00000b2c       0x2c obj/default/main/main.o
 .debug_loc     0x00000b58      0x18c obj/default/menuComponent/FireMenu.o
 .debug_loc     0x00000ce4       0x58 obj/default/menuComponent/HeaterWarmingUp.o
 .debug_loc     0x00000d3c       0xb0 obj/default/menuComponent/ParameterMenu.o
 .debug_loc     0x00000dec       0x84 obj/default/menuComponent/RemoteMenu.o
 .debug_loc     0x00000e70       0xdc obj/default/menuComponent/SaveLoadMenu.o
 .debug_loc     0x00000f4c       0xb0 obj/default/menuComponent/ShotCountersMenu.o
 .debug_loc     0x00000ffc       0xdc obj/default/menuComponent/ShutdownMenu.o
 .debug_loc     0x000010d8       0xdc obj/default/menuComponent/StartupMenu.o
 .debug_loc     0x000011b4      0x108 obj/default/menuComponent/editNum10.o
 .debug_loc     0x000012bc       0xb0 obj/default/menuComponent/editNum2.o
 .debug_loc     0x0000136c       0xb0 obj/default/menuComponent/editNum5.o
 .debug_loc     0x0000141c       0x84 obj/default/menuComponent/enterPWD.o
 .debug_loc     0x000014a0      0x134 obj/default/menuComponent/errorCheck.o
 .debug_loc     0x000015d4       0x2c obj/default/menuComponent/pwdPage.o
 .debug_loc     0x00001600       0x58 obj/default/menuComponent/repPage.o
 .debug_loc     0x00001658       0x58 obj/default/menuComponent/shotPage.o
 .debug_loc     0x000016b0       0x84 obj/default/menuComponent/timingPage.o
 .debug_loc     0x00001734       0x48 c:/altera/13.1/nios2eds/bin/gnu/h-i686-mingw32/bin/../lib/gcc/nios2-elf/4.7.3/mno-hw-mul\libgcc.a(_fixunsdfsi.o)
 .debug_loc     0x0000177c      0x7a1 c:/altera/13.1/nios2eds/bin/gnu/h-i686-mingw32/bin/../lib/gcc/nios2-elf/4.7.3/mno-hw-mul\libgcc.a(_addsub_df.o)
 .debug_loc     0x00001f1d       0x70 c:/altera/13.1/nios2eds/bin/gnu/h-i686-mingw32/bin/../lib/gcc/nios2-elf/4.7.3/mno-hw-mul\libgcc.a(_ge_df.o)
 .debug_loc     0x00001f8d       0xce c:/altera/13.1/nios2eds/bin/gnu/h-i686-mingw32/bin/../lib/gcc/nios2-elf/4.7.3/mno-hw-mul\libgcc.a(_df_to_si.o)
 .debug_loc     0x0000205b      0x168 c:/altera/13.1/nios2eds/bin/gnu/h-i686-mingw32/bin/../lib/gcc/nios2-elf/4.7.3/mno-hw-mul\libgcc.a(_usi_to_df.o)
 .debug_loc     0x000021c3      0x338 c:/altera/13.1/nios2eds/bin/gnu/h-i686-mingw32/bin/../lib/gcc/nios2-elf/4.7.3/mno-hw-mul\libgcc.a(lib2-divmod.o)
 .debug_loc     0x000024fb       0x93 c:/altera/13.1/nios2eds/bin/gnu/h-i686-mingw32/bin/../lib/gcc/nios2-elf/4.7.3/mno-hw-mul\libgcc.a(lib2-mul.o)
 .debug_loc     0x0000258e      0x19a c:/altera/13.1/nios2eds/bin/gnu/h-i686-mingw32/bin/../lib/gcc/nios2-elf/4.7.3/mno-hw-mul\libgcc.a(_clzsi2.o)
 .debug_loc     0x00002728      0x2ae c:/altera/13.1/nios2eds/bin/gnu/h-i686-mingw32/bin/../lib/gcc/nios2-elf/4.7.3/mno-hw-mul\libgcc.a(_pack_df.o)
 .debug_loc     0x000029d6      0x179 c:/altera/13.1/nios2eds/bin/gnu/h-i686-mingw32/bin/../lib/gcc/nios2-elf/4.7.3/mno-hw-mul\libgcc.a(_unpack_df.o)
 .debug_loc     0x00002b4f       0x7c c:/altera/13.1/nios2eds/bin/gnu/h-i686-mingw32/bin/../lib/gcc/nios2-elf/4.7.3/mno-hw-mul\libgcc.a(_fpcmp_parts_df.o)
 .debug_loc     0x00002bcb       0xc4 c:/altera/13.1/nios2eds/bin/gnu/h-i686-mingw32/bin/../lib/gcc/nios2-elf/4.7.3/mno-hw-mul\libgcc.a(_lshrdi3.o)
 .debug_loc     0x00002c8f       0xc4 c:/altera/13.1/nios2eds/bin/gnu/h-i686-mingw32/bin/../lib/gcc/nios2-elf/4.7.3/mno-hw-mul\libgcc.a(_ashldi3.o)
 .debug_loc     0x00002d53      0x132 c:/altera/13.1/nios2eds/bin/gnu/h-i686-mingw32/bin/../lib/gcc/nios2-elf/4.7.3/../../../../../H-i686-mingw32/nios2-elf/lib/mno-hw-mul\libc.a(lib_a-printf.o)
 .debug_loc     0x00002e85       0xd9 c:/altera/13.1/nios2eds/bin/gnu/h-i686-mingw32/bin/../lib/gcc/nios2-elf/4.7.3/../../../../../H-i686-mingw32/nios2-elf/lib/mno-hw-mul\libc.a(lib_a-puts.o)
 .debug_loc     0x00002f5e      0x148 c:/altera/13.1/nios2eds/bin/gnu/h-i686-mingw32/bin/../lib/gcc/nios2-elf/4.7.3/../../../../../H-i686-mingw32/nios2-elf/lib/mno-hw-mul\libc.a(lib_a-sprintf.o)
 .debug_loc     0x000030a6       0x52 c:/altera/13.1/nios2eds/bin/gnu/h-i686-mingw32/bin/../lib/gcc/nios2-elf/4.7.3/../../../../../H-i686-mingw32/nios2-elf/lib/mno-hw-mul\libc.a(lib_a-strlen.o)
 .debug_loc     0x000030f8     0x2f0e c:/altera/13.1/nios2eds/bin/gnu/h-i686-mingw32/bin/../lib/gcc/nios2-elf/4.7.3/../../../../../H-i686-mingw32/nios2-elf/lib/mno-hw-mul\libc.a(lib_a-vfprintf.o)
 .debug_loc     0x00006006       0xba c:/altera/13.1/nios2eds/bin/gnu/h-i686-mingw32/bin/../lib/gcc/nios2-elf/4.7.3/../../../../../H-i686-mingw32/nios2-elf/lib/mno-hw-mul\libc.a(lib_a-wsetup.o)
 .debug_loc     0x000060c0     0x225e c:/altera/13.1/nios2eds/bin/gnu/h-i686-mingw32/bin/../lib/gcc/nios2-elf/4.7.3/../../../../../H-i686-mingw32/nios2-elf/lib/mno-hw-mul\libc.a(lib_a-dtoa.o)
 .debug_loc     0x0000831e      0x259 c:/altera/13.1/nios2eds/bin/gnu/h-i686-mingw32/bin/../lib/gcc/nios2-elf/4.7.3/../../../../../H-i686-mingw32/nios2-elf/lib/mno-hw-mul\libc.a(lib_a-fflush.o)
 .debug_loc     0x00008577      0x2a7 c:/altera/13.1/nios2eds/bin/gnu/h-i686-mingw32/bin/../lib/gcc/nios2-elf/4.7.3/../../../../../H-i686-mingw32/nios2-elf/lib/mno-hw-mul\libc.a(lib_a-findfp.o)
 .debug_loc     0x0000881e      0x668 c:/altera/13.1/nios2eds/bin/gnu/h-i686-mingw32/bin/../lib/gcc/nios2-elf/4.7.3/../../../../../H-i686-mingw32/nios2-elf/lib/mno-hw-mul\libc.a(lib_a-freer.o)
 .debug_loc     0x00008e86      0x50c c:/altera/13.1/nios2eds/bin/gnu/h-i686-mingw32/bin/../lib/gcc/nios2-elf/4.7.3/../../../../../H-i686-mingw32/nios2-elf/lib/mno-hw-mul\libc.a(lib_a-fvwrite.o)
 .debug_loc     0x00009392      0x2ae c:/altera/13.1/nios2eds/bin/gnu/h-i686-mingw32/bin/../lib/gcc/nios2-elf/4.7.3/../../../../../H-i686-mingw32/nios2-elf/lib/mno-hw-mul\libc.a(lib_a-fwalk.o)
 .debug_loc     0x00009640      0x13e c:/altera/13.1/nios2eds/bin/gnu/h-i686-mingw32/bin/../lib/gcc/nios2-elf/4.7.3/../../../../../H-i686-mingw32/nios2-elf/lib/mno-hw-mul\libc.a(lib_a-locale.o)
 .debug_loc     0x0000977e      0x16a c:/altera/13.1/nios2eds/bin/gnu/h-i686-mingw32/bin/../lib/gcc/nios2-elf/4.7.3/../../../../../H-i686-mingw32/nios2-elf/lib/mno-hw-mul\libc.a(lib_a-makebuf.o)
 .debug_loc     0x000098e8      0xb50 c:/altera/13.1/nios2eds/bin/gnu/h-i686-mingw32/bin/../lib/gcc/nios2-elf/4.7.3/../../../../../H-i686-mingw32/nios2-elf/lib/mno-hw-mul\libc.a(lib_a-mallocr.o)
 .debug_loc     0x0000a438      0x239 c:/altera/13.1/nios2eds/bin/gnu/h-i686-mingw32/bin/../lib/gcc/nios2-elf/4.7.3/../../../../../H-i686-mingw32/nios2-elf/lib/mno-hw-mul\libc.a(lib_a-memchr.o)
 .debug_loc     0x0000a671      0x29c c:/altera/13.1/nios2eds/bin/gnu/h-i686-mingw32/bin/../lib/gcc/nios2-elf/4.7.3/../../../../../H-i686-mingw32/nios2-elf/lib/mno-hw-mul\libc.a(lib_a-memcpy.o)
 .debug_loc     0x0000a90d      0x301 c:/altera/13.1/nios2eds/bin/gnu/h-i686-mingw32/bin/../lib/gcc/nios2-elf/4.7.3/../../../../../H-i686-mingw32/nios2-elf/lib/mno-hw-mul\libc.a(lib_a-memmove.o)
 .debug_loc     0x0000ac0e      0x1b7 c:/altera/13.1/nios2eds/bin/gnu/h-i686-mingw32/bin/../lib/gcc/nios2-elf/4.7.3/../../../../../H-i686-mingw32/nios2-elf/lib/mno-hw-mul\libc.a(lib_a-memset.o)
 .debug_loc     0x0000adc5     0x1b8a c:/altera/13.1/nios2eds/bin/gnu/h-i686-mingw32/bin/../lib/gcc/nios2-elf/4.7.3/../../../../../H-i686-mingw32/nios2-elf/lib/mno-hw-mul\libc.a(lib_a-mprec.o)
 .debug_loc     0x0000c94f     0x1136 c:/altera/13.1/nios2eds/bin/gnu/h-i686-mingw32/bin/../lib/gcc/nios2-elf/4.7.3/../../../../../H-i686-mingw32/nios2-elf/lib/mno-hw-mul\libc.a(lib_a-reallocr.o)
 .debug_loc     0x0000da85       0x88 c:/altera/13.1/nios2eds/bin/gnu/h-i686-mingw32/bin/../lib/gcc/nios2-elf/4.7.3/../../../../../H-i686-mingw32/nios2-elf/lib/mno-hw-mul\libc.a(lib_a-s_isinfd.o)
 .debug_loc     0x0000db0d       0xa5 c:/altera/13.1/nios2eds/bin/gnu/h-i686-mingw32/bin/../lib/gcc/nios2-elf/4.7.3/../../../../../H-i686-mingw32/nios2-elf/lib/mno-hw-mul\libc.a(lib_a-s_isnand.o)
 .debug_loc     0x0000dbb2       0x86 c:/altera/13.1/nios2eds/bin/gnu/h-i686-mingw32/bin/../lib/gcc/nios2-elf/4.7.3/../../../../../H-i686-mingw32/nios2-elf/lib/mno-hw-mul\libc.a(lib_a-sbrkr.o)
 .debug_loc     0x0000dc38      0x379 c:/altera/13.1/nios2eds/bin/gnu/h-i686-mingw32/bin/../lib/gcc/nios2-elf/4.7.3/../../../../../H-i686-mingw32/nios2-elf/lib/mno-hw-mul\libc.a(lib_a-stdio.o)
 .debug_loc     0x0000dfb1       0xb0 c:/altera/13.1/nios2eds/bin/gnu/h-i686-mingw32/bin/../lib/gcc/nios2-elf/4.7.3/../../../../../H-i686-mingw32/nios2-elf/lib/mno-hw-mul\libc.a(lib_a-strcmp.o)
 .debug_loc     0x0000e061       0xde c:/altera/13.1/nios2eds/bin/gnu/h-i686-mingw32/bin/../lib/gcc/nios2-elf/4.7.3/../../../../../H-i686-mingw32/nios2-elf/lib/mno-hw-mul\libc.a(lib_a-writer.o)
 .debug_loc     0x0000e13f      0x259 c:/altera/13.1/nios2eds/bin/gnu/h-i686-mingw32/bin/../lib/gcc/nios2-elf/4.7.3/../../../../../H-i686-mingw32/nios2-elf/lib/mno-hw-mul\libc.a(lib_a-callocr.o)
 .debug_loc     0x0000e398       0x86 c:/altera/13.1/nios2eds/bin/gnu/h-i686-mingw32/bin/../lib/gcc/nios2-elf/4.7.3/../../../../../H-i686-mingw32/nios2-elf/lib/mno-hw-mul\libc.a(lib_a-closer.o)
 .debug_loc     0x0000e41e      0x136 c:/altera/13.1/nios2eds/bin/gnu/h-i686-mingw32/bin/../lib/gcc/nios2-elf/4.7.3/../../../../../H-i686-mingw32/nios2-elf/lib/mno-hw-mul\libc.a(lib_a-fclose.o)
 .debug_loc     0x0000e554       0xb2 c:/altera/13.1/nios2eds/bin/gnu/h-i686-mingw32/bin/../lib/gcc/nios2-elf/4.7.3/../../../../../H-i686-mingw32/nios2-elf/lib/mno-hw-mul\libc.a(lib_a-fstatr.o)
 .debug_loc     0x0000e606       0x86 c:/altera/13.1/nios2eds/bin/gnu/h-i686-mingw32/bin/../lib/gcc/nios2-elf/4.7.3/../../../../../H-i686-mingw32/nios2-elf/lib/mno-hw-mul\libc.a(lib_a-isattyr.o)
 .debug_loc     0x0000e68c       0xde c:/altera/13.1/nios2eds/bin/gnu/h-i686-mingw32/bin/../lib/gcc/nios2-elf/4.7.3/../../../../../H-i686-mingw32/nios2-elf/lib/mno-hw-mul\libc.a(lib_a-lseekr.o)
 .debug_loc     0x0000e76a       0xde c:/altera/13.1/nios2eds/bin/gnu/h-i686-mingw32/bin/../lib/gcc/nios2-elf/4.7.3/../../../../../H-i686-mingw32/nios2-elf/lib/mno-hw-mul\libc.a(lib_a-readr.o)
 .debug_loc     0x0000e848     0x1202 c:/altera/13.1/nios2eds/bin/gnu/h-i686-mingw32/bin/../lib/gcc/nios2-elf/4.7.3/mno-hw-mul\libgcc.a(_udivdi3.o)
 .debug_loc     0x0000fa4a     0x10d6 c:/altera/13.1/nios2eds/bin/gnu/h-i686-mingw32/bin/../lib/gcc/nios2-elf/4.7.3/mno-hw-mul\libgcc.a(_umoddi3.o)
 .debug_loc     0x00010b20      0x3ba c:/altera/13.1/nios2eds/bin/gnu/h-i686-mingw32/bin/../lib/gcc/nios2-elf/4.7.3/mno-hw-mul\libgcc.a(_mul_df.o)
 .debug_loc     0x00010eda      0x25e c:/altera/13.1/nios2eds/bin/gnu/h-i686-mingw32/bin/../lib/gcc/nios2-elf/4.7.3/mno-hw-mul\libgcc.a(_div_df.o)
 .debug_loc     0x00011138       0x70 c:/altera/13.1/nios2eds/bin/gnu/h-i686-mingw32/bin/../lib/gcc/nios2-elf/4.7.3/mno-hw-mul\libgcc.a(_eq_df.o)
 .debug_loc     0x000111a8       0x70 c:/altera/13.1/nios2eds/bin/gnu/h-i686-mingw32/bin/../lib/gcc/nios2-elf/4.7.3/mno-hw-mul\libgcc.a(_ne_df.o)
 .debug_loc     0x00011218       0x70 c:/altera/13.1/nios2eds/bin/gnu/h-i686-mingw32/bin/../lib/gcc/nios2-elf/4.7.3/mno-hw-mul\libgcc.a(_gt_df.o)
 .debug_loc     0x00011288       0x70 c:/altera/13.1/nios2eds/bin/gnu/h-i686-mingw32/bin/../lib/gcc/nios2-elf/4.7.3/mno-hw-mul\libgcc.a(_lt_df.o)
 .debug_loc     0x000112f8       0xd3 c:/altera/13.1/nios2eds/bin/gnu/h-i686-mingw32/bin/../lib/gcc/nios2-elf/4.7.3/mno-hw-mul\libgcc.a(_si_to_df.o)
 .debug_loc     0x000113cb      0x1a8 c:/altera/13.1/nios2eds/bin/gnu/h-i686-mingw32/bin/../lib/gcc/nios2-elf/4.7.3/mno-hw-mul\libgcc.a(_muldi3.o)
 .debug_loc     0x00011573       0x58 ../Controller_sw_bsp/\libhal_bsp.a(alt_close.o)
 .debug_loc     0x000115cb       0x2c ../Controller_sw_bsp/\libhal_bsp.a(alt_dev.o)
 .debug_loc     0x000115f7       0x58 ../Controller_sw_bsp/\libhal_bsp.a(alt_fstat.o)
 .debug_loc     0x0001164f       0xb0 ../Controller_sw_bsp/\libhal_bsp.a(alt_iic.o)
 .debug_loc     0x000116ff       0x2c ../Controller_sw_bsp/\libhal_bsp.a(alt_iic_isr_register.o)
 .debug_loc     0x0001172b       0x2c ../Controller_sw_bsp/\libhal_bsp.a(alt_irq_handler.o)
 .debug_loc     0x00011757       0x59 ../Controller_sw_bsp/\libhal_bsp.a(alt_isatty.o)
 .debug_loc     0x000117b0       0x58 ../Controller_sw_bsp/\libhal_bsp.a(alt_lseek.o)
 .debug_loc     0x00011808       0x2c ../Controller_sw_bsp/\libhal_bsp.a(alt_main.o)
 .debug_loc     0x00011834       0x58 ../Controller_sw_bsp/\libhal_bsp.a(alt_malloc_lock.o)
 .debug_loc     0x0001188c       0x58 ../Controller_sw_bsp/\libhal_bsp.a(alt_read.o)
 .debug_loc     0x000118e4       0x2c ../Controller_sw_bsp/\libhal_bsp.a(alt_release_fd.o)
 .debug_loc     0x00011910       0x2c ../Controller_sw_bsp/\libhal_bsp.a(alt_sbrk.o)
 .debug_loc     0x0001193c       0x58 ../Controller_sw_bsp/\libhal_bsp.a(alt_write.o)
 .debug_loc     0x00011994       0x84 ../Controller_sw_bsp/\libhal_bsp.a(alt_sys_init.o)
 .debug_loc     0x00011a18      0x1b9 ../Controller_sw_bsp/\libhal_bsp.a(altera_avalon_epcs_flash_controller.o)
 .debug_loc     0x00011bd1       0xb0 ../Controller_sw_bsp/\libhal_bsp.a(altera_avalon_jtag_uart_fd.o)
 .debug_loc     0x00011c81       0xb0 ../Controller_sw_bsp/\libhal_bsp.a(altera_avalon_jtag_uart_init.o)
 .debug_loc     0x00011d31       0x2c ../Controller_sw_bsp/\libhal_bsp.a(altera_avalon_jtag_uart_ioctl.o)
 .debug_loc     0x00011d5d       0x2c ../Controller_sw_bsp/\libhal_bsp.a(altera_avalon_jtag_uart_read.o)
 .debug_loc     0x00011d89       0x2c ../Controller_sw_bsp/\libhal_bsp.a(altera_avalon_jtag_uart_write.o)
 .debug_loc     0x00011db5       0x84 ../Controller_sw_bsp/\libhal_bsp.a(altera_avalon_uart_fd.o)
 .debug_loc     0x00011e39       0xdc ../Controller_sw_bsp/\libhal_bsp.a(altera_avalon_uart_init.o)
 .debug_loc     0x00011f15       0x58 ../Controller_sw_bsp/\libhal_bsp.a(altera_avalon_uart_read.o)
 .debug_loc     0x00011f6d       0x58 ../Controller_sw_bsp/\libhal_bsp.a(altera_avalon_uart_write.o)
 .debug_loc     0x00011fc5      0x210 ../Controller_sw_bsp/\libhal_bsp.a(epcs_commands.o)
 .debug_loc     0x000121d5       0x2c ../Controller_sw_bsp/\libhal_bsp.a(alt_alarm_start.o)
 .debug_loc     0x00012201       0x58 ../Controller_sw_bsp/\libhal_bsp.a(alt_dev_llist_insert.o)
 .debug_loc     0x00012259       0x2c ../Controller_sw_bsp/\libhal_bsp.a(alt_do_ctors.o)
 .debug_loc     0x00012285       0x2c ../Controller_sw_bsp/\libhal_bsp.a(alt_do_dtors.o)
 .debug_loc     0x000122b1       0x58 ../Controller_sw_bsp/\libhal_bsp.a(alt_flash_dev.o)
 .debug_loc     0x00012309       0x58 ../Controller_sw_bsp/\libhal_bsp.a(alt_io_redirect.o)
 .debug_loc     0x00012361       0x84 ../Controller_sw_bsp/\libhal_bsp.a(alt_open.o)
 .debug_loc     0x000123e5       0x58 ../Controller_sw_bsp/\libhal_bsp.a(alt_tick.o)
 .debug_loc     0x0001243d       0x2c ../Controller_sw_bsp/\libhal_bsp.a(altera_nios2_qsys_irq.o)
 .debug_loc     0x00012469       0x2c ../Controller_sw_bsp/\libhal_bsp.a(altera_avalon_spi.o)
 .debug_loc     0x00012495       0x2c ../Controller_sw_bsp/\libhal_bsp.a(alt_find_dev.o)
 .debug_loc     0x000124c1       0x2c ../Controller_sw_bsp/\libhal_bsp.a(alt_find_file.o)
 .debug_loc     0x000124ed       0x2c ../Controller_sw_bsp/\libhal_bsp.a(alt_get_fd.o)
 .debug_loc     0x00012519       0x2c c:/altera/13.1/nios2eds/bin/gnu/h-i686-mingw32/bin/../lib/gcc/nios2-elf/4.7.3/../../../../../H-i686-mingw32/nios2-elf/lib/mno-hw-mul\libc.a(lib_a-atexit.o)
 .debug_loc     0x00012545       0x3e c:/altera/13.1/nios2eds/bin/gnu/h-i686-mingw32/bin/../lib/gcc/nios2-elf/4.7.3/../../../../../H-i686-mingw32/nios2-elf/lib/mno-hw-mul\libc.a(lib_a-exit.o)
 .debug_loc     0x00012583      0x103 c:/altera/13.1/nios2eds/bin/gnu/h-i686-mingw32/bin/../lib/gcc/nios2-elf/4.7.3/../../../../../H-i686-mingw32/nios2-elf/lib/mno-hw-mul\libc.a(lib_a-memcmp.o)
 .debug_loc     0x00012686      0x194 c:/altera/13.1/nios2eds/bin/gnu/h-i686-mingw32/bin/../lib/gcc/nios2-elf/4.7.3/../../../../../H-i686-mingw32/nios2-elf/lib/mno-hw-mul\libc.a(lib_a-__atexit.o)
 .debug_loc     0x0001281a      0x1e1 c:/altera/13.1/nios2eds/bin/gnu/h-i686-mingw32/bin/../lib/gcc/nios2-elf/4.7.3/../../../../../H-i686-mingw32/nios2-elf/lib/mno-hw-mul\libc.a(lib_a-__call_atexit.o)
 .debug_loc     0x000129fb       0x2c ../Controller_sw_bsp/\libhal_bsp.a(alt_exit.o)

.debug_macinfo
 *(.debug_macinfo)

.debug_weaknames
 *(.debug_weaknames)

.debug_funcnames
 *(.debug_funcnames)

.debug_typenames
 *(.debug_typenames)

.debug_varnames
 *(.debug_varnames)

.debug_alt_sim_info
                0x00000000       0x10
 *(.debug_alt_sim_info)
 .debug_alt_sim_info
                0x00000000       0x10 ../Controller_sw_bsp//obj/HAL/src/crt0.o
                0x04000000                __alt_data_end = 0x4000000
                0x04000000                PROVIDE (__alt_stack_pointer, __alt_data_end)
                0x020196fc                PROVIDE (__alt_stack_limit, __alt_stack_base)
                0x020196fc                PROVIDE (__alt_heap_start, end)
                0x04000000                PROVIDE (__alt_heap_limit, 0x4000000)
OUTPUT(Controller_sw.elf elf32-littlenios2)

.debug_ranges   0x00000000      0xac0
 .debug_ranges  0x00000000       0x30 obj/default/menuComponent/SaveLoadMenu.o
 .debug_ranges  0x00000030       0x18 obj/default/menuComponent/ShotCountersMenu.o
 .debug_ranges  0x00000048       0x38 c:/altera/13.1/nios2eds/bin/gnu/h-i686-mingw32/bin/../lib/gcc/nios2-elf/4.7.3/mno-hw-mul\libgcc.a(_addsub_df.o)
 .debug_ranges  0x00000080       0x48 c:/altera/13.1/nios2eds/bin/gnu/h-i686-mingw32/bin/../lib/gcc/nios2-elf/4.7.3/mno-hw-mul\libgcc.a(_usi_to_df.o)
 .debug_ranges  0x000000c8       0x28 c:/altera/13.1/nios2eds/bin/gnu/h-i686-mingw32/bin/../lib/gcc/nios2-elf/4.7.3/mno-hw-mul\libgcc.a(_clzsi2.o)
 .debug_ranges  0x000000f0       0x18 c:/altera/13.1/nios2eds/bin/gnu/h-i686-mingw32/bin/../lib/gcc/nios2-elf/4.7.3/mno-hw-mul\libgcc.a(_pack_df.o)
 .debug_ranges  0x00000108      0x150 c:/altera/13.1/nios2eds/bin/gnu/h-i686-mingw32/bin/../lib/gcc/nios2-elf/4.7.3/../../../../../H-i686-mingw32/nios2-elf/lib/mno-hw-mul\libc.a(lib_a-vfprintf.o)
 .debug_ranges  0x00000258       0x20 c:/altera/13.1/nios2eds/bin/gnu/h-i686-mingw32/bin/../lib/gcc/nios2-elf/4.7.3/../../../../../H-i686-mingw32/nios2-elf/lib/mno-hw-mul\libc.a(lib_a-fflush.o)
 .debug_ranges  0x00000278       0x18 c:/altera/13.1/nios2eds/bin/gnu/h-i686-mingw32/bin/../lib/gcc/nios2-elf/4.7.3/../../../../../H-i686-mingw32/nios2-elf/lib/mno-hw-mul\libc.a(lib_a-fvwrite.o)
 .debug_ranges  0x00000290       0x80 c:/altera/13.1/nios2eds/bin/gnu/h-i686-mingw32/bin/../lib/gcc/nios2-elf/4.7.3/../../../../../H-i686-mingw32/nios2-elf/lib/mno-hw-mul\libc.a(lib_a-fwalk.o)
 .debug_ranges  0x00000310       0x70 c:/altera/13.1/nios2eds/bin/gnu/h-i686-mingw32/bin/../lib/gcc/nios2-elf/4.7.3/../../../../../H-i686-mingw32/nios2-elf/lib/mno-hw-mul\libc.a(lib_a-mallocr.o)
 .debug_ranges  0x00000380       0x40 c:/altera/13.1/nios2eds/bin/gnu/h-i686-mingw32/bin/../lib/gcc/nios2-elf/4.7.3/../../../../../H-i686-mingw32/nios2-elf/lib/mno-hw-mul\libc.a(lib_a-mprec.o)
 .debug_ranges  0x000003c0      0x158 c:/altera/13.1/nios2eds/bin/gnu/h-i686-mingw32/bin/../lib/gcc/nios2-elf/4.7.3/../../../../../H-i686-mingw32/nios2-elf/lib/mno-hw-mul\libc.a(lib_a-reallocr.o)
 .debug_ranges  0x00000518       0x48 c:/altera/13.1/nios2eds/bin/gnu/h-i686-mingw32/bin/../lib/gcc/nios2-elf/4.7.3/../../../../../H-i686-mingw32/nios2-elf/lib/mno-hw-mul\libc.a(lib_a-callocr.o)
 .debug_ranges  0x00000560      0x1a0 c:/altera/13.1/nios2eds/bin/gnu/h-i686-mingw32/bin/../lib/gcc/nios2-elf/4.7.3/mno-hw-mul\libgcc.a(_udivdi3.o)
 .debug_ranges  0x00000700      0x160 c:/altera/13.1/nios2eds/bin/gnu/h-i686-mingw32/bin/../lib/gcc/nios2-elf/4.7.3/mno-hw-mul\libgcc.a(_umoddi3.o)
 .debug_ranges  0x00000860       0x78 c:/altera/13.1/nios2eds/bin/gnu/h-i686-mingw32/bin/../lib/gcc/nios2-elf/4.7.3/mno-hw-mul\libgcc.a(_mul_df.o)
 .debug_ranges  0x000008d8       0x50 c:/altera/13.1/nios2eds/bin/gnu/h-i686-mingw32/bin/../lib/gcc/nios2-elf/4.7.3/mno-hw-mul\libgcc.a(_div_df.o)
 .debug_ranges  0x00000928       0x30 c:/altera/13.1/nios2eds/bin/gnu/h-i686-mingw32/bin/../lib/gcc/nios2-elf/4.7.3/mno-hw-mul\libgcc.a(_si_to_df.o)
 .debug_ranges  0x00000958       0x70 c:/altera/13.1/nios2eds/bin/gnu/h-i686-mingw32/bin/../lib/gcc/nios2-elf/4.7.3/mno-hw-mul\libgcc.a(_muldi3.o)
 .debug_ranges  0x000009c8       0x30 ../Controller_sw_bsp/\libhal_bsp.a(alt_iic.o)
 .debug_ranges  0x000009f8       0x28 ../Controller_sw_bsp/\libhal_bsp.a(alt_irq_entry.o)
 .debug_ranges  0x00000a20       0x10 ../Controller_sw_bsp/\libhal_bsp.a(alt_irq_handler.o)
 .debug_ranges  0x00000a30       0x30 ../Controller_sw_bsp/\libhal_bsp.a(altera_avalon_jtag_uart_init.o)
 .debug_ranges  0x00000a60       0x18 ../Controller_sw_bsp/\libhal_bsp.a(altera_avalon_jtag_uart_read.o)
 .debug_ranges  0x00000a78       0x30 ../Controller_sw_bsp/\libhal_bsp.a(alt_exception_entry.o)
 .debug_ranges  0x00000aa8       0x18 c:/altera/13.1/nios2eds/bin/gnu/h-i686-mingw32/bin/../lib/gcc/nios2-elf/4.7.3/../../../../../H-i686-mingw32/nios2-elf/lib/mno-hw-mul\libc.a(lib_a-__call_atexit.o)
